 mysqld-debug

 Timestamp is 48970260 (Mon Aug 04 14:21:36 2008)

 Preferred load address is 00400000

 Start         Length     Name                   Class
 0001:00000000 0056c31aH .text                   CODE
 0001:0056c320 0000d7e2H .text$yc                CODE
 0001:00579b10 00002d1cH .text$yd                CODE
 0002:00000000 000ef22bH .rdata                  DATA
 0002:000ef22c 0000018cH .rdata$debug            DATA
 0002:000ef3b8 000101b4H .rdata$r                DATA
 0002:000ff570 00000109H .rdata$sxdata           DATA
 0002:000ff67c 00000104H .rtc$IAA                DATA
 0002:000ff780 000007c4H .rtc$IMZ                DATA
 0002:000fff44 00000104H .rtc$IZZ                DATA
 0002:00100048 00000104H .rtc$TAA                DATA
 0002:0010014c 000007c4H .rtc$TMZ                DATA
 0002:00100910 00000104H .rtc$TZZ                DATA
 0002:00100a14 00000000H .edata                  DATA
 0003:00000000 00000104H .CRT$XCA                DATA
 0003:00000104 00000104H .CRT$XCAA               DATA
 0003:00000208 000007a5H .CRT$XCU                DATA
 0003:000009b0 00000104H .CRT$XCZ                DATA
 0003:00000ab4 00000104H .CRT$XIA                DATA
 0003:00000bb8 00000118H .CRT$XIC                DATA
 0003:00000cd0 00000104H .CRT$XIZ                DATA
 0003:00000dd4 00000004H .CRT$XLA                DATA
 0003:00000dd8 00000004H .CRT$XLZ                DATA
 0003:00000ddc 00000104H .CRT$XPA                DATA
 0003:00000ee0 00000104H .CRT$XPX                DATA
 0003:00000fe4 00000104H .CRT$XPZ                DATA
 0003:000010e8 00000104H .CRT$XTA                DATA
 0003:000011ec 00000104H .CRT$XTZ                DATA
 0003:000012f0 001a2a4eH .data                   DATA
 0003:001a3d40 00011e64H .bss                    DATA
 0004:00000000 00000050H .idata$2                DATA
 0004:00000050 00000014H .idata$3                DATA
 0004:00000064 000004c8H .idata$4                DATA
 0004:0000052c 000004c8H .idata$5                DATA
 0004:000009f4 00001094H .idata$6                DATA
 0005:00000000 00000101H .tls                    DATA
 0005:00000108 000001abH .tls$                   DATA
 0005:000002b3 00000101H .tls$ZZZ                DATA
 0006:00000000 00000169H .rsrc$01                DATA
 0006:00000170 000001dcH .rsrc$02                DATA

  Address         Publics by Value              Rva+Base     Lib:Object

 0000:00000000       __except_list              00000000     <absolute>
 0000:00000002       ___safe_se_handler_count   00000002     <absolute>
 0000:0000002c       __tls_array                0000002c     <absolute>
 0001:000175d0       _my_connect                004185d0 f   client.obj
 0001:000175f0       _create_named_pipe         004185f0 f   client.obj
 0001:00017a10       _cli_safe_read             00418a10 f   client.obj
 0001:00017c50       _free_rows                 00418c50 f   client.obj
 0001:00017c90       _cli_advanced_command      00418c90 f   client.obj
 0001:00018040       _free_old_query            00419040 f   client.obj
 0001:00018190       _set_mysql_error           00419190 f   client.obj
 0001:000184b0       _end_server                004194b0 f   client.obj
 0001:00018620       _mysql_free_result@4       00419620 f   client.obj
 0001:00018810       _mysql_read_default_options 00419810 f   client.obj
 0001:000191d0       _unpack_fields             0041a1d0 f   client.obj
 0001:00019770       _cli_read_rows             0041a770 f   client.obj
 0001:00019c00       _mysql_init@4              0041ac00 f   client.obj
 0001:00019d10       _mysql_ssl_set@24          0041ad10 f   client.obj
 0001:00019f00       _mysql_get_ssl_cipher@4    0041af00 f   client.obj
 0001:0001a030       _mysql_init_character_set  0041b030 f   client.obj
 0001:0001a2b0       _mysql_real_connect@32     0041b2b0 f   client.obj
 0001:0001bff0       _mysql_reconnect           0041cff0 f   client.obj
 0001:0001c5d0       _mysql_select_db@8         0041d5d0 f   client.obj
 0001:0001cd00       _mysql_detach_stmt_list    0041dd00 f   client.obj
 0001:0001cd10       _mysql_close@4             0041dd10 f   client.obj
 0001:0001d2e0       _mysql_send_query@12       0041e2e0 f   client.obj
 0001:0001d4b0       _mysql_real_query@12       0041e4b0 f   client.obj
 0001:0001d630       _mysql_store_result@4      0041e630 f   client.obj
 0001:0001dbd0       _mysql_fetch_row@4         0041ebd0 f   client.obj
 0001:0001e030       _mysql_fetch_lengths@4     0041f030 f   client.obj
 0001:0001e0a0       _mysql_options@12          0041f0a0 f   client.obj
 0001:0001e4f0       _mysql_num_rows@4          0041f4f0 f   client.obj
 0001:0001e500       _mysql_num_fields@4        0041f500 f   client.obj
 0001:0001e510       _mysql_errno@4             0041f510 f   client.obj
 0001:0001e550       _mysql_error@4             0041f550 f   client.obj
 0001:0001e580       _mysql_get_server_version@4 0041f580 f   client.obj
 0001:0001e650       _mysql_set_character_set@8 0041f650 f   client.obj
 0001:00020480       ??_H@YGXPAXIHP6EPAX0@Z@Z   00421480 f i derror.obj
 0001:000204d0       ??_I@YGXPAXIHP6EX0@Z@Z     004214d0 f i derror.obj
 0001:00020530       ?init_errmessage@@YA_NXZ   00421530 f   derror.obj
 0001:00020df0       ?load_des_key_file@@YA_NPBD@Z 00421df0 f   des_key_file.obj
 0001:00021330       ?readfrm@@YAHPBDPAPBXPAI@Z 00422330 f   discover.obj
 0001:00021590       ?writefrm@@YAHPBDPBXI@Z    00422590 f   discover.obj
 0001:00021860       _init_client_errs          00422860 f   errmsg.obj
 0001:00021890       _finish_client_errs        00422890 f   errmsg.obj
 0001:000218d0       ?field_type_merge@Field@@SA?AW4enum_field_types@@W42@0@Z 004228d0 f   field.obj
 0001:00021950       ?result_merge_type@Field@@SA?AW4Item_result@@W4enum_field_types@@@Z 00422950 f   field.obj
 0001:000219a0       ?type_can_have_key_part@Field@@SA_NW4enum_field_types@@@Z 004229a0 f   field.obj
 0001:000219e0       ??0Field_num@@QAE@PADKPAEEW4utype@Field@@PBDPAUst_table@@E_N5@Z 004229e0 f   field.obj
 0001:00021a90       ?prepend_zeros@Field_num@@QAEXPAVString@@@Z 00422a90 f   field.obj
 0001:00021b40       ?check_int@Field_num@@QAEHPAUcharset_info_st@@PBDH1H@Z 00422b40 f   field.obj
 0001:00021d00       ?get_int@Field_num@@QAE_NPAUcharset_info_st@@PBDIPA_J_K_J4@Z 00422d00 f   field.obj
 0001:00021ea0       ?warn_if_overflow@Field@@QAEHH@Z 00422ea0 f   field.obj
 0001:00021f00       ?val_int_as_str@Field@@QAEPAVString@@PAV2@D@Z 00422f00 f   field.obj
 0001:00021fc0       ??0Field@@QAE@PADKPAEEW4utype@0@PBDPAUst_table@@@Z 00422fc0 f   field.obj
 0001:000220d0       ?offset@Field@@QAEIXZ      004230d0 f   field.obj
 0001:00022100       ?copy_from_tmp@Field@@QAEXH@Z 00423100 f   field.obj
 0001:00022190       ?send_binary@Field@@UAE_NPAVProtocol@@@Z 00423190 f   field.obj
 0001:000222a0       ?val_decimal@Field@@UAEPAVmy_decimal@@PAV2@@Z 004232a0 f   field.obj
 0001:000222e0       ?add_zerofill_and_unsigned@Field_num@@QBEXAAVString@@@Z 004232e0 f   field.obj
 0001:00022340       ?make_field@Field@@UAEXPAVSend_field@@@Z 00423340 f   field.obj
 0001:000224a0       ?convert_decimal2longlong@Field@@QAE_JPBVmy_decimal@@_NPAH@Z 004234a0 f   field.obj
 0001:000225e0       ?store_decimal@Field_num@@UAEHPBVmy_decimal@@@Z 004235e0 f   field.obj
 0001:00022690       ?val_decimal@Field_num@@UAEPAVmy_decimal@@PAV2@@Z 00423690 f   field.obj
 0001:00022730       ??0Field_str@@QAE@PADKPAEEW4utype@Field@@PBDPAUst_table@@PAUcharset_info_st@@@Z 00423730 f   field.obj
 0001:000227b0       ?make_field@Field_num@@UAEXPAVSend_field@@@Z 004237b0 f   field.obj
 0001:000227f0       ?store_decimal@Field_str@@UAEHPBVmy_decimal@@@Z 004237f0 f   field.obj
 0001:00022890       ?val_decimal@Field_str@@UAEPAVmy_decimal@@PAV2@@Z 00423890 f   field.obj
 0001:00022900       ?fill_cache_field@Field@@QAEIPAUst_cache_field@@@Z 00423900 f   field.obj
 0001:00022a10       ?get_date@Field@@UAE_NPAUst_mysql_time@@I@Z 00423a10 f   field.obj
 0001:00022b00       ?get_time@Field@@UAE_NPAUst_mysql_time@@@Z 00423b00 f   field.obj
 0001:00022bf0       ?store_time@Field@@UAEHPAUst_mysql_time@@W4enum_mysql_timestamp_type@@@Z 00423bf0 f   field.obj
 0001:00022c90       ?optimize_range@Field@@UAE_NII@Z 00423c90 f   field.obj
 0001:00022cf0       ?new_field@Field@@UAEPAV1@PAUst_mem_root@@PAUst_table@@_N@Z 00423cf0 f   field.obj
 0001:00022de0       ?new_key_field@Field@@UAEPAV1@PAUst_mem_root@@PAUst_table@@PADPAEI@Z 00423de0 f   field.obj
 0001:00022e60       ?sql_type@Field_null@@UBEXAAVString@@@Z 00423e60 f   field.obj
 0001:00022e90       ?reset@Field_decimal@@UAEHXZ 00423e90 f   field.obj
 0001:00022ed0       ?overflow@Field_decimal@@QAEX_N@Z 00423ed0 f   field.obj
 0001:00023000       ?store@Field_decimal@@UAEHPBDIPAUcharset_info_st@@@Z 00424000 f   field.obj
 0001:00023af0       ?store@Field_decimal@@UAEHN@Z 00424af0 f   field.obj
 0001:00023cb0       ?store@Field_decimal@@UAEH_J_N@Z 00424cb0 f   field.obj
 0001:00023e70       ?val_real@Field_decimal@@UAENXZ 00424e70 f   field.obj
 0001:00023f20       ?val_int@Field_decimal@@UAE_JXZ 00424f20 f   field.obj
 0001:00023ff0       ?val_str@Field_decimal@@UAEPAVString@@PAV2@0@Z 00424ff0 f   field.obj
 0001:00024090       ?cmp@Field_decimal@@UAEHPBD0@Z 00425090 f   field.obj
 0001:000241e0       ?sort_string@Field_decimal@@UAEXPADI@Z 004251e0 f   field.obj
 0001:00024320       ?sql_type@Field_decimal@@UBEXAAVString@@@Z 00425320 f   field.obj
 0001:000243e0       ??0Field_new_decimal@@QAE@PADKPAEEW4utype@Field@@PBDPAUst_table@@E_N5@Z 004253e0 f   field.obj
 0001:000244c0       ??0Field_new_decimal@@QAE@K_NPBDPAUst_table@@E0@Z 004254c0 f   field.obj
 0001:000245a0       ?reset@Field_new_decimal@@UAEHXZ 004255a0 f   field.obj
 0001:000245d0       ?set_value_on_overflow@Field_new_decimal@@QAEXPAVmy_decimal@@_N@Z 004255d0 f   field.obj
 0001:00024710       ?store_value@Field_new_decimal@@QAE_NPBVmy_decimal@@@Z 00425710 f   field.obj
 0001:00024a10       ?store@Field_new_decimal@@UAEHPBDIPAUcharset_info_st@@@Z 00425a10 f   field.obj
 0001:00024da0       ?store@Field_new_decimal@@UAEHN@Z 00425da0 f   field.obj
 0001:00024f90       ?store@Field_new_decimal@@UAEH_J_N@Z 00425f90 f   field.obj
 0001:000250a0       ?store_decimal@Field_new_decimal@@UAEHPBVmy_decimal@@@Z 004260a0 f   field.obj
 0001:000250d0       ?store_time@Field_new_decimal@@UAEHPAUst_mysql_time@@W4enum_mysql_timestamp_type@@@Z 004260d0 f   field.obj
 0001:00025160       ?val_real@Field_new_decimal@@UAENXZ 00426160 f   field.obj
 0001:00025210       ?val_int@Field_new_decimal@@UAE_JXZ 00426210 f   field.obj
 0001:000252c0       ?val_decimal@Field_new_decimal@@UAEPAVmy_decimal@@PAV2@@Z 004262c0 f   field.obj
 0001:00025400       ?val_str@Field_new_decimal@@UAEPAVString@@PAV2@0@Z 00426400 f   field.obj
 0001:000254d0       ?cmp@Field_new_decimal@@UAEHPBD0@Z 004264d0 f   field.obj
 0001:00025510       ?sort_string@Field_new_decimal@@UAEXPADI@Z 00426510 f   field.obj
 0001:00025550       ?sql_type@Field_new_decimal@@UBEXAAVString@@@Z 00426550 f   field.obj
 0001:000255e0       ?store@Field_tiny@@UAEHPBDIPAUcharset_info_st@@@Z 004265e0 f   field.obj
 0001:00025690       ?store@Field_tiny@@UAEHN@Z 00426690 f   field.obj
 0001:000257d0       ?store@Field_tiny@@UAEH_J_N@Z 004267d0 f   field.obj
 0001:00025920       ?val_real@Field_tiny@@UAENXZ 00426920 f   field.obj
 0001:00025970       ?val_int@Field_tiny@@UAE_JXZ 00426970 f   field.obj
 0001:000259d0       ?val_str@Field_tiny@@UAEPAVString@@PAV2@0@Z 004269d0 f   field.obj
 0001:00025af0       ?send_binary@Field_tiny@@UAE_NPAVProtocol@@@Z 00426af0 f   field.obj
 0001:00025b30       ?cmp@Field_tiny@@UAEHPBD0@Z 00426b30 f   field.obj
 0001:00025bd0       ?sort_string@Field_tiny@@UAEXPADI@Z 00426bd0 f   field.obj
 0001:00025c20       ?sql_type@Field_tiny@@UBEXAAVString@@@Z 00426c20 f   field.obj
 0001:00025ca0       ?store@Field_short@@UAEHPBDIPAUcharset_info_st@@@Z 00426ca0 f   field.obj
 0001:00025d70       ?store@Field_short@@UAEHN@Z 00426d70 f   field.obj
 0001:00025eb0       ?store@Field_short@@UAEH_J_N@Z 00426eb0 f   field.obj
 0001:00026000       ?val_real@Field_short@@UAENXZ 00427000 f   field.obj
 0001:00026060       ?val_int@Field_short@@UAE_JXZ 00427060 f   field.obj
 0001:000260c0       ?val_str@Field_short@@UAEPAVString@@PAV2@0@Z 004270c0 f   field.obj
 0001:000261f0       ?send_binary@Field_short@@UAE_NPAVProtocol@@@Z 004271f0 f   field.obj
 0001:00026230       ?cmp@Field_short@@UAEHPBD0@Z 00427230 f   field.obj
 0001:000262d0       ?sort_string@Field_short@@UAEXPADI@Z 004272d0 f   field.obj
 0001:00026330       ?sql_type@Field_short@@UBEXAAVString@@@Z 00427330 f   field.obj
 0001:000263b0       ?store@Field_medium@@UAEHPBDIPAUcharset_info_st@@@Z 004273b0 f   field.obj
 0001:000264a0       ?store@Field_medium@@UAEHN@Z 004274a0 f   field.obj
 0001:000266f0       ?store@Field_medium@@UAEH_J_N@Z 004276f0 f   field.obj
 0001:00026930       ?val_real@Field_medium@@UAENXZ 00427930 f   field.obj
 0001:000269f0       ?val_int@Field_medium@@UAE_JXZ 004279f0 f   field.obj
 0001:00026ab0       ?val_str@Field_medium@@UAEPAVString@@PAV2@0@Z 00427ab0 f   field.obj
 0001:00026c30       ?send_binary@Field_medium@@UAE_NPAVProtocol@@@Z 00427c30 f   field.obj
 0001:00026c70       ?cmp@Field_medium@@UAEHPBD0@Z 00427c70 f   field.obj
 0001:00026da0       ?sort_string@Field_medium@@UAEXPADI@Z 00427da0 f   field.obj
 0001:00026e10       ?sql_type@Field_medium@@UBEXAAVString@@@Z 00427e10 f   field.obj
 0001:00026e90       ?store@Field_long@@UAEHPBDIPAUcharset_info_st@@@Z 00427e90 f   field.obj
 0001:00026f50       ?store@Field_long@@UAEHN@Z 00427f50 f   field.obj
 0001:00027080       ?store@Field_long@@UAEH_J_N@Z 00428080 f   field.obj
 0001:000271d0       ?val_real@Field_long@@UAENXZ 004281d0 f   field.obj
 0001:00027230       ?val_int@Field_long@@UAE_JXZ 00428230 f   field.obj
 0001:000272c0       ?val_str@Field_long@@UAEPAVString@@PAV2@0@Z 004282c0 f   field.obj
 0001:000273e0       ?send_binary@Field_long@@UAE_NPAVProtocol@@@Z 004283e0 f   field.obj
 0001:00027420       ?cmp@Field_long@@UAEHPBD0@Z 00428420 f   field.obj
 0001:000274b0       ?sort_string@Field_long@@UAEXPADI@Z 004284b0 f   field.obj
 0001:00027520       ?sql_type@Field_long@@UBEXAAVString@@@Z 00428520 f   field.obj
 0001:000275a0       ?store@Field_longlong@@UAEHPBDIPAUcharset_info_st@@@Z 004285a0 f   field.obj
 0001:000276d0       ?store@Field_longlong@@UAEHN@Z 004286d0 f   field.obj
 0001:00027880       ?store@Field_longlong@@UAEH_J_N@Z 00428880 f   field.obj
 0001:00027940       ?val_real@Field_longlong@@UAENXZ 00428940 f   field.obj
 0001:000279e0       ?val_int@Field_longlong@@UAE_JXZ 004289e0 f   field.obj
 0001:00027a50       ?val_str@Field_longlong@@UAEPAVString@@PAV2@0@Z 00428a50 f   field.obj
 0001:00027b80       ?send_binary@Field_longlong@@UAE_NPAVProtocol@@@Z 00428b80 f   field.obj
 0001:00027bd0       ?cmp@Field_longlong@@UAEHPBD0@Z 00428bd0 f   field.obj
 0001:00027cf0       ?sort_string@Field_longlong@@UAEXPADI@Z 00428cf0 f   field.obj
 0001:00027da0       ?sql_type@Field_longlong@@UBEXAAVString@@@Z 00428da0 f   field.obj
 0001:00027e20       ?store@Field_float@@UAEHPBDIPAUcharset_info_st@@@Z 00428e20 f   field.obj
 0001:00027f30       ?store@Field_float@@UAEHN@Z 00428f30 f   field.obj
 0001:00027fc0       ?store@Field_float@@UAEH_J_N@Z 00428fc0 f   field.obj
 0001:00028030       ?val_real@Field_float@@UAENXZ 00429030 f   field.obj
 0001:000280a0       ?val_int@Field_float@@UAE_JXZ 004290a0 f   field.obj
 0001:00028120       ?val_str@Field_float@@UAEPAVString@@PAV2@0@Z 00429120 f   field.obj
 0001:00028270       ?cmp@Field_float@@UAEHPBD0@Z 00429270 f   field.obj
 0001:00028340       ?sort_string@Field_float@@UAEXPADI@Z 00429340 f   field.obj
 0001:000284a0       ?send_binary@Field_float@@UAE_NPAVProtocol@@@Z 004294a0 f   field.obj
 0001:00028500       ?sql_type@Field_float@@UBEXAAVString@@@Z 00429500 f   field.obj
 0001:000285b0       ?store@Field_double@@UAEHPBDIPAUcharset_info_st@@@Z 004295b0 f   field.obj
 0001:000286c0       ?store@Field_double@@UAEHN@Z 004296c0 f   field.obj
 0001:00028720       ?store@Field_double@@UAEH_J_N@Z 00429720 f   field.obj
 0001:00028790       ?truncate@Field_real@@QAEHPANN@Z 00429790 f   field.obj
 0001:00028990       ?store_decimal@Field_real@@UAEHPBVmy_decimal@@@Z 00429990 f   field.obj
 0001:00028a20       ?val_real@Field_double@@UAENXZ 00429a20 f   field.obj
 0001:00028aa0       ?val_int@Field_double@@UAE_JXZ 00429aa0 f   field.obj
 0001:00028c30       ?val_decimal@Field_real@@UAEPAVmy_decimal@@PAV2@@Z 00429c30 f   field.obj
 0001:00028c80       ?val_str@Field_double@@UAEPAVString@@PAV2@0@Z 00429c80 f   field.obj
 0001:00028dd0       ?send_binary@Field_double@@UAE_NPAVProtocol@@@Z 00429dd0 f   field.obj
 0001:00028e20       ?cmp@Field_double@@UAEHPBD0@Z 00429e20 f   field.obj
 0001:00028ef0       ?sort_string@Field_double@@UAEXPADI@Z 00429ef0 f   field.obj
 0001:00028f90       ?sql_type@Field_double@@UBEXAAVString@@@Z 00429f90 f   field.obj
 0001:00029040       ??0Field_timestamp@@QAE@PADKPAEEW4utype@Field@@PBDPAUst_table@@PAUcharset_info_st@@@Z 0042a040 f   field.obj
 0001:000290e0       ??0Field_timestamp@@QAE@_NPBDPAUst_table@@PAUcharset_info_st@@@Z 0042a0e0 f   field.obj
 0001:00029190       ?get_auto_set_type@Field_timestamp@@QBE?AW4timestamp_auto_set_type@@XZ 0042a190 f   field.obj
 0001:00029250       ?store@Field_timestamp@@UAEHPBDIPAUcharset_info_st@@@Z 0042a250 f   field.obj
 0001:00029410       ?store@Field_timestamp@@UAEHN@Z 0042a410 f   field.obj
 0001:000294c0       ?store@Field_timestamp@@UAEH_J_N@Z 0042a4c0 f   field.obj
 0001:00029660       ?val_real@Field_timestamp@@UAENXZ 0042a660 f   field.obj
 0001:000296a0       ?val_int@Field_timestamp@@UAE_JXZ 0042a6a0 f   field.obj
 0001:000297d0       ?val_str@Field_timestamp@@UAEPAVString@@PAV2@0@Z 0042a7d0 f   field.obj
 0001:00029b60       ?get_date@Field_timestamp@@UAE_NPAUst_mysql_time@@I@Z 0042ab60 f   field.obj
 0001:00029c20       ?get_time@Field_timestamp@@UAE_NPAUst_mysql_time@@@Z 0042ac20 f   field.obj
 0001:00029c50       ?send_binary@Field_timestamp@@UAE_NPAVProtocol@@@Z 0042ac50 f   field.obj
 0001:00029cd0       ?cmp@Field_timestamp@@UAEHPBD0@Z 0042acd0 f   field.obj
 0001:00029d30       ?sort_string@Field_timestamp@@UAEXPADI@Z 0042ad30 f   field.obj
 0001:00029d80       ?sql_type@Field_timestamp@@UBEXAAVString@@@Z 0042ad80 f   field.obj
 0001:00029db0       ?set_time@Field_timestamp@@QAEXXZ 0042adb0 f   field.obj
 0001:00029e20       ?store@Field_time@@UAEHPBDIPAUcharset_info_st@@@Z 0042ae20 f   field.obj
 0001:00029fb0       ?store_time@Field_time@@UAEHPAUst_mysql_time@@W4enum_mysql_timestamp_type@@@Z 0042afb0 f   field.obj
 0001:0002a050       ?store@Field_time@@UAEHN@Z 0042b050 f   field.obj
 0001:0002a1c0       ?store@Field_time@@UAEH_J_N@Z 0042b1c0 f   field.obj
 0001:0002a320       ?val_real@Field_time@@UAENXZ 0042b320 f   field.obj
 0001:0002a360       ?val_int@Field_time@@UAE_JXZ 0042b360 f   field.obj
 0001:0002a3f0       ?val_str@Field_time@@UAEPAVString@@PAV2@0@Z 0042b3f0 f   field.obj
 0001:0002a530       ?get_date@Field_time@@UAE_NPAUst_mysql_time@@I@Z 0042b530 f   field.obj
 0001:0002a6c0       ?get_time@Field_time@@UAE_NPAUst_mysql_time@@@Z 0042b6c0 f   field.obj
 0001:0002a7e0       ?send_binary@Field_time@@UAE_NPAVProtocol@@@Z 0042b7e0 f   field.obj
 0001:0002a880       ?cmp@Field_time@@UAEHPBD0@Z 0042b880 f   field.obj
 0001:0002a990       ?sort_string@Field_time@@UAEXPADI@Z 0042b990 f   field.obj
 0001:0002a9e0       ?sql_type@Field_time@@UBEXAAVString@@@Z 0042b9e0 f   field.obj
 0001:0002aa10       ?store@Field_year@@UAEHPBDIPAUcharset_info_st@@@Z 0042ba10 f   field.obj
 0001:0002abe0       ?store@Field_year@@UAEHN@Z 0042bbe0 f   field.obj
 0001:0002ac50       ?store@Field_year@@UAEH_J_N@Z 0042bc50 f   field.obj
 0001:0002ad40       ?send_binary@Field_year@@UAE_NPAVProtocol@@@Z 0042bd40 f   field.obj
 0001:0002ada0       ?val_real@Field_year@@UAENXZ 0042bda0 f   field.obj
 0001:0002ade0       ?val_int@Field_year@@UAE_JXZ 0042bde0 f   field.obj
 0001:0002ae40       ?val_str@Field_year@@UAEPAVString@@PAV2@0@Z 0042be40 f   field.obj
 0001:0002aed0       ?sql_type@Field_year@@UBEXAAVString@@@Z 0042bed0 f   field.obj
 0001:0002af50       ?store@Field_date@@UAEHPBDIPAUcharset_info_st@@@Z 0042bf50 f   field.obj
 0001:0002b070       ?store@Field_date@@UAEHN@Z 0042c070 f   field.obj
 0001:0002b160       ?store@Field_date@@UAEH_J_N@Z 0042c160 f   field.obj
 0001:0002b2d0       ?send_binary@Field_date@@UAE_NPAVProtocol@@@Z 0042c2d0 f   field.obj
 0001:0002b390       ?val_real@Field_date@@UAENXZ 0042c390 f   field.obj
 0001:0002b3d0       ?val_int@Field_date@@UAE_JXZ 0042c3d0 f   field.obj
 0001:0002b400       ?val_str@Field_date@@UAEPAVString@@PAV2@0@Z 0042c400 f   field.obj
 0001:0002b4d0       ?get_time@Field_date@@UAE_NPAUst_mysql_time@@@Z 0042c4d0 f   field.obj
 0001:0002b500       ?cmp@Field_date@@UAEHPBD0@Z 0042c500 f   field.obj
 0001:0002b560       ?sort_string@Field_date@@UAEXPADI@Z 0042c560 f   field.obj
 0001:0002b5b0       ?sql_type@Field_date@@UBEXAAVString@@@Z 0042c5b0 f   field.obj
 0001:0002b5e0       ?store@Field_newdate@@UAEHPBDIPAUcharset_info_st@@@Z 0042c5e0 f   field.obj
 0001:0002b750       ?store@Field_newdate@@UAEHN@Z 0042c750 f   field.obj
 0001:0002b800       ?store@Field_newdate@@UAEH_J_N@Z 0042c800 f   field.obj
 0001:0002b9a0       ?store_time@Field_newdate@@UAEHPAUst_mysql_time@@W4enum_mysql_timestamp_type@@@Z 0042c9a0 f   field.obj
 0001:0002bc10       ?send_binary@Field_newdate@@UAE_NPAVProtocol@@@Z 0042cc10 f   field.obj
 0001:0002bc90       ?val_real@Field_newdate@@UAENXZ 0042cc90 f   field.obj
 0001:0002bcd0       ?val_int@Field_newdate@@UAE_JXZ 0042ccd0 f   field.obj
 0001:0002bd40       ?val_str@Field_newdate@@UAEPAVString@@PAV2@0@Z 0042cd40 f   field.obj
 0001:0002bef0       ?get_date@Field_newdate@@UAE_NPAUst_mysql_time@@I@Z 0042cef0 f   field.obj
 0001:0002bfc0       ?get_time@Field_newdate@@UAE_NPAUst_mysql_time@@@Z 0042cfc0 f   field.obj
 0001:0002bff0       ?cmp@Field_newdate@@UAEHPBD0@Z 0042cff0 f   field.obj
 0001:0002c050       ?sort_string@Field_newdate@@UAEXPADI@Z 0042d050 f   field.obj
 0001:0002c090       ?sql_type@Field_newdate@@UBEXAAVString@@@Z 0042d090 f   field.obj
 0001:0002c0c0       ?store@Field_datetime@@UAEHPBDIPAUcharset_info_st@@@Z 0042d0c0 f   field.obj
 0001:0002c200       ?store@Field_datetime@@UAEHN@Z 0042d200 f   field.obj
 0001:0002c2b0       ?store@Field_datetime@@UAEH_J_N@Z 0042d2b0 f   field.obj
 0001:0002c3f0       ?store_time@Field_datetime@@UAEHPAUst_mysql_time@@W4enum_mysql_timestamp_type@@@Z 0042d3f0 f   field.obj
 0001:0002c5d0       ?send_binary@Field_datetime@@UAE_NPAVProtocol@@@Z 0042d5d0 f   field.obj
 0001:0002c650       ?val_real@Field_datetime@@UAENXZ 0042d650 f   field.obj
 0001:0002c690       ?val_int@Field_datetime@@UAE_JXZ 0042d690 f   field.obj
 0001:0002c700       ?val_str@Field_datetime@@UAEPAVString@@PAV2@0@Z 0042d700 f   field.obj
 0001:0002ca80       ?get_date@Field_datetime@@UAE_NPAUst_mysql_time@@I@Z 0042da80 f   field.obj
 0001:0002cbc0       ?get_time@Field_datetime@@UAE_NPAUst_mysql_time@@@Z 0042dbc0 f   field.obj
 0001:0002cbf0       ?cmp@Field_datetime@@UAEHPBD0@Z 0042dbf0 f   field.obj
 0001:0002ccc0       ?sort_string@Field_datetime@@UAEXPADI@Z 0042dcc0 f   field.obj
 0001:0002cd50       ?sql_type@Field_datetime@@UBEXAAVString@@@Z 0042dd50 f   field.obj
 0001:0002cd80       ?report_if_important_data@Field_longstr@@IAEHPBD0_N@Z 0042dd80 f   field.obj
 0001:0002ce50       ?store@Field_string@@UAEHPBDIPAUcharset_info_st@@@Z 0042de50 f   field.obj
 0001:0002d1d0       ?store@Field_str@@UAEHN@Z  0042e1d0 f   field.obj
 0001:0002d760       ?store@Field_string@@UAEH_J_N@Z 0042e760 f   field.obj
 0001:0002d830       ?store_decimal@Field_longstr@@UAEHPBVmy_decimal@@@Z 0042e830 f   field.obj
 0001:0002d920       ?val_real@Field_string@@UAENXZ 0042e920 f   field.obj
 0001:0002db20       ?val_int@Field_string@@UAE_JXZ 0042eb20 f   field.obj
 0001:0002dcf0       ?val_str@Field_string@@UAEPAVString@@PAV2@0@Z 0042ecf0 f   field.obj
 0001:0002dd90       ?val_decimal@Field_string@@UAEPAVmy_decimal@@PAV2@@Z 0042ed90 f   field.obj
 0001:0002df10       ?cmp@Field_string@@UAEHPBD0@Z 0042ef10 f   field.obj
 0001:0002e010       ?sort_string@Field_string@@UAEXPADI@Z 0042f010 f   field.obj
 0001:0002e090       ?sql_type@Field_string@@UBEXAAVString@@@Z 0042f090 f   field.obj
 0001:0002e240       ?pack@Field_string@@UAEPADPADPBDI@Z 0042f240 f   field.obj
 0001:0002e360       ?unpack@Field_string@@UAEPBDPADPBD@Z 0042f360 f   field.obj
 0001:0002e3f0       ?pack_cmp@Field_string@@UAEHPBD0ID@Z 0042f3f0 f   field.obj
 0001:0002e4b0       ?pack_cmp@Field_string@@UAEHPBDID@Z 0042f4b0 f   field.obj
 0001:0002e580       ?packed_col_length@Field_string@@UAEIPBDI@Z 0042f580 f   field.obj
 0001:0002e5c0       ?max_packed_col_length@Field_string@@UAEII@Z 0042f5c0 f   field.obj
 0001:0002e5f0       ?get_key_image@Field_string@@UAEIPADIW4imagetype@Field@@@Z 0042f5f0 f   field.obj
 0001:0002e6c0       ?new_field@Field_string@@UAEPAVField@@PAUst_mem_root@@PAUst_table@@_N@Z 0042f6c0 f   field.obj
 0001:0002e7a0       ?store@Field_varstring@@UAEHPBDIPAUcharset_info_st@@@Z 0042f7a0 f   field.obj
 0001:0002e900       ?store@Field_varstring@@UAEH_J_N@Z 0042f900 f   field.obj
 0001:0002e9c0       ?val_real@Field_varstring@@UAENXZ 0042f9c0 f   field.obj
 0001:0002eab0       ?val_int@Field_varstring@@UAE_JXZ 0042fab0 f   field.obj
 0001:0002eba0       ?val_str@Field_varstring@@UAEPAVString@@PAV2@0@Z 0042fba0 f   field.obj
 0001:0002ec20       ?val_decimal@Field_varstring@@UAEPAVmy_decimal@@PAV2@@Z 0042fc20 f   field.obj
 0001:0002ecc0       ?cmp@Field_varstring@@UAEHPBD0@Z 0042fcc0 f   field.obj
 0001:0002ed60       ?key_cmp@Field_varstring@@UAEHPBEI@Z 0042fd60 f   field.obj
 0001:0002ee60       ?key_cmp@Field_varstring@@UAEHPBE0@Z 0042fe60 f   field.obj
 0001:0002eec0       ?sort_string@Field_varstring@@UAEXPADI@Z 0042fec0 f   field.obj
 0001:0002efc0       ?key_type@Field_varstring@@UBE?AW4ha_base_keytype@@XZ 0042ffc0 f   field.obj
 0001:0002f030       ?sql_type@Field_varstring@@UBEXAAVString@@@Z 00430030 f   field.obj
 0001:0002f170       ?data_length@Field_varstring@@UAEKPBD@Z 00430170 f   field.obj
 0001:0002f1c0       ?pack@Field_varstring@@UAEPADPADPBDI@Z 004301c0 f   field.obj
 0001:0002f2a0       ?pack_key@Field_varstring@@UAEPADPADPBDI@Z 004302a0 f   field.obj
 0001:0002f3d0       ?unpack_key@Field_varstring@@UAEPBDPADPBDI@Z 004303d0 f   field.obj
 0001:0002f470       ?pack_key_from_key_image@Field_varstring@@UAEPADPADPBDI@Z 00430470 f   field.obj
 0001:0002f510       ?unpack@Field_varstring@@UAEPBDPADPBD@Z 00430510 f   field.obj
 0001:0002f5c0       ?pack_cmp@Field_varstring@@UAEHPBD0ID@Z 004305c0 f   field.obj
 0001:0002f680       ?pack_cmp@Field_varstring@@UAEHPBDID@Z 00430680 f   field.obj
 0001:0002f7d0       ?packed_col_length@Field_varstring@@UAEIPBDI@Z 004307d0 f   field.obj
 0001:0002f810       ?max_packed_col_length@Field_varstring@@UAEII@Z 00430810 f   field.obj
 0001:0002f840       ?get_key_image@Field_varstring@@UAEIPADIW4imagetype@Field@@@Z 00430840 f   field.obj
 0001:0002f950       ?set_key_image@Field_varstring@@UAEXPADI@Z 00430950 f   field.obj
 0001:0002f9a0       ?cmp_binary@Field_varstring@@UAEHPBD0K@Z 004309a0 f   field.obj
 0001:0002fa50       ?new_field@Field_varstring@@UAEPAVField@@PAUst_mem_root@@PAUst_table@@_N@Z 00430a50 f   field.obj
 0001:0002fab0       ?new_key_field@Field_varstring@@UAEPAVField@@PAUst_mem_root@@PAUst_table@@PADPAEI@Z 00430ab0 f   field.obj
 0001:0002fb10       ??0Field_blob@@QAE@PADPAEEW4utype@Field@@PBDPAUst_table@@IPAUcharset_info_st@@@Z 00430b10 f   field.obj
 0001:0002fbf0       ?store_length@Field_blob@@QAEXK@Z 00430bf0 f   field.obj
 0001:0002fca0       ?get_length@Field_blob@@QAEKPBD@Z 00430ca0 f   field.obj
 0001:0002fd30       ?put_length@Field_blob@@QAEXPADK@Z 00430d30 f   field.obj
 0001:0002fdd0       ?store@Field_blob@@UAEHPBDIPAUcharset_info_st@@@Z 00430dd0 f   field.obj
 0001:00030160       ?store@Field_blob@@UAEHN@Z 00431160 f   field.obj
 0001:000301f0       ?store@Field_blob@@UAEH_J_N@Z 004311f0 f   field.obj
 0001:00030290       ?val_real@Field_blob@@UAENXZ 00431290 f   field.obj
 0001:000303a0       ?val_int@Field_blob@@UAE_JXZ 004313a0 f   field.obj
 0001:000304b0       ?val_str@Field_blob@@UAEPAVString@@PAV2@0@Z 004314b0 f   field.obj
 0001:00030590       ?val_decimal@Field_blob@@UAEPAVmy_decimal@@PAV2@@Z 00431590 f   field.obj
 0001:00030650       ?cmp@Field_blob@@QAEHPBDK0K@Z 00431650 f   field.obj
 0001:000306b0       ?cmp@Field_blob@@UAEHPBD0@Z 004316b0 f   field.obj
 0001:00030780       ?cmp_binary@Field_blob@@UAEHPBD0K@Z 00431780 f   field.obj
 0001:000308a0       ?get_key_image@Field_blob@@UAEIPADIW4imagetype@Field@@@Z 004318a0 f   field.obj
 0001:00030af0       ?set_key_image@Field_blob@@UAEXPADI@Z 00431af0 f   field.obj
 0001:00030b40       ?key_cmp@Field_blob@@UAEHPBEI@Z 00431b40 f   field.obj
 0001:00030c50       ?key_cmp@Field_blob@@UAEHPBE0@Z 00431c50 f   field.obj
 0001:00030ca0       ?sort_length@Field_blob@@UBEKXZ 00431ca0 f   field.obj
 0001:00030d00       ?sort_string@Field_blob@@UAEXPADI@Z 00431d00 f   field.obj
 0001:00030ed0       ?sql_type@Field_blob@@UBEXAAVString@@@Z 00431ed0 f   field.obj
 0001:00030fb0       ?pack@Field_blob@@UAEPADPADPBDI@Z 00431fb0 f   field.obj
 0001:00031090       ?unpack@Field_blob@@UAEPBDPADPBD@Z 00432090 f   field.obj
 0001:00031130       ?pack_cmp@Field_blob@@UAEHPBD0ID@Z 00432130 f   field.obj
 0001:000311f0       ?pack_cmp@Field_blob@@UAEHPBDID@Z 004321f0 f   field.obj
 0001:000312f0       ?pack_key@Field_blob@@UAEPADPADPBDI@Z 004322f0 f   field.obj
 0001:00031420       ?unpack_key@Field_blob@@UAEPBDPADPBDI@Z 00432420 f   field.obj
 0001:000314d0       ?pack_key_from_key_image@Field_blob@@UAEPADPADPBDI@Z 004324d0 f   field.obj
 0001:00031570       ?packed_col_length@Field_blob@@UAEIPBDI@Z 00432570 f   field.obj
 0001:000315b0       ?max_packed_col_length@Field_blob@@UAEII@Z 004325b0 f   field.obj
 0001:000315e0       ?sql_type@Field_geom@@UBEXAAVString@@@Z 004325e0 f   field.obj
 0001:00031700       ?store@Field_geom@@UAEHN@Z 00432700 f   field.obj
 0001:00031740       ?store@Field_geom@@UAEH_J_N@Z 00432740 f   field.obj
 0001:00031780       ?store_decimal@Field_geom@@UAEHPBVmy_decimal@@@Z 00432780 f   field.obj
 0001:000317c0       ?store@Field_geom@@UAEHPBDIPAUcharset_info_st@@@Z 004327c0 f   field.obj
 0001:000318f0       ?key_type@Field_enum@@UBE?AW4ha_base_keytype@@XZ 004328f0 f   field.obj
 0001:00031970       ?store_type@Field_enum@@QAEX_K@Z 00432970 f   field.obj
 0001:00031a50       ?store@Field_enum@@UAEHPBDIPAUcharset_info_st@@@Z 00432a50 f   field.obj
 0001:00031ce0       ?store@Field_enum@@UAEHN@Z 00432ce0 f   field.obj
 0001:00031d20       ?store@Field_enum@@UAEH_J_N@Z 00432d20 f   field.obj
 0001:00031df0       ?val_real@Field_enum@@UAENXZ 00432df0 f   field.obj
 0001:00031e30       ?val_int@Field_enum@@UAE_JXZ 00432e30 f   field.obj
 0001:00031f40       ?val_str@Field_enum@@UAEPAVString@@PAV2@0@Z 00432f40 f   field.obj
 0001:00031fe0       ?cmp@Field_enum@@UAEHPBD0@Z 00432fe0 f   field.obj
 0001:000320a0       ?sort_string@Field_enum@@UAEXPADI@Z 004330a0 f   field.obj
 0001:00032140       ?sql_type@Field_enum@@UBEXAAVString@@@Z 00433140 f   field.obj
 0001:00032310       ?new_field@Field_enum@@UAEPAVField@@PAUst_mem_root@@PAUst_table@@_N@Z 00433310 f   field.obj
 0001:00032370       ?store@Field_set@@UAEHPBDIPAUcharset_info_st@@@Z 00433370 f   field.obj
 0001:00032680       ?store@Field_set@@UAEH_J_N@Z 00433680 f   field.obj
 0001:00032750       ?val_str@Field_set@@UAEPAVString@@PAV2@0@Z 00433750 f   field.obj
 0001:000328a0       ?sql_type@Field_set@@UBEXAAVString@@@Z 004338a0 f   field.obj
 0001:00032a70       ?eq_def@Field@@UAE_NPAV1@@Z 00433a70 f   field.obj
 0001:00032b30       ?eq_def@Field_enum@@UAE_NPAVField@@@Z 00433b30 f   field.obj
 0001:00032c40       ?eq_def@Field_num@@UAE_NPAVField@@@Z 00433c40 f   field.obj
 0001:00032cf0       ??0Field_bit@@QAE@PADKPAEE1EW4utype@Field@@PBDPAUst_table@@@Z 00433cf0 f   field.obj
 0001:00032d90       ?new_key_field@Field_bit@@UAEPAVField@@PAUst_mem_root@@PAUst_table@@PADPAEI@Z 00433d90 f   field.obj
 0001:00032e10       ?store@Field_bit@@UAEHPBDIPAUcharset_info_st@@@Z 00433e10 f   field.obj
 0001:00033230       ?store@Field_bit@@UAEHN@Z  00434230 f   field.obj
 0001:00033270       ?store@Field_bit@@UAEH_J_N@Z 00434270 f   field.obj
 0001:00033360       ?store_decimal@Field_bit@@UAEHPBVmy_decimal@@@Z 00434360 f   field.obj
 0001:00033410       ?val_real@Field_bit@@UAENXZ 00434410 f   field.obj
 0001:00033450       ?val_int@Field_bit@@UAE_JXZ 00434450 f   field.obj
 0001:000337f0       ?val_str@Field_bit@@UAEPAVString@@PAV2@0@Z 004347f0 f   field.obj
 0001:00033960       ?val_decimal@Field_bit@@UAEPAVmy_decimal@@PAV2@@Z 00434960 f   field.obj
 0001:000339b0       ?key_cmp@Field_bit@@UAEHPBEI@Z 004349b0 f   field.obj
 0001:00033a60       ?cmp_offset@Field_bit@@UAEHI@Z 00434a60 f   field.obj
 0001:00033b50       ?get_key_image@Field_bit@@UAEIPADIW4imagetype@Field@@@Z 00434b50 f   field.obj
 0001:00033c20       ?sql_type@Field_bit@@UBEXAAVString@@@Z 00434c20 f   field.obj
 0001:00033cb0       ?pack@Field_bit@@UAEPADPADPBDI@Z 00434cb0 f   field.obj
 0001:00033db0       ?unpack@Field_bit@@UAEPBDPADPBD@Z 00434db0 f   field.obj
 0001:00033eb0       ??0Field_bit_as_char@@QAE@PADKPAEEW4utype@Field@@PBDPAUst_table@@@Z 00434eb0 f   field.obj
 0001:00033f30       ?store@Field_bit_as_char@@UAEHPBDIPAUcharset_info_st@@@Z 00434f30 f   field.obj
 0001:00034090       ?sql_type@Field_bit_as_char@@UBEXAAVString@@@Z 00435090 f   field.obj
 0001:00034120       ?create_length_to_internal_length@create_field@@QAEXXZ 00435120 f   field.obj
 0001:000343b0       ?init_for_tmp_table@create_field@@QAEXW4enum_field_types@@KK_N1@Z 004353b0 f   field.obj
 0001:00034440       ?init@create_field@@QAE_NPAVTHD@@PADW4enum_field_types@@11IPAVItem@@3PAUst_lex_string@@1PAV?$List@VString@@@@PAUcharset_info_st@@I@Z 00435440 f   field.obj
 0001:00034fd0       ?get_blob_type_from_length@@YA?AW4enum_field_types@@K@Z 00435fd0 f   field.obj
 0001:00035020       ?calc_pack_length@@YAKW4enum_field_types@@K@Z 00436020 f   field.obj
 0001:00035170       ?pack_length_to_packflag@@YAII@Z 00436170 f   field.obj
 0001:000351f0       ?make_field@@YAPAVField@@PADKPAEEIW4enum_field_types@@PAUcharset_info_st@@W4geometry_type@1@W4utype@1@PAUst_typelib@@PBDPAUst_table@@@Z 004361f0 f   field.obj
 0001:00035de0       ??0create_field@@QAE@PAVField@@0@Z 00436de0 f   field.obj
 0001:00036360       ?max_display_length@Field_blob@@UAEKXZ 00437360 f   field.obj
 0001:00036410       ?set_warning@Field@@QAE_NW4enum_warning_level@MYSQL_ERROR@@IH@Z 00437410 f   field.obj
 0001:000364e0       ?set_datetime_warning@Field@@QAEXW4enum_warning_level@MYSQL_ERROR@@IPBDIW4enum_mysql_timestamp_type@@H@Z 004374e0 f   field.obj
 0001:00036590       ?set_datetime_warning@Field@@QAEXW4enum_warning_level@MYSQL_ERROR@@I_JW4enum_mysql_timestamp_type@@H@Z 00437590 f   field.obj
 0001:00036690       ?set_datetime_warning@Field@@QAEXW4enum_warning_level@MYSQL_ERROR@@INW4enum_mysql_timestamp_type@@@Z 00437690 f   field.obj
 0001:0003bb40       ?field_type2index@@YAHW4enum_field_types@@@Z 0043cb40 f i field.obj
 0001:0003bb80       ?cmp_type@Field@@UBE?AW4Item_result@@XZ 0043cb80 f i field.obj
 0001:0003bbc0       ?cast_to_int_type@Field@@UBE?AW4Item_result@@XZ 0043cbc0 f i field.obj
 0001:0003bc00       ?eq@Field@@UAE_NPAV1@@Z    0043cc00 f i field.obj
 0001:0003bc80       ?pack_length@Field@@UBEKXZ 0043cc80 f i field.obj
 0001:0003bca0       ?pack_length_in_rec@Field@@UBEKXZ 0043cca0 f i field.obj
 0001:0003bce0       ?data_length@Field@@UAEKPBD@Z 0043cce0 f i field.obj
 0001:0003bd30       ?sort_length@Field@@UBEKXZ 0043cd30 f i field.obj
 0001:0003bd70       ?reset@Field@@UAEHXZ       0043cd70 f i field.obj
 0001:0003bdd0       ?reset_fields@Field@@UAEXXZ 0043cdd0 f i field.obj
 0001:0003bdf0       ?set_default@Field@@UAEXXZ 0043cdf0 f i field.obj
 0001:0003bed0       ?binary@Field@@UBE_NXZ     0043ced0 f i field.obj
 0001:0003bef0       ?zero_pack@Field@@UBE_NXZ  0043cef0 f i field.obj
 0001:0003bf10       ?key_type@Field@@UBE?AW4ha_base_keytype@@XZ 0043cf10 f i field.obj
 0001:0003bf30       ?key_length@Field@@UBEKXZ  0043cf30 f i field.obj
 0001:0003bf70       ?real_type@Field@@UBE?AW4enum_field_types@@XZ 0043cf70 f i field.obj
 0001:0003bfb0       ?cmp_binary@Field@@UAEHPBD0K@Z 0043cfb0 f i field.obj
 0001:0003c010       ?cmp_offset@Field@@UAEHI@Z 0043d010 f i field.obj
 0001:0003c070       ?cmp_binary_offset@Field@@UAEHI@Z 0043d070 f i field.obj
 0001:0003c0d0       ?key_cmp@Field@@UAEHPBE0@Z 0043d0d0 f i field.obj
 0001:0003c120       ?key_cmp@Field@@UAEHPBEI@Z 0043d120 f i field.obj
 0001:0003c170       ?can_be_compared_as_longlong@Field@@UBE_NXZ 0043d170 f i field.obj
 0001:0003c190       ?free@Field@@UAEXXZ        0043d190 f i field.obj
 0001:0003c1b0       ?move_field@Field@@UAEXJ@Z 0043d1b0 f i field.obj
 0001:0003c200       ?get_image@Field@@UAEXPADIPAUcharset_info_st@@@Z 0043d200 f i field.obj
 0001:0003c250       ?set_image@Field@@UAEXPADIPAUcharset_info_st@@@Z 0043d250 f i field.obj
 0001:0003c2a0       ?get_key_image@Field@@UAEIPADIW4imagetype@1@@Z 0043d2a0 f i field.obj
 0001:0003c300       ?set_key_image@Field@@UAEXPADI@Z 0043d300 f i field.obj
 0001:0003c360       ?pack@Field@@UAEPADPADPBDI@Z 0043d360 f i field.obj
 0001:0003c3d0       ?unpack@Field@@UAEPBDPADPBD@Z 0043d3d0 f i field.obj
 0001:0003c440       ?pack_key@Field@@UAEPADPADPBDI@Z 0043d440 f i field.obj
 0001:0003c4a0       ?pack_key_from_key_image@Field@@UAEPADPADPBDI@Z 0043d4a0 f i field.obj
 0001:0003c500       ?unpack_key@Field@@UAEPBDPADPBDI@Z 0043d500 f i field.obj
 0001:0003c550       ?packed_col_length@Field@@UAEIPBDI@Z 0043d550 f i field.obj
 0001:0003c570       ?max_packed_col_length@Field@@UAEII@Z 0043d570 f i field.obj
 0001:0003c590       ?pack_cmp@Field@@UAEHPBD0ID@Z 0043d590 f i field.obj
 0001:0003c5e0       ?pack_cmp@Field@@UAEHPBDID@Z 0043d5e0 f i field.obj
 0001:0003c630       ?charset@Field@@UBEPAUcharset_info_st@@XZ 0043d630 f i field.obj
 0001:0003c650       ?sort_charset@Field@@UBEPAUcharset_info_st@@XZ 0043d650 f i field.obj
 0001:0003c6a0       ?has_charset@Field@@UBE_NXZ 0043d6a0 f i field.obj
 0001:0003c6c0       ?set_charset@Field@@UAEXPAUcharset_info_st@@@Z 0043d6c0 f i field.obj
 0001:0003c6e0       ?derivation@Field@@UBE?AW4Derivation@@XZ 0043d6e0 f i field.obj
 0001:0003c700       ?set_derivation@Field@@UAEXW4Derivation@@@Z 0043d700 f i field.obj
 0001:0003c720       ?get_geometry_type@Field@@UAE?AW4geometry_type@1@XZ 0043d720 f i field.obj
 0001:0003c770       ?result_type@Field_num@@UBE?AW4Item_result@@XZ 0043d770 f i field.obj
 0001:0003c790       ?decimals@Field_num@@UBEIXZ 0043d790 f i field.obj
 0001:0003c7b0       ?size_of@Field_num@@UBEIXZ 0043d7b0 f i field.obj
 0001:0003c7d0       ??_EField_num@@UAEPAXI@Z   0043d7d0 f i field.obj
 0001:0003c7d0       ??_GField_num@@UAEPAXI@Z   0043d7d0 f i field.obj
 0001:0003c820       ??3Field@@SAXPAXI@Z        0043d820 f i field.obj
 0001:0003c850       ??1Field_num@@UAE@XZ       0043d850 f i field.obj
 0001:0003c880       ??1Field@@UAE@XZ           0043d880 f i field.obj
 0001:0003c8b0       ?decimals@Field@@UBEIXZ    0043d8b0 f i field.obj
 0001:0003c8d0       ??_GField@@UAEPAXI@Z       0043d8d0 f i field.obj
 0001:0003c8d0       ??_EField@@UAEPAXI@Z       0043d8d0 f i field.obj
 0001:0003c920       ?length@String@@QBEKXZ     0043d920 f i field.obj
 0001:0003c940       ?length@String@@QAEXK@Z    0043d940 f i field.obj
 0001:0003c970       ?ptr@String@@QBEPBDXZ      0043d970 f i field.obj
 0001:0003c990       ?c_ptr_quick@String@@QAEPADXZ 0043d990 f i field.obj
 0001:0003c9e0       ??0String@@QAE@PADKPAUcharset_info_st@@@Z 0043d9e0 f i field.obj
 0001:0003ca40       ??1String@@QAE@XZ          0043da40 f i field.obj
 0001:0003ca70       ?c_ptr@String@@QAEPADXZ    0043da70 f i field.obj
 0001:0003cad0       ?free@String@@QAEXXZ       0043dad0 f i field.obj
 0001:0003cb50       ?alloc@String@@QAE_NK@Z    0043db50 f i field.obj
 0001:0003cba0       ??0?$Bitmap@$0EA@@@QAE@I@Z 0043dba0 f i field.obj
 0001:0003cbe0       ?set_prefix@?$Bitmap@$0EA@@@QAEXI@Z 0043dbe0 f i field.obj
 0001:0003cc50       ?length@?$Bitmap@$0EA@@@QBEIXZ 0043dc50 f i field.obj
 0001:0003cc70       ?set_all@?$Bitmap@$0EA@@@QAEXXZ 0043dc70 f i field.obj
 0001:0003cca0       ?charset@String@@QBEPAUcharset_info_st@@XZ 0043dca0 f i field.obj
 0001:0003ccc0       ?val_str@Field@@QAEPAVString@@PAV2@@Z 0043dcc0 f i field.obj
 0001:0003cd10       ?sign@my_decimal@@QBE_NXZ  0043dd10 f i field.obj
 0001:0003cd40       ?my_decimal2int@@YAHIPBVmy_decimal@@DPA_J@Z 0043dd40 f i field.obj
 0001:0003ce20       ??0my_decimal@@QAE@XZ      0043de20 f i field.obj
 0001:0003ce50       ?init@my_decimal@@QAEXXZ   0043de50 f i field.obj
 0001:0003cec0       ?check_result@@YAHIH@Z     0043dec0 f i field.obj
 0001:0003cef0       ?int2my_decimal@@YAHI_JDPAVmy_decimal@@@Z 0043def0 f i field.obj
 0001:0003cf70       ?result_type@Field_str@@UBE?AW4Item_result@@XZ 0043df70 f i field.obj
 0001:0003cf90       ?decimals@Field_str@@UBEIXZ 0043df90 f i field.obj
 0001:0003cfb0       ?size_of@Field_str@@UBEIXZ 0043dfb0 f i field.obj
 0001:0003cfd0       ?charset@Field_str@@UBEPAUcharset_info_st@@XZ 0043dfd0 f i field.obj
 0001:0003cff0       ?set_charset@Field_str@@UAEXPAUcharset_info_st@@@Z 0043dff0 f i field.obj
 0001:0003d020       ?derivation@Field_str@@UBE?AW4Derivation@@XZ 0043e020 f i field.obj
 0001:0003d040       ?set_derivation@Field_str@@UAEXW4Derivation@@@Z 0043e040 f i field.obj
 0001:0003d070       ?binary@Field_str@@UBE_NXZ 0043e070 f i field.obj
 0001:0003d0a0       ?max_display_length@Field_str@@UAEKXZ 0043e0a0 f i field.obj
 0001:0003d0c0       ??_GField_str@@UAEPAXI@Z   0043e0c0 f i field.obj
 0001:0003d0c0       ??_EField_str@@UAEPAXI@Z   0043e0c0 f i field.obj
 0001:0003d110       ??1Field_str@@UAE@XZ       0043e110 f i field.obj
 0001:0003d140       ?my_decimal2double@@YAHIPBVmy_decimal@@PAN@Z 0043e140 f i field.obj
 0001:0003d170       ?init@?$Bitmap@$0EA@@@QAEXI@Z 0043e170 f i field.obj
 0001:0003d1b0       ?set_charset@String@@QAEXPAUcharset_info_st@@@Z 0043e1b0 f i field.obj
 0001:0003d1e0       ?alloced_length@String@@QBEKXZ 0043e1e0 f i field.obj
 0001:0003d200       ?my_decimal_length_to_precision@@YAIII_N@Z 0043e200 f i field.obj
 0001:0003d290       ?my_decimal_get_binary_size@@YAHII@Z 0043e290 f i field.obj
 0001:0003d2c0       ?type@Field_new_decimal@@UBE?AW4enum_field_types@@XZ 0043e2c0 f i field.obj
 0001:0003d2e0       ?key_type@Field_new_decimal@@UBE?AW4ha_base_keytype@@XZ 0043e2e0 f i field.obj
 0001:0003d300       ?result_type@Field_new_decimal@@UBE?AW4Item_result@@XZ 0043e300 f i field.obj
 0001:0003d320       ?zero_pack@Field_new_decimal@@UBE_NXZ 0043e320 f i field.obj
 0001:0003d340       ?max_display_length@Field_new_decimal@@UAEKXZ 0043e340 f i field.obj
 0001:0003d360       ?size_of@Field_new_decimal@@UBEIXZ 0043e360 f i field.obj
 0001:0003d380       ?pack_length@Field_new_decimal@@UBEKXZ 0043e380 f i field.obj
 0001:0003d3a0       ??_EField_new_decimal@@UAEPAXI@Z 0043e3a0 f i field.obj
 0001:0003d3a0       ??_GField_new_decimal@@UAEPAXI@Z 0043e3a0 f i field.obj
 0001:0003d3f0       ??1Field_new_decimal@@UAE@XZ 0043e3f0 f i field.obj
 0001:0003d420       ?sign@my_decimal@@QAEX_N@Z 0043e420 f i field.obj
 0001:0003d450       ?max_my_decimal@@YAXPAVmy_decimal@@HH@Z 0043e450 f i field.obj
 0001:0003d4b0       ?my_decimal_set_zero@@YAHPAVmy_decimal@@@Z 0043e4b0 f i field.obj
 0001:0003d4f0       ??0String@@QAE@XZ          0043e4f0 f i field.obj
 0001:0003d550       ?double2my_decimal@@YAHINPAVmy_decimal@@@Z 0043e550 f i field.obj
 0001:0003d590       ?check_result_and_overflow@@YAHIHPAVmy_decimal@@@Z 0043e590 f i field.obj
 0001:0003d610       ?fix_buffer_pointer@my_decimal@@QAEXXZ 0043e610 f i field.obj
 0001:0003d640       ?max_internal_decimal@@YAXPAVmy_decimal@@@Z 0043e640 f i field.obj
 0001:0003d670       ?check_overflow@Field@@QAE_NH@Z 0043e670 f i field.obj
 0001:0003d6a0       ?binary2my_decimal@@YAHIPBDPAVmy_decimal@@HH@Z 0043e6a0 f i field.obj
 0001:0003d6e0       ?rint@@YANN@Z              0043e6e0 f i field.obj
 0001:0003d780       ?_current_thd@@YAPAVTHD@@XZ 0043e780 f i field.obj
 0001:0003d7a0       ?ulonglong2double@@YAN_K@Z 0043e7a0 f i field.obj
 0001:0003d7f0       ?set_null@Field@@QAEXH@Z   0043e7f0 f i field.obj
 0001:0003d840       ?type@Field_timestamp@@UBE?AW4enum_field_types@@XZ 0043e840 f i field.obj
 0001:0003d860       ?key_type@Field_timestamp@@UBE?AW4ha_base_keytype@@XZ 0043e860 f i field.obj
 0001:0003d880       ?cmp_type@Field_timestamp@@UBE?AW4Item_result@@XZ 0043e880 f i field.obj
 0001:0003d8a0       ?reset@Field_timestamp@@UAEHXZ 0043e8a0 f i field.obj
 0001:0003d8f0       ?pack_length@Field_timestamp@@UBEKXZ 0043e8f0 f i field.obj
 0001:0003d910       ?can_be_compared_as_longlong@Field_timestamp@@UBE_NXZ 0043e910 f i field.obj
 0001:0003d930       ?zero_pack@Field_timestamp@@UBE_NXZ 0043e930 f i field.obj
 0001:0003d950       ?set_default@Field_timestamp@@UAEXXZ 0043e950 f i field.obj
 0001:0003d9b0       ??_EField_timestamp@@UAEPAXI@Z 0043e9b0 f i field.obj
 0001:0003d9b0       ??_GField_timestamp@@UAEPAXI@Z 0043e9b0 f i field.obj
 0001:0003da00       ??1Field_timestamp@@UAE@XZ 0043ea00 f i field.obj
 0001:0003da30       ?set@String@@QAEXPBDKPAUcharset_info_st@@@Z 0043ea30 f i field.obj
 0001:0003daa0       ?set_notnull@Field@@QAEXH@Z 0043eaa0 f i field.obj
 0001:0003db00       ?query_start@THD@@QAEJXZ   0043eb00 f i field.obj
 0001:0003db30       ??2Field@@SAPAXI@Z         0043eb30 f i field.obj
 0001:0003db50       ?maybe_null@Field@@QAE_NXZ 0043eb50 f i field.obj
 0001:0003dbb0       ??0Field_varstring@@QAE@K_NPBDPAUst_table@@PAUcharset_info_st@@@Z 0043ebb0 f i field.obj
 0001:0003dc70       ??0Field_longstr@@QAE@PADKPAEEW4utype@Field@@PBDPAUst_table@@PAUcharset_info_st@@@Z 0043ec70 f i field.obj
 0001:0003dce0       ??_EField_longstr@@UAEPAXI@Z 0043ece0 f i field.obj
 0001:0003dce0       ??_GField_longstr@@UAEPAXI@Z 0043ece0 f i field.obj
 0001:0003dd30       ??1Field_longstr@@UAE@XZ   0043ed30 f i field.obj
 0001:0003dd60       ?type@Field_varstring@@UBE?AW4enum_field_types@@XZ 0043ed60 f i field.obj
 0001:0003dd80       ?zero_pack@Field_varstring@@UBE_NXZ 0043ed80 f i field.obj
 0001:0003dda0       ?reset@Field_varstring@@UAEHXZ 0043eda0 f i field.obj
 0001:0003ddf0       ?pack_length@Field_varstring@@UBEKXZ 0043edf0 f i field.obj
 0001:0003de20       ?key_length@Field_varstring@@UBEKXZ 0043ee20 f i field.obj
 0001:0003de40       ?sort_length@Field_varstring@@UBEKXZ 0043ee40 f i field.obj
 0001:0003dea0       ?store@Field_varstring@@UAEHN@Z 0043eea0 f i field.obj
 0001:0003dee0       ?size_of@Field_varstring@@UBEIXZ 0043eee0 f i field.obj
 0001:0003df00       ?real_type@Field_varstring@@UBE?AW4enum_field_types@@XZ 0043ef00 f i field.obj
 0001:0003df20       ?has_charset@Field_varstring@@UBE_NXZ 0043ef20 f i field.obj
 0001:0003df80       ??_EField_varstring@@UAEPAXI@Z 0043ef80 f i field.obj
 0001:0003df80       ??_GField_varstring@@UAEPAXI@Z 0043ef80 f i field.obj
 0001:0003dfd0       ??1Field_varstring@@UAE@XZ 0043efd0 f i field.obj
 0001:0003e000       ?type@Field_blob@@UBE?AW4enum_field_types@@XZ 0043f000 f i field.obj
 0001:0003e020       ?key_type@Field_blob@@UBE?AW4ha_base_keytype@@XZ 0043f020 f i field.obj
 0001:0003e070       ?key_length@Field_blob@@UBEKXZ 0043f070 f i field.obj
 0001:0003e090       ?pack_length@Field_blob@@UBEKXZ 0043f090 f i field.obj
 0001:0003e0c0       ?reset@Field_blob@@UAEHXZ  0043f0c0 f i field.obj
 0001:0003e110       ?reset_fields@Field_blob@@UAEXXZ 0043f110 f i field.obj
 0001:0003e150       ?free@Field_blob@@UAEXXZ   0043f150 f i field.obj
 0001:0003e180       ?size_of@Field_blob@@UBEIXZ 0043f180 f i field.obj
 0001:0003e1a0       ?has_charset@Field_blob@@UBE_NXZ 0043f1a0 f i field.obj
 0001:0003e200       ??_GField_blob@@UAEPAXI@Z  0043f200 f i field.obj
 0001:0003e200       ??_EField_blob@@UAEPAXI@Z  0043f200 f i field.obj
 0001:0003e250       ??1Field_blob@@UAE@XZ      0043f250 f i field.obj
 0001:0003e290       ?max_data_length@Field_blob@@QBEKXZ 0043f290 f i field.obj
 0001:0003e2e0       ?get_ptr@Field_blob@@QAEXPAPAD@Z 0043f2e0 f i field.obj
 0001:0003e330       ??0MBR@@QAE@XZ             0043f330 f i field.obj
 0001:0003e390       ?get_length@Field_blob@@QAEKI@Z 0043f390 f i field.obj
 0001:0003e3d0       ?append@String@@QAE_ND@Z   0043f3d0 f i field.obj
 0001:0003e480       ??0String@@QAE@PBDKPAUcharset_info_st@@@Z 0043f480 f i field.obj
 0001:0003e4e0       ?type@Field_bit@@UBE?AW4enum_field_types@@XZ 0043f4e0 f i field.obj
 0001:0003e500       ?key_type@Field_bit@@UBE?AW4ha_base_keytype@@XZ 0043f500 f i field.obj
 0001:0003e520       ?key_length@Field_bit@@UBEKXZ 0043f520 f i field.obj
 0001:0003e550       ?max_display_length@Field_bit@@UAEKXZ 0043f550 f i field.obj
 0001:0003e570       ?size_of@Field_bit@@UBEIXZ 0043f570 f i field.obj
 0001:0003e590       ?result_type@Field_bit@@UBE?AW4Item_result@@XZ 0043f590 f i field.obj
 0001:0003e5b0       ?reset@Field_bit@@UAEHXZ   0043f5b0 f i field.obj
 0001:0003e600       ?cmp@Field_bit@@UAEHPBD0@Z 0043f600 f i field.obj
 0001:0003e680       ?key_cmp@Field_bit@@UAEHPBE0@Z 0043f680 f i field.obj
 0001:0003e6d0       ?cmp_binary_offset@Field_bit@@UAEHI@Z 0043f6d0 f i field.obj
 0001:0003e720       ?get_image@Field_bit@@UAEXPADIPAUcharset_info_st@@@Z 0043f720 f i field.obj
 0001:0003e780       ?set_image@Field_bit@@UAEXPADIPAUcharset_info_st@@@Z 0043f780 f i field.obj
 0001:0003e7c0       ?set_key_image@Field_bit@@UAEXPADI@Z 0043f7c0 f i field.obj
 0001:0003e800       ?sort_string@Field_bit@@UAEXPADI@Z 0043f800 f i field.obj
 0001:0003e860       ?pack_length@Field_bit@@UBEKXZ 0043f860 f i field.obj
 0001:0003e890       ?pack_length_in_rec@Field_bit@@UBEKXZ 0043f890 f i field.obj
 0001:0003e8b0       ?move_field@Field_bit@@UAEXJ@Z 0043f8b0 f i field.obj
 0001:0003e900       ?eq@Field_bit@@UAE_NPAVField@@@Z 0043f900 f i field.obj
 0001:0003e9d0       ??_GField_bit@@UAEPAXI@Z   0043f9d0 f i field.obj
 0001:0003e9d0       ??_EField_bit@@UAEPAXI@Z   0043f9d0 f i field.obj
 0001:0003ea20       ??1Field_bit@@UAE@XZ       0043fa20 f i field.obj
 0001:0003ea50       ?really_abort_on_warning@THD@@QAE_NXZ 0043fa50 f i field.obj
 0001:0003ead0       ?key_type@Field_bit_as_char@@UBE?AW4ha_base_keytype@@XZ 0043fad0 f i field.obj
 0001:0003eaf0       ?size_of@Field_bit_as_char@@UBEIXZ 0043faf0 f i field.obj
 0001:0003eb10       ?store@Field_bit_as_char@@UAEHN@Z 0043fb10 f i field.obj
 0001:0003eb50       ?store@Field_bit_as_char@@UAEH_J_N@Z 0043fb50 f i field.obj
 0001:0003eb90       ??_GField_bit_as_char@@UAEPAXI@Z 0043fb90 f i field.obj
 0001:0003eb90       ??_EField_bit_as_char@@UAEPAXI@Z 0043fb90 f i field.obj
 0001:0003ebe0       ??1Field_bit_as_char@@UAE@XZ 0043fbe0 f i field.obj
 0001:0003ec10       ?empty@base_list@@QAEXXZ   0043fc10 f i field.obj
 0001:0003ec50       ?my_decimal_precision_to_length@@YAKIE_N@Z 0043fc50 f i field.obj
 0001:0003ecf0       ?my_decimal_trim@@YAXPAKPAI@Z 0043fcf0 f i field.obj
 0001:0003ed20       ?get_enum_pack_length@@YAIH@Z 0043fd20 f i field.obj
 0001:0003ed40       ?get_set_pack_length@@YAIH@Z 0043fd40 f i field.obj
 0001:0003eda0       ??0Field_decimal@@QAE@PADKPAEEW4utype@Field@@PBDPAUst_table@@E_N5@Z 0043fda0 f i field.obj
 0001:0003ee10       ??0Field_real@@QAE@PADKPAEEW4utype@Field@@PBDPAUst_table@@E_N5@Z 0043fe10 f i field.obj
 0001:0003eea0       ?max_display_length@Field_real@@UAEKXZ 0043fea0 f i field.obj
 0001:0003eec0       ?size_of@Field_real@@UBEIXZ 0043fec0 f i field.obj
 0001:0003eee0       ??_GField_real@@UAEPAXI@Z  0043fee0 f i field.obj
 0001:0003eee0       ??_EField_real@@UAEPAXI@Z  0043fee0 f i field.obj
 0001:0003ef30       ??1Field_real@@UAE@XZ      0043ff30 f i field.obj
 0001:0003ef60       ?type@Field_decimal@@UBE?AW4enum_field_types@@XZ 0043ff60 f i field.obj
 0001:0003ef80       ?key_type@Field_decimal@@UBE?AW4ha_base_keytype@@XZ 0043ff80 f i field.obj
 0001:0003efb0       ?zero_pack@Field_decimal@@UBE_NXZ 0043ffb0 f i field.obj
 0001:0003efd0       ??_EField_decimal@@UAEPAXI@Z 0043ffd0 f i field.obj
 0001:0003efd0       ??_GField_decimal@@UAEPAXI@Z 0043ffd0 f i field.obj
 0001:0003f020       ??1Field_decimal@@UAE@XZ   00440020 f i field.obj
 0001:0003f050       ??0Field_tiny@@QAE@PADKPAEEW4utype@Field@@PBDPAUst_table@@_N5@Z 00440050 f i field.obj
 0001:0003f0c0       ?result_type@Field_tiny@@UBE?AW4Item_result@@XZ 004400c0 f i field.obj
 0001:0003f0e0       ?type@Field_tiny@@UBE?AW4enum_field_types@@XZ 004400e0 f i field.obj
 0001:0003f100       ?key_type@Field_tiny@@UBE?AW4ha_base_keytype@@XZ 00440100 f i field.obj
 0001:0003f130       ?reset@Field_tiny@@UAEHXZ  00440130 f i field.obj
 0001:0003f160       ?pack_length@Field_tiny@@UBEKXZ 00440160 f i field.obj
 0001:0003f180       ?max_display_length@Field_tiny@@UAEKXZ 00440180 f i field.obj
 0001:0003f1a0       ??_GField_tiny@@UAEPAXI@Z  004401a0 f i field.obj
 0001:0003f1a0       ??_EField_tiny@@UAEPAXI@Z  004401a0 f i field.obj
 0001:0003f1f0       ??1Field_tiny@@UAE@XZ      004401f0 f i field.obj
 0001:0003f220       ??0Field_short@@QAE@PADKPAEEW4utype@Field@@PBDPAUst_table@@_N5@Z 00440220 f i field.obj
 0001:0003f290       ?result_type@Field_short@@UBE?AW4Item_result@@XZ 00440290 f i field.obj
 0001:0003f2b0       ?type@Field_short@@UBE?AW4enum_field_types@@XZ 004402b0 f i field.obj
 0001:0003f2d0       ?key_type@Field_short@@UBE?AW4ha_base_keytype@@XZ 004402d0 f i field.obj
 0001:0003f300       ?reset@Field_short@@UAEHXZ 00440300 f i field.obj
 0001:0003f330       ?pack_length@Field_short@@UBEKXZ 00440330 f i field.obj
 0001:0003f350       ?max_display_length@Field_short@@UAEKXZ 00440350 f i field.obj
 0001:0003f370       ??_EField_short@@UAEPAXI@Z 00440370 f i field.obj
 0001:0003f370       ??_GField_short@@UAEPAXI@Z 00440370 f i field.obj
 0001:0003f3c0       ??1Field_short@@UAE@XZ     004403c0 f i field.obj
 0001:0003f3f0       ??0Field_medium@@QAE@PADKPAEEW4utype@Field@@PBDPAUst_table@@_N5@Z 004403f0 f i field.obj
 0001:0003f460       ?result_type@Field_medium@@UBE?AW4Item_result@@XZ 00440460 f i field.obj
 0001:0003f480       ?type@Field_medium@@UBE?AW4enum_field_types@@XZ 00440480 f i field.obj
 0001:0003f4a0       ?key_type@Field_medium@@UBE?AW4ha_base_keytype@@XZ 004404a0 f i field.obj
 0001:0003f4d0       ?reset@Field_medium@@UAEHXZ 004404d0 f i field.obj
 0001:0003f510       ?pack_length@Field_medium@@UBEKXZ 00440510 f i field.obj
 0001:0003f530       ?max_display_length@Field_medium@@UAEKXZ 00440530 f i field.obj
 0001:0003f550       ??_EField_medium@@UAEPAXI@Z 00440550 f i field.obj
 0001:0003f550       ??_GField_medium@@UAEPAXI@Z 00440550 f i field.obj
 0001:0003f5a0       ??1Field_medium@@UAE@XZ    004405a0 f i field.obj
 0001:0003f5d0       ??0Field_long@@QAE@PADKPAEEW4utype@Field@@PBDPAUst_table@@_N5@Z 004405d0 f i field.obj
 0001:0003f640       ?result_type@Field_long@@UBE?AW4Item_result@@XZ 00440640 f i field.obj
 0001:0003f660       ?type@Field_long@@UBE?AW4enum_field_types@@XZ 00440660 f i field.obj
 0001:0003f680       ?key_type@Field_long@@UBE?AW4ha_base_keytype@@XZ 00440680 f i field.obj
 0001:0003f6b0       ?reset@Field_long@@UAEHXZ  004406b0 f i field.obj
 0001:0003f700       ?pack_length@Field_long@@UBEKXZ 00440700 f i field.obj
 0001:0003f720       ?max_display_length@Field_long@@UAEKXZ 00440720 f i field.obj
 0001:0003f740       ??_GField_long@@UAEPAXI@Z  00440740 f i field.obj
 0001:0003f740       ??_EField_long@@UAEPAXI@Z  00440740 f i field.obj
 0001:0003f790       ??1Field_long@@UAE@XZ      00440790 f i field.obj
 0001:0003f7c0       ??0Field_longlong@@QAE@PADKPAEEW4utype@Field@@PBDPAUst_table@@_N5@Z 004407c0 f i field.obj
 0001:0003f830       ?result_type@Field_longlong@@UBE?AW4Item_result@@XZ 00440830 f i field.obj
 0001:0003f850       ?type@Field_longlong@@UBE?AW4enum_field_types@@XZ 00440850 f i field.obj
 0001:0003f870       ?key_type@Field_longlong@@UBE?AW4ha_base_keytype@@XZ 00440870 f i field.obj
 0001:0003f8a0       ?reset@Field_longlong@@UAEHXZ 004408a0 f i field.obj
 0001:0003f920       ?pack_length@Field_longlong@@UBEKXZ 00440920 f i field.obj
 0001:0003f940       ?can_be_compared_as_longlong@Field_longlong@@UBE_NXZ 00440940 f i field.obj
 0001:0003f960       ?max_display_length@Field_longlong@@UAEKXZ 00440960 f i field.obj
 0001:0003f980       ??_GField_longlong@@UAEPAXI@Z 00440980 f i field.obj
 0001:0003f980       ??_EField_longlong@@UAEPAXI@Z 00440980 f i field.obj
 0001:0003f9d0       ??1Field_longlong@@UAE@XZ  004409d0 f i field.obj
 0001:0003fa00       ??0Field_float@@QAE@PADKPAEEW4utype@Field@@PBDPAUst_table@@E_N5@Z 00440a00 f i field.obj
 0001:0003fa70       ?type@Field_float@@UBE?AW4enum_field_types@@XZ 00440a70 f i field.obj
 0001:0003fa90       ?key_type@Field_float@@UBE?AW4ha_base_keytype@@XZ 00440a90 f i field.obj
 0001:0003fab0       ?reset@Field_float@@UAEHXZ 00440ab0 f i field.obj
 0001:0003faf0       ?pack_length@Field_float@@UBEKXZ 00440af0 f i field.obj
 0001:0003fb10       ??_EField_float@@UAEPAXI@Z 00440b10 f i field.obj
 0001:0003fb10       ??_GField_float@@UAEPAXI@Z 00440b10 f i field.obj
 0001:0003fb60       ??1Field_float@@UAE@XZ     00440b60 f i field.obj
 0001:0003fb90       ??0Field_double@@QAE@PADKPAEEW4utype@Field@@PBDPAUst_table@@E_N5@Z 00440b90 f i field.obj
 0001:0003fc00       ?type@Field_double@@UBE?AW4enum_field_types@@XZ 00440c00 f i field.obj
 0001:0003fc20       ?key_type@Field_double@@UBE?AW4ha_base_keytype@@XZ 00440c20 f i field.obj
 0001:0003fc40       ?reset@Field_double@@UAEHXZ 00440c40 f i field.obj
 0001:0003fc80       ?pack_length@Field_double@@UBEKXZ 00440c80 f i field.obj
 0001:0003fca0       ??_GField_double@@UAEPAXI@Z 00440ca0 f i field.obj
 0001:0003fca0       ??_EField_double@@UAEPAXI@Z 00440ca0 f i field.obj
 0001:0003fcf0       ??1Field_double@@UAE@XZ    00440cf0 f i field.obj
 0001:0003fd20       ??0Field_null@@QAE@PADKW4utype@Field@@PBDPAUst_table@@PAUcharset_info_st@@@Z 00440d20 f i field.obj
 0001:0003fd90       ?type@Field_null@@UBE?AW4enum_field_types@@XZ 00440d90 f i field.obj
 0001:0003fdb0       ?store@Field_null@@UAEHPBDIPAUcharset_info_st@@@Z 00440db0 f i field.obj
 0001:0003fde0       ?store@Field_null@@UAEHN@Z 00440de0 f i field.obj
 0001:0003fe10       ?store@Field_null@@UAEH_J_N@Z 00440e10 f i field.obj
 0001:0003fe40       ?store_decimal@Field_null@@UAEHPBVmy_decimal@@@Z 00440e40 f i field.obj
 0001:0003fe70       ?reset@Field_null@@UAEHXZ  00440e70 f i field.obj
 0001:0003fe90       ?val_real@Field_null@@UAENXZ 00440e90 f i field.obj
 0001:0003feb0       ?val_int@Field_null@@UAE_JXZ 00440eb0 f i field.obj
 0001:0003fed0       ?val_decimal@Field_null@@UAEPAVmy_decimal@@PAV2@@Z 00440ed0 f i field.obj
 0001:0003fef0       ?val_str@Field_null@@UAEPAVString@@PAV2@0@Z 00440ef0 f i field.obj
 0001:0003ff30       ?cmp@Field_null@@UAEHPBD0@Z 00440f30 f i field.obj
 0001:0003ff50       ?sort_string@Field_null@@UAEXPADI@Z 00440f50 f i field.obj
 0001:0003ff70       ?pack_length@Field_null@@UBEKXZ 00440f70 f i field.obj
 0001:0003ff90       ?size_of@Field_null@@UBEIXZ 00440f90 f i field.obj
 0001:0003ffb0       ?max_display_length@Field_null@@UAEKXZ 00440fb0 f i field.obj
 0001:0003ffd0       ??_GField_null@@UAEPAXI@Z  00440fd0 f i field.obj
 0001:0003ffd0       ??_EField_null@@UAEPAXI@Z  00440fd0 f i field.obj
 0001:00040020       ??1Field_null@@UAE@XZ      00441020 f i field.obj
 0001:00040050       ??0Field_year@@QAE@PADKPAEEW4utype@Field@@PBDPAUst_table@@@Z 00441050 f i field.obj
 0001:000400c0       ?type@Field_year@@UBE?AW4enum_field_types@@XZ 004410c0 f i field.obj
 0001:000400e0       ?can_be_compared_as_longlong@Field_year@@UBE_NXZ 004410e0 f i field.obj
 0001:00040100       ??_EField_year@@UAEPAXI@Z  00441100 f i field.obj
 0001:00040100       ??_GField_year@@UAEPAXI@Z  00441100 f i field.obj
 0001:00040150       ??1Field_year@@UAE@XZ      00441150 f i field.obj
 0001:00040180       ??0Field_date@@QAE@PADPAEEW4utype@Field@@PBDPAUst_table@@PAUcharset_info_st@@@Z 00441180 f i field.obj
 0001:000401f0       ?type@Field_date@@UBE?AW4enum_field_types@@XZ 004411f0 f i field.obj
 0001:00040210       ?key_type@Field_date@@UBE?AW4ha_base_keytype@@XZ 00441210 f i field.obj
 0001:00040230       ?cmp_type@Field_date@@UBE?AW4Item_result@@XZ 00441230 f i field.obj
 0001:00040250       ?reset@Field_date@@UAEHXZ  00441250 f i field.obj
 0001:000402a0       ?pack_length@Field_date@@UBEKXZ 004412a0 f i field.obj
 0001:000402c0       ?can_be_compared_as_longlong@Field_date@@UBE_NXZ 004412c0 f i field.obj
 0001:000402e0       ?zero_pack@Field_date@@UBE_NXZ 004412e0 f i field.obj
 0001:00040300       ??_GField_date@@UAEPAXI@Z  00441300 f i field.obj
 0001:00040300       ??_EField_date@@UAEPAXI@Z  00441300 f i field.obj
 0001:00040350       ??1Field_date@@UAE@XZ      00441350 f i field.obj
 0001:00040380       ??0Field_newdate@@QAE@PADPAEEW4utype@Field@@PBDPAUst_table@@PAUcharset_info_st@@@Z 00441380 f i field.obj
 0001:000403f0       ?type@Field_newdate@@UBE?AW4enum_field_types@@XZ 004413f0 f i field.obj
 0001:00040410       ?real_type@Field_newdate@@UBE?AW4enum_field_types@@XZ 00441410 f i field.obj
 0001:00040430       ?key_type@Field_newdate@@UBE?AW4ha_base_keytype@@XZ 00441430 f i field.obj
 0001:00040450       ?cmp_type@Field_newdate@@UBE?AW4Item_result@@XZ 00441450 f i field.obj
 0001:00040470       ?reset@Field_newdate@@UAEHXZ 00441470 f i field.obj
 0001:000404b0       ?pack_length@Field_newdate@@UBEKXZ 004414b0 f i field.obj
 0001:000404d0       ?can_be_compared_as_longlong@Field_newdate@@UBE_NXZ 004414d0 f i field.obj
 0001:000404f0       ?zero_pack@Field_newdate@@UBE_NXZ 004414f0 f i field.obj
 0001:00040510       ??_EField_newdate@@UAEPAXI@Z 00441510 f i field.obj
 0001:00040510       ??_GField_newdate@@UAEPAXI@Z 00441510 f i field.obj
 0001:00040560       ??1Field_newdate@@UAE@XZ   00441560 f i field.obj
 0001:00040590       ??0Field_time@@QAE@PADPAEEW4utype@Field@@PBDPAUst_table@@PAUcharset_info_st@@@Z 00441590 f i field.obj
 0001:00040600       ?type@Field_time@@UBE?AW4enum_field_types@@XZ 00441600 f i field.obj
 0001:00040620       ?key_type@Field_time@@UBE?AW4ha_base_keytype@@XZ 00441620 f i field.obj
 0001:00040640       ?cmp_type@Field_time@@UBE?AW4Item_result@@XZ 00441640 f i field.obj
 0001:00040660       ?reset@Field_time@@UAEHXZ  00441660 f i field.obj
 0001:000406a0       ?pack_length@Field_time@@UBEKXZ 004416a0 f i field.obj
 0001:000406c0       ?can_be_compared_as_longlong@Field_time@@UBE_NXZ 004416c0 f i field.obj
 0001:000406e0       ?zero_pack@Field_time@@UBE_NXZ 004416e0 f i field.obj
 0001:00040700       ??_EField_time@@UAEPAXI@Z  00441700 f i field.obj
 0001:00040700       ??_GField_time@@UAEPAXI@Z  00441700 f i field.obj
 0001:00040750       ??1Field_time@@UAE@XZ      00441750 f i field.obj
 0001:00040780       ??0Field_datetime@@QAE@PADPAEEW4utype@Field@@PBDPAUst_table@@PAUcharset_info_st@@@Z 00441780 f i field.obj
 0001:000407f0       ?type@Field_datetime@@UBE?AW4enum_field_types@@XZ 004417f0 f i field.obj
 0001:00040810       ?key_type@Field_datetime@@UBE?AW4ha_base_keytype@@XZ 00441810 f i field.obj
 0001:00040830       ?cmp_type@Field_datetime@@UBE?AW4Item_result@@XZ 00441830 f i field.obj
 0001:00040850       ?decimals@Field_datetime@@UBEIXZ 00441850 f i field.obj
 0001:00040870       ?reset@Field_datetime@@UAEHXZ 00441870 f i field.obj
 0001:000408f0       ?pack_length@Field_datetime@@UBEKXZ 004418f0 f i field.obj
 0001:00040910       ?can_be_compared_as_longlong@Field_datetime@@UBE_NXZ 00441910 f i field.obj
 0001:00040930       ?zero_pack@Field_datetime@@UBE_NXZ 00441930 f i field.obj
 0001:00040950       ??_EField_datetime@@UAEPAXI@Z 00441950 f i field.obj
 0001:00040950       ??_GField_datetime@@UAEPAXI@Z 00441950 f i field.obj
 0001:000409a0       ??1Field_datetime@@UAE@XZ  004419a0 f i field.obj
 0001:000409d0       ??0Field_string@@QAE@PADKPAEEW4utype@Field@@PBDPAUst_table@@PAUcharset_info_st@@@Z 004419d0 f i field.obj
 0001:00040a40       ?type@Field_string@@UBE?AW4enum_field_types@@XZ 00441a40 f i field.obj
 0001:00040ad0       ?key_type@Field_string@@UBE?AW4ha_base_keytype@@XZ 00441ad0 f i field.obj
 0001:00040b20       ?zero_pack@Field_string@@UBE_NXZ 00441b20 f i field.obj
 0001:00040b40       ?reset@Field_string@@UAEHXZ 00441b40 f i field.obj
 0001:00040c00       ?store@Field_string@@UAEHN@Z 00441c00 f i field.obj
 0001:00040c40       ?size_of@Field_string@@UBEIXZ 00441c40 f i field.obj
 0001:00040c60       ?real_type@Field_string@@UBE?AW4enum_field_types@@XZ 00441c60 f i field.obj
 0001:00040c80       ?has_charset@Field_string@@UBE_NXZ 00441c80 f i field.obj
 0001:00040ce0       ??_GField_string@@UAEPAXI@Z 00441ce0 f i field.obj
 0001:00040ce0       ??_EField_string@@UAEPAXI@Z 00441ce0 f i field.obj
 0001:00040d30       ??1Field_string@@UAE@XZ    00441d30 f i field.obj
 0001:00040d60       ??0Field_varstring@@QAE@PADKIPAEEW4utype@Field@@PBDPAUst_table@@PAUcharset_info_st@@@Z 00441d60 f i field.obj
 0001:00040e10       ??0Field_geom@@QAE@PADPAEIW4utype@Field@@PBDPAUst_table@@IW4geometry_type@2@@Z 00441e10 f i field.obj
 0001:00040e90       ?key_type@Field_geom@@UBE?AW4ha_base_keytype@@XZ 00441e90 f i field.obj
 0001:00040eb0       ?type@Field_geom@@UBE?AW4enum_field_types@@XZ 00441eb0 f i field.obj
 0001:00040ed0       ?size_of@Field_geom@@UBEIXZ 00441ed0 f i field.obj
 0001:00040ef0       ?reset@Field_geom@@UAEHXZ  00441ef0 f i field.obj
 0001:00040f60       ?get_geometry_type@Field_geom@@UAE?AW4geometry_type@Field@@XZ 00441f60 f i field.obj
 0001:00040f80       ??_GField_geom@@UAEPAXI@Z  00441f80 f i field.obj
 0001:00040f80       ??_EField_geom@@UAEPAXI@Z  00441f80 f i field.obj
 0001:00040fe0       ??1Field_geom@@UAE@XZ      00441fe0 f i field.obj
 0001:00041010       ??0Field_enum@@QAE@PADKPAEEW4utype@Field@@PBDPAUst_table@@IPAUst_typelib@@PAUcharset_info_st@@@Z 00442010 f i field.obj
 0001:000410b0       ?type@Field_enum@@UBE?AW4enum_field_types@@XZ 004420b0 f i field.obj
 0001:000410d0       ?cmp_type@Field_enum@@UBE?AW4Item_result@@XZ 004420d0 f i field.obj
 0001:000410f0       ?cast_to_int_type@Field_enum@@UBE?AW4Item_result@@XZ 004420f0 f i field.obj
 0001:00041110       ?reset@Field_enum@@UAEHXZ  00442110 f i field.obj
 0001:00041160       ?pack_length@Field_enum@@UBEKXZ 00442160 f i field.obj
 0001:00041180       ?size_of@Field_enum@@UBEIXZ 00442180 f i field.obj
 0001:000411a0       ?real_type@Field_enum@@UBE?AW4enum_field_types@@XZ 004421a0 f i field.obj
 0001:000411c0       ?zero_pack@Field_enum@@UBE_NXZ 004421c0 f i field.obj
 0001:000411e0       ?optimize_range@Field_enum@@UAE_NII@Z 004421e0 f i field.obj
 0001:00041200       ?has_charset@Field_enum@@UBE_NXZ 00442200 f i field.obj
 0001:00041220       ?sort_charset@Field_enum@@UBEPAUcharset_info_st@@XZ 00442220 f i field.obj
 0001:00041240       ??_GField_enum@@UAEPAXI@Z  00442240 f i field.obj
 0001:00041240       ??_EField_enum@@UAEPAXI@Z  00442240 f i field.obj
 0001:00041290       ??1Field_enum@@UAE@XZ      00442290 f i field.obj
 0001:000412c0       ??0Field_set@@QAE@PADKPAEEW4utype@Field@@PBDPAUst_table@@KPAUst_typelib@@PAUcharset_info_st@@@Z 004422c0 f i field.obj
 0001:00041350       ?store@Field_set@@UAEHN@Z  00442350 f i field.obj
 0001:00041390       ?zero_pack@Field_set@@UBE_NXZ 00442390 f i field.obj
 0001:000413b0       ?real_type@Field_set@@UBE?AW4enum_field_types@@XZ 004423b0 f i field.obj
 0001:000413d0       ?has_charset@Field_set@@UBE_NXZ 004423d0 f i field.obj
 0001:000413f0       ??_EField_set@@UAEPAXI@Z   004423f0 f i field.obj
 0001:000413f0       ??_GField_set@@UAEPAXI@Z   004423f0 f i field.obj
 0001:00041440       ??1Field_set@@UAE@XZ       00442440 f i field.obj
 0001:00041470       ??0Sql_alloc@@QAE@XZ       00442470 f i field.obj
 0001:00041490       ?is_real_null@Field@@QAE_NI@Z 00442490 f i field.obj
 0001:00041500       ??2Item@@SAPAXI@Z          00442500 f i field.obj
 0001:00041520       ??0Item_string@@QAE@PBDIPAUcharset_info_st@@W4Derivation@@I@Z 00442520 f i field.obj
 0001:000415e0       ?set@DTCollation@@QAEXPAUcharset_info_st@@W4Derivation@@I@Z 004425e0 f i field.obj
 0001:00041620       ?save_org_in_field@Item@@UAEXPAVField@@@Z 00442620 f i field.obj
 0001:00041670       ?save_safe_in_field@Item@@UAEHPAVField@@@Z 00442670 f i field.obj
 0001:000416c0       ?cast_to_int_type@Item@@UBE?AW4Item_result@@XZ 004426c0 f i field.obj
 0001:00041700       ?get_tmp_table_field@Item@@UAEPAVField@@XZ 00442700 f i field.obj
 0001:00041720       ?tmp_table_field@Item@@UAEPAVField@@PAUst_table@@@Z 00442720 f i field.obj
 0001:00041740       ?full_name@Item@@UBEPBDXZ  00442740 f i field.obj
 0001:00041790       ?val_result@Item@@UAENXZ   00442790 f i field.obj
 0001:000417d0       ?val_int_result@Item@@UAE_JXZ 004427d0 f i field.obj
 0001:00041810       ?str_result@Item@@UAEPAVString@@PAV2@@Z 00442810 f i field.obj
 0001:00041860       ?val_decimal_result@Item@@UAEPAVmy_decimal@@PAV2@@Z 00442860 f i field.obj
 0001:000418b0       ?val_bool_result@Item@@UAE_NXZ 004428b0 f i field.obj
 0001:000418f0       ?used_tables@Item@@UBE_KXZ 004428f0 f i field.obj
 0001:00041910       ?not_null_tables@Item@@UBE_KXZ 00442910 f i field.obj
 0001:00041950       ?eq_cmp_result@Item@@UBE?AW4cond_result@1@XZ 00442950 f i field.obj
 0001:00041970       ?const_item@Item@@UBE_NXZ  00442970 f i field.obj
 0001:000419f0       ?const_during_execution@Item@@UBE_NXZ 004429f0 f i field.obj
 0001:00041a70       ?update_used_tables@Item@@UAEXXZ 00442a70 f i field.obj
 0001:00041a90       ?split_sum_func@Item@@UAEXPAVTHD@@PAPAV1@AAV?$List@VItem@@@@@Z 00442a90 f i field.obj
 0001:00041ab0       ?get_date_result@Item@@UAE_NPAUst_mysql_time@@I@Z 00442ab0 f i field.obj
 0001:00041b00       ?is_null@Item@@UAE_NXZ     00442b00 f i field.obj
 0001:00041b20       ?update_null_value@Item@@UAEXXZ 00442b20 f i field.obj
 0001:00041b60       ?top_level_item@Item@@UAEXXZ 00442b60 f i field.obj
 0001:00041b80       ?set_result_field@Item@@UAEXPAVField@@@Z 00442b80 f i field.obj
 0001:00041ba0       ?is_result_field@Item@@UAE_NXZ 00442ba0 f i field.obj
 0001:00041bc0       ?is_bool_func@Item@@UAE_NXZ 00442bc0 f i field.obj
 0001:00041be0       ?save_in_result_field@Item@@UAEX_N@Z 00442be0 f i field.obj
 0001:00041c00       ?no_rows_in_result@Item@@UAEXXZ 00442c00 f i field.obj
 0001:00041c20       ?copy_or_same@Item@@UAEPAV1@PAVTHD@@@Z 00442c20 f i field.obj
 0001:00041c40       ?copy_andor_structure@Item@@UAEPAV1@PAVTHD@@@Z 00442c40 f i field.obj
 0001:00041c60       ?real_item@Item@@UAEPAV1@XZ 00442c60 f i field.obj
 0001:00041c80       ?get_tmp_table_item@Item@@UAEPAV1@PAVTHD@@@Z 00442c80 f i field.obj
 0001:00041cd0       ?compare_collation@Item@@UAEPAUcharset_info_st@@XZ 00442cd0 f i field.obj
 0001:00041cf0       ?walk@Item@@UAE_NP81@AE_NPAE@Z0@Z 00442cf0 f i field.obj
 0001:00041d30       ?compile@Item@@UAEPAV1@P81@AE_NPAPAE@Z0P81@AEPAV1@PAE@Z2@Z 00442d30 f i field.obj
 0001:00041da0       ?traverse_cond@Item@@UAEXP6AXPBV1@PAX@Z1W4traverse_order@1@@Z 00442da0 f i field.obj
 0001:00041df0       ?remove_dependence_processor@Item@@UAE_NPAE@Z 00442df0 f i field.obj
 0001:00041e10       ?remove_fixed@Item@@UAE_NPAE@Z 00442e10 f i field.obj
 0001:00041e40       ?collect_item_field_processor@Item@@UAE_NPAE@Z 00442e40 f i field.obj
 0001:00041e60       ?find_item_in_field_list_processor@Item@@UAE_NPAE@Z 00442e60 f i field.obj
 0001:00041e80       ?change_context_processor@Item@@UAE_NPAE@Z 00442e80 f i field.obj
 0001:00041ea0       ?reset_query_id_processor@Item@@UAE_NPAE@Z 00442ea0 f i field.obj
 0001:00041ec0       ?is_expensive_processor@Item@@UAE_NPAE@Z 00442ec0 f i field.obj
 0001:00041ee0       ?subst_argument_checker@Item@@UAE_NPAPAE@Z 00442ee0 f i field.obj
 0001:00041f10       ?equal_fields_propagator@Item@@UAEPAV1@PAE@Z 00442f10 f i field.obj
 0001:00041f30       ?set_no_const_sub@Item@@UAE_NPAE@Z 00442f30 f i field.obj
 0001:00041f50       ?replace_equal_field@Item@@UAEPAV1@PAE@Z 00442f50 f i field.obj
 0001:00041f70       ?this_item@Item@@UAEPAV1@XZ 00442f70 f i field.obj
 0001:00041f90       ?this_item@Item@@UBEPBV1@XZ 00442f90 f i field.obj
 0001:00041fb0       ?this_item_addr@Item@@UAEPAPAV1@PAVTHD@@PAPAV1@@Z 00442fb0 f i field.obj
 0001:00041fd0       ?cols@Item@@UAEIXZ         00442fd0 f i field.obj
 0001:00041ff0       ?element_index@Item@@UAEPAV1@I@Z 00442ff0 f i field.obj
 0001:00042010       ?addr@Item@@UAEPAPAV1@I@Z  00443010 f i field.obj
 0001:00042030       ?null_inside@Item@@UAE_NXZ 00443030 f i field.obj
 0001:00042050       ?bring_value@Item@@UAEXXZ  00443050 f i field.obj
 0001:00042070       ?filed_for_view_update@Item@@UAEPAVItem_field@@XZ 00443070 f i field.obj
 0001:00042090       ?neg_transformer@Item@@UAEPAV1@PAVTHD@@@Z 00443090 f i field.obj
 0001:000420b0       ?update_value_transformer@Item@@UAEPAV1@PAE@Z 004430b0 f i field.obj
 0001:000420d0       ?is_splocal@Item@@UAE_NXZ  004430d0 f i field.obj
 0001:000420f0       ?get_settable_routine_parameter@Item@@UAEPAVSettable_routine_parameter@@XZ 004430f0 f i field.obj
 0001:00042110       ?result_as_longlong@Item@@UAE_NXZ 00443110 f i field.obj
 0001:00042130       ?get_geometry_type@Item@@UBE?AW4geometry_type@Field@@XZ 00443130 f i field.obj
 0001:00042150       ?cleanup@Item_basic_constant@@UAEXXZ 00443150 f i field.obj
 0001:00042180       ??0Item_basic_constant@@QAE@XZ 00443180 f i field.obj
 0001:000421c0       ?result_type@Item@@UBE?AW4Item_result@@XZ 004431c0 f i field.obj
 0001:000421e0       ?basic_const_item@Item@@UBE_NXZ 004431e0 f i field.obj
 0001:00042200       ?clone_item@Item@@UAEPAV1@XZ 00443200 f i field.obj
 0001:00042220       ?print@Item@@UAEXPAVString@@@Z 00443220 f i field.obj
 0001:00042270       ??_GItem_basic_constant@@UAEPAXI@Z 00443270 f i field.obj
 0001:00042270       ??_EItem_basic_constant@@UAEPAXI@Z 00443270 f i field.obj
 0001:000422c0       ??3Item@@SAXPAXI@Z         004432c0 f i field.obj
 0001:000422f0       ??1Item_basic_constant@@UAE@XZ 004432f0 f i field.obj
 0001:00042320       ??1Item@@UAE@XZ            00443320 f i field.obj
 0001:00042360       ??_GItem@@UAEPAXI@Z        00443360 f i field.obj
 0001:00042360       ??_EItem@@UAEPAXI@Z        00443360 f i field.obj
 0001:000423b0       ?type@Item_string@@UBE?AW4Type@Item@@XZ 004433b0 f i field.obj
 0001:000423d0       ?val_str@Item_string@@UAEPAVString@@PAV2@@Z 004433d0 f i field.obj
 0001:00042430       ?result_type@Item_string@@UBE?AW4Item_result@@XZ 00443430 f i field.obj
 0001:00042450       ?field_type@Item_string@@UBE?AW4enum_field_types@@XZ 00443450 f i field.obj
 0001:00042470       ?basic_const_item@Item_string@@UBE_NXZ 00443470 f i field.obj
 0001:00042490       ?clone_item@Item_string@@UAEPAVItem@@XZ 00443490 f i field.obj
 0001:00042530       ??0Item_string@@QAE@PBD0IPAUcharset_info_st@@W4Derivation@@I@Z 00443530 f i field.obj
 0001:000425f0       ??_GItem_string@@UAEPAXI@Z 004435f0 f i field.obj
 0001:000425f0       ??_EItem_string@@UAEPAXI@Z 004435f0 f i field.obj
 0001:00042640       ??1Item_string@@UAE@XZ     00443640 f i field.obj
 0001:00042670       ??0?$List@VString@@@@QAE@XZ 00443670 f i field.obj
 0001:000426a0       ??0base_list@@QAE@XZ       004436a0 f i field.obj
 0001:000426e0       ?push_back@?$List@VString@@@@QAE_NPAVString@@@Z 004436e0 f i field.obj
 0001:00042720       ?push_back@base_list@@QAE_NPAX@Z 00443720 f i field.obj
 0001:000427e0       ??2Sql_alloc@@SAPAXI@Z     004437e0 f i field.obj
 0001:00042800       ??0list_node@@QAE@PAXPAU0@@Z 00443800 f i field.obj
 0001:00042850       ??0?$List_iterator@VString@@@@QAE@AAV?$List@VString@@@@@Z 00443850 f i field.obj
 0001:00042890       ??0base_list_iterator@@QAE@AAVbase_list@@@Z 00443890 f i field.obj
 0001:000428d0       ?init@base_list_iterator@@QAEXAAVbase_list@@@Z 004438d0 f i field.obj
 0001:00042920       ??E?$List_iterator@VString@@@@QAEPAVString@@H@Z 00443920 f i field.obj
 0001:00042950       ?next@base_list_iterator@@QAEPAXXZ 00443950 f i field.obj
 0001:000429b0       _init_dbghelp_functions    004439b0 f   stacktrace.obj
 0001:00042b40       _set_exception_pointers    00443b40 f   stacktrace.obj
 0001:00042b50       _print_stacktrace          00443b50 f   stacktrace.obj
 0001:00042ff0       _write_core                00443ff0 f   stacktrace.obj
 0001:000432a0       _safe_print_str            004442a0 f   stacktrace.obj
 0001:000435b0       ?set_field_to_null@@YAHPAVField@@@Z 004445b0 f   field_conv.obj
 0001:00043650       ?set_field_to_null_with_conversions@@YAHPAVField@@_N@Z 00444650 f   field_conv.obj
 0001:00043750       ?set@Copy_field@@QAEXPADPAVField@@@Z 00444750 f   field_conv.obj
 0001:00043960       ?set@Copy_field@@QAEXPAVField@@0_N@Z 00444960 f   field_conv.obj
 0001:00043f60       ?get_copy_func@Copy_field@@AAEP6AXPAV1@@ZPAVField@@1@Z 00444f60 f   field_conv.obj
 0001:00045380       ?field_conv@@YAHPAVField@@0@Z 00446380 f   field_conv.obj
 0001:000462b0       ?real_maybe_null@Field@@QAE_NXZ 004472b0 f i field_conv.obj
 0001:000462e0       ?set_quick@String@@QAEXPADKPAUcharset_info_st@@@Z 004472e0 f i field_conv.obj
 0001:00046340       ?is_alloced@String@@QAE_NXZ 00447340 f i field_conv.obj
 0001:00046360       ?filesort@@YA_KPAVTHD@@PAUst_table@@PAUst_sort_field@@IPAVSQL_SELECT@@_KPA_K@Z 00447360 f   filesort.obj
 0001:00046e40       ?filesort_free_buffers@@YAXPAUst_table@@_N@Z 00447e40 f   filesort.obj
 0001:00048820       ?merge_many_buff@@YAHPAUst_sort_param@@PAEPAUst_buffpek@@PAIPAUst_io_cache@@@Z 00449820 f   filesort.obj
 0001:00048be0       ?read_to_buffer@@YAIPAUst_io_cache@@PAUst_buffpek@@I@Z 00449be0 f   filesort.obj
 0001:00048d00       ?reuse_freed_buff@@YAXPAUst_queue@@PAUst_buffpek@@I@Z 00449d00 f   filesort.obj
 0001:00048de0       ?merge_buffers@@YAHPAUst_sort_param@@PAUst_io_cache@@1PAEPAUst_buffpek@@33H@Z 00449de0 f   filesort.obj
 0001:00049fa0       ?change_double_for_sort@@YAXNPAE@Z 0044afa0 f   filesort.obj
 0001:0004b040       ?is_uncacheable@Item_subselect@@QBE_NXZ 0044c040 f i filesort.obj
 0001:0004b090       ?ha_rnd_init@handler@@QAEH_N@Z 0044c090 f i filesort.obj
 0001:0004b220       ?ha_rnd_end@handler@@QAEHXZ 0044c220 f i filesort.obj
 0001:0004b390       ?skip_record@SQL_SELECT@@QAE_NXZ 0044c390 f i filesort.obj
 0001:0004b430       ?is_null@Field@@QAE_NI@Z   0044c430 f i filesort.obj
 0001:0004b4b0       ?get_next_toc_type@Gis_read_stream@@QAE?AW4enum_tok_types@1@XZ 0044c4b0 f   gstream.obj
 0001:0004b590       ?get_next_word@Gis_read_stream@@QAE_NPAUst_lex_string@@@Z 0044c590 f   gstream.obj
 0001:0004b660       ?get_next_number@Gis_read_stream@@QAE_NPAN@Z 0044c660 f   gstream.obj
 0001:0004b790       ?check_next_symbol@Gis_read_stream@@QAE_ND@Z 0044c790 f   gstream.obj
 0001:0004b860       ?set_error_msg@Gis_read_stream@@QAEXPBD@Z 0044c860 f   gstream.obj
 0001:0004b9e0       ?skip_space@Gis_read_stream@@QAEXXZ 0044c9e0 f i gstream.obj
 0001:0004ba40       ??0ha_blackhole@@QAE@PAUst_table@@@Z 0044ca40 f   ha_blackhole.obj
 0001:0004ba80       ?bas_ext@ha_blackhole@@UBEPAPBDXZ 0044ca80 f   ha_blackhole.obj
 0001:0004baa0       ?open@ha_blackhole@@UAEHPBDHI@Z 0044caa0 f   ha_blackhole.obj
 0001:0004bbe0       ?close@ha_blackhole@@UAEHXZ 0044cbe0 f   ha_blackhole.obj
 0001:0004bcd0       ?create@ha_blackhole@@UAEHPBDPAUst_table@@PAUst_ha_create_information@@@Z 0044ccd0 f   ha_blackhole.obj
 0001:0004bdb0       ?index_type@ha_blackhole@@UAEPBDI@Z 0044cdb0 f   ha_blackhole.obj
 0001:0004bf10       ?write_row@ha_blackhole@@UAEHPAE@Z 0044cf10 f   ha_blackhole.obj
 0001:0004c010       ?rnd_init@ha_blackhole@@UAEH_N@Z 0044d010 f   ha_blackhole.obj
 0001:0004c0f0       ?rnd_next@ha_blackhole@@UAEHPAE@Z 0044d0f0 f   ha_blackhole.obj
 0001:0004c1e0       ?rnd_pos@ha_blackhole@@UAEHPAE0@Z 0044d1e0 f   ha_blackhole.obj
 0001:0004c2e0       ?position@ha_blackhole@@UAEXPBE@Z 0044d2e0 f   ha_blackhole.obj
 0001:0004c3e0       ?info@ha_blackhole@@UAEHI@Z 0044d3e0 f   ha_blackhole.obj
 0001:0004c560       ?external_lock@ha_blackhole@@UAEHPAVTHD@@H@Z 0044d560 f   ha_blackhole.obj
 0001:0004c650       ?store_lock@ha_blackhole@@UAEPAPAUst_thr_lock_data@@PAVTHD@@PAPAU2@W4thr_lock_type@@@Z 0044d650 f   ha_blackhole.obj
 0001:0004c7b0       ?index_read@ha_blackhole@@UAEHPAEPBEIW4ha_rkey_function@@@Z 0044d7b0 f   ha_blackhole.obj
 0001:0004c8a0       ?index_read_idx@ha_blackhole@@UAEHPAEIPBEIW4ha_rkey_function@@@Z 0044d8a0 f   ha_blackhole.obj
 0001:0004c990       ?index_read_last@ha_blackhole@@UAEHPAEPBEI@Z 0044d990 f   ha_blackhole.obj
 0001:0004ca80       ?index_next@ha_blackhole@@UAEHPAE@Z 0044da80 f   ha_blackhole.obj
 0001:0004cb70       ?index_prev@ha_blackhole@@UAEHPAE@Z 0044db70 f   ha_blackhole.obj
 0001:0004cc60       ?index_first@ha_blackhole@@UAEHPAE@Z 0044dc60 f   ha_blackhole.obj
 0001:0004cd50       ?index_last@ha_blackhole@@UAEHPAE@Z 0044dd50 f   ha_blackhole.obj
 0001:0004cfc0       ?blackhole_db_init@@YA_NXZ 0044dfc0 f   ha_blackhole.obj
 0001:0004d190       ?blackhole_db_end@@YA_NXZ  0044e190 f   ha_blackhole.obj
 0001:0004d7c0       ?index_init@handler@@MAEHI@Z 0044e7c0 f i ha_blackhole.obj
 0001:0004d7f0       ?index_end@handler@@MAEHXZ 0044e7f0 f i ha_blackhole.obj
 0001:0004d820       ?rnd_end@handler@@MAEHXZ   0044e820 f i ha_blackhole.obj
 0001:0004d840       ??0handler@@QAE@PBUhandlerton@@PAUst_table@@@Z 0044e840 f i ha_blackhole.obj
 0001:0004da10       ?external_lock@handler@@MAEHPAVTHD@@H@Z 0044ea10 f i ha_blackhole.obj
 0001:0004da30       ?scan_time@handler@@UAENXZ 0044ea30 f i ha_blackhole.obj
 0001:0004da80       ?read_time@handler@@UAENII_K@Z 0044ea80 f i ha_blackhole.obj
 0001:0004dac0       ?keys_to_use_for_scanning@handler@@UAEPBV?$Bitmap@$0EA@@@XZ 0044eac0 f i ha_blackhole.obj
 0001:0004dae0       ?has_transactions@handler@@UAE_NXZ 0044eae0 f i ha_blackhole.obj
 0001:0004db00       ?extra_rec_buf_length@handler@@UAEIXZ 0044eb00 f i ha_blackhole.obj
 0001:0004db20       ?estimate_rows_upper_bound@handler@@UAE_KXZ 0044eb20 f i ha_blackhole.obj
 0001:0004db50       ?get_row_type@handler@@UBE?AW4row_type@@XZ 0044eb50 f i ha_blackhole.obj
 0001:0004db70       ?index_type@handler@@UAEPBDI@Z 0044eb70 f i ha_blackhole.obj
 0001:0004dbc0       ?write_row@handler@@UAEHPAE@Z 0044ebc0 f i ha_blackhole.obj
 0001:0004dbe0       ?update_row@handler@@UAEHPBEPAE@Z 0044ebe0 f i ha_blackhole.obj
 0001:0004dc00       ?delete_row@handler@@UAEHPBE@Z 0044ec00 f i ha_blackhole.obj
 0001:0004dc20       ?index_read@handler@@UAEHPAEPBEIW4ha_rkey_function@@@Z 0044ec20 f i ha_blackhole.obj
 0001:0004dc40       ?index_next@handler@@UAEHPAE@Z 0044ec40 f i ha_blackhole.obj
 0001:0004dc60       ?index_prev@handler@@UAEHPAE@Z 0044ec60 f i ha_blackhole.obj
 0001:0004dc80       ?index_first@handler@@UAEHPAE@Z 0044ec80 f i ha_blackhole.obj
 0001:0004dca0       ?index_last@handler@@UAEHPAE@Z 0044eca0 f i ha_blackhole.obj
 0001:0004dcc0       ?index_read_last@handler@@UAEHPAEPBEI@Z 0044ecc0 f i ha_blackhole.obj
 0001:0004dd00       ?ft_init@handler@@UAEHXZ   0044ed00 f i ha_blackhole.obj
 0001:0004dd20       ?ft_init_ext@handler@@UAEPAUst_ft_info@@IIPAVString@@@Z 0044ed20 f i ha_blackhole.obj
 0001:0004dd40       ?ft_read@handler@@UAEHPAE@Z 0044ed40 f i ha_blackhole.obj
 0001:0004dd60       ?restart_rnd_next@handler@@UAEHPAE0@Z 0044ed60 f i ha_blackhole.obj
 0001:0004dd80       ?rnd_same@handler@@UAEHPAEI@Z 0044ed80 f i ha_blackhole.obj
 0001:0004dda0       ?records_in_range@handler@@UAE_KIPAUst_key_range@@0@Z 0044eda0 f i ha_blackhole.obj
 0001:0004ddd0       ?extra@handler@@UAEHW4ha_extra_function@@@Z 0044edd0 f i ha_blackhole.obj
 0001:0004ddf0       ?extra_opt@handler@@UAEHW4ha_extra_function@@K@Z 0044edf0 f i ha_blackhole.obj
 0001:0004de40       ?reset@handler@@UAEHXZ     0044ee40 f i ha_blackhole.obj
 0001:0004de90       ?unlock_row@handler@@UAEXXZ 0044ee90 f i ha_blackhole.obj
 0001:0004deb0       ?start_stmt@handler@@UAEHPAVTHD@@W4thr_lock_type@@@Z 0044eeb0 f i ha_blackhole.obj
 0001:0004ded0       ?delete_all_rows@handler@@UAEHXZ 0044eed0 f i ha_blackhole.obj
 0001:0004df10       ?reset_auto_increment@handler@@UAEH_K@Z 0044ef10 f i ha_blackhole.obj
 0001:0004df30       ?update_create_info@handler@@UAEXPAUst_ha_create_information@@@Z 0044ef30 f i ha_blackhole.obj
 0001:0004df50       ?check@handler@@MAEHPAVTHD@@PAUst_ha_check_opt@@@Z 0044ef50 f i ha_blackhole.obj
 0001:0004df70       ?check_for_upgrade@handler@@MAEHPAUst_ha_check_opt@@@Z 0044ef70 f i ha_blackhole.obj
 0001:0004df90       ?backup@handler@@UAEHPAVTHD@@PAUst_ha_check_opt@@@Z 0044ef90 f i ha_blackhole.obj
 0001:0004dfb0       ?restore@handler@@UAEHPAVTHD@@PAUst_ha_check_opt@@@Z 0044efb0 f i ha_blackhole.obj
 0001:0004dfd0       ?repair@handler@@MAEHPAVTHD@@PAUst_ha_check_opt@@@Z 0044efd0 f i ha_blackhole.obj
 0001:0004dff0       ?optimize@handler@@UAEHPAVTHD@@PAUst_ha_check_opt@@@Z 0044eff0 f i ha_blackhole.obj
 0001:0004e010       ?analyze@handler@@UAEHPAVTHD@@PAUst_ha_check_opt@@@Z 0044f010 f i ha_blackhole.obj
 0001:0004e030       ?assign_to_keycache@handler@@UAEHPAVTHD@@PAUst_ha_check_opt@@@Z 0044f030 f i ha_blackhole.obj
 0001:0004e050       ?preload_keys@handler@@UAEHPAVTHD@@PAUst_ha_check_opt@@@Z 0044f050 f i ha_blackhole.obj
 0001:0004e070       ?check_and_repair@handler@@UAE_NPAVTHD@@@Z 0044f070 f i ha_blackhole.obj
 0001:0004e090       ?dump@handler@@UAEHPAVTHD@@H@Z 0044f090 f i ha_blackhole.obj
 0001:0004e0b0       ?disable_indexes@handler@@UAEHI@Z 0044f0b0 f i ha_blackhole.obj
 0001:0004e0d0       ?enable_indexes@handler@@UAEHI@Z 0044f0d0 f i ha_blackhole.obj
 0001:0004e0f0       ?indexes_are_disabled@handler@@UAEHXZ 0044f0f0 f i ha_blackhole.obj
 0001:0004e110       ?start_bulk_insert@handler@@UAEX_K@Z 0044f110 f i ha_blackhole.obj
 0001:0004e130       ?end_bulk_insert@handler@@UAEHXZ 0044f130 f i ha_blackhole.obj
 0001:0004e150       ?discard_or_import_tablespace@handler@@UAEHD@Z 0044f150 f i ha_blackhole.obj
 0001:0004e170       ?net_read_dump@handler@@UAEHPAUst_net@@@Z 0044f170 f i ha_blackhole.obj
 0001:0004e190       ?update_table_comment@handler@@UAEPADPBD@Z 0044f190 f i ha_blackhole.obj
 0001:0004e1b0       ?append_create_info@handler@@UAEXPAVString@@@Z 0044f1b0 f i ha_blackhole.obj
 0001:0004e1d0       ?get_foreign_key_create_info@handler@@UAEPADXZ 0044f1d0 f i ha_blackhole.obj
 0001:0004e1f0       ?can_switch_engines@handler@@UAE_NXZ 0044f1f0 f i ha_blackhole.obj
 0001:0004e210       ?get_foreign_key_list@handler@@UAEHPAVTHD@@PAV?$List@Ust_foreign_key_info@@@@@Z 0044f210 f i ha_blackhole.obj
 0001:0004e230       ?referenced_by_foreign_key@handler@@UAEIXZ 0044f230 f i ha_blackhole.obj
 0001:0004e250       ?init_table_handle_for_HANDLER@handler@@UAEXXZ 0044f250 f i ha_blackhole.obj
 0001:0004e270       ?free_foreign_key_create_info@handler@@UAEXPAD@Z 0044f270 f i ha_blackhole.obj
 0001:0004e290       ?index_ddl_flags@handler@@UBEKPAUst_key@@@Z 0044f290 f i ha_blackhole.obj
 0001:0004e2b0       ?add_index@handler@@UAEHPAUst_table@@PAUst_key@@I@Z 0044f2b0 f i ha_blackhole.obj
 0001:0004e2d0       ?drop_index@handler@@UAEHPAUst_table@@PAII@Z 0044f2d0 f i ha_blackhole.obj
 0001:0004e2f0       ?max_supported_record_length@handler@@UBEIXZ 0044f2f0 f i ha_blackhole.obj
 0001:0004e310       ?max_supported_keys@handler@@UBEIXZ 0044f310 f i ha_blackhole.obj
 0001:0004e330       ?max_supported_key_parts@handler@@UBEIXZ 0044f330 f i ha_blackhole.obj
 0001:0004e350       ?max_supported_key_length@handler@@UBEIXZ 0044f350 f i ha_blackhole.obj
 0001:0004e370       ?max_supported_key_part_length@handler@@UBEIXZ 0044f370 f i ha_blackhole.obj
 0001:0004e390       ?min_record_length@handler@@UBEII@Z 0044f390 f i ha_blackhole.obj
 0001:0004e3b0       ?low_byte_first@handler@@UBE_NXZ 0044f3b0 f i ha_blackhole.obj
 0001:0004e3d0       ?checksum@handler@@UBEIXZ  0044f3d0 f i ha_blackhole.obj
 0001:0004e3f0       ?is_crashed@handler@@UBE_NXZ 0044f3f0 f i ha_blackhole.obj
 0001:0004e410       ?auto_repair@handler@@UBE_NXZ 0044f410 f i ha_blackhole.obj
 0001:0004e430       ?lock_count@handler@@UBEIXZ 0044f430 f i ha_blackhole.obj
 0001:0004e450       ?table_cache_type@handler@@UAEEXZ 0044f450 f i ha_blackhole.obj
 0001:0004e470       ?register_query_cache_table@handler@@UAEDPAVTHD@@PADIPAP6AD01IPA_K@Z2@Z 0044f470 f i ha_blackhole.obj
 0001:0004e4a0       ?primary_key_is_clustered@handler@@UAE_NXZ 0044f4a0 f i ha_blackhole.obj
 0001:0004e4c0       ?cmp_ref@handler@@UAEHPBE0@Z 0044f4c0 f i ha_blackhole.obj
 0001:0004e510       ?cond_push@handler@@UAEPBVItem@@PBV2@@Z 0044f510 f i ha_blackhole.obj
 0001:0004e530       ?cond_pop@handler@@UAEXXZ  0044f530 f i ha_blackhole.obj
 0001:0004e550       ??_Ehandler@@UAEPAXI@Z     0044f550 f i ha_blackhole.obj
 0001:0004e550       ??_Ghandler@@UAEPAXI@Z     0044f550 f i ha_blackhole.obj
 0001:0004e5b0       ??3Sql_alloc@@SAXPAXI@Z    0044f5b0 f i ha_blackhole.obj
 0001:0004e5e0       ??1handler@@UAE@XZ         0044f5e0 f i ha_blackhole.obj
 0001:0004e670       ??1Sql_alloc@@QAE@XZ       0044f670 f i ha_blackhole.obj
 0001:0004e690       ?table_type@ha_blackhole@@UBEPBDXZ 0044f690 f i ha_blackhole.obj
 0001:0004e6b0       ?table_flags@ha_blackhole@@UBEKXZ 0044f6b0 f i ha_blackhole.obj
 0001:0004e6d0       ?index_flags@ha_blackhole@@UBEKII_N@Z 0044f6d0 f i ha_blackhole.obj
 0001:0004e710       ?max_supported_keys@ha_blackhole@@UBEIXZ 0044f710 f i ha_blackhole.obj
 0001:0004e730       ?max_supported_key_length@ha_blackhole@@UBEIXZ 0044f730 f i ha_blackhole.obj
 0001:0004e750       ?max_supported_key_part_length@ha_blackhole@@UBEIXZ 0044f750 f i ha_blackhole.obj
 0001:0004e770       ??_Gha_blackhole@@UAEPAXI@Z 0044f770 f i ha_blackhole.obj
 0001:0004e770       ??_Eha_blackhole@@UAEPAXI@Z 0044f770 f i ha_blackhole.obj
 0001:0004e7d0       ??1ha_blackhole@@UAE@XZ    0044f7d0 f i ha_blackhole.obj
 0001:0004e810       ?archive_db_init@@YA_NXZ   0044f810 f   ha_archive.obj
 0001:0004ea00       ?archive_db_end@@YA_NXZ    0044fa00 f   ha_archive.obj
 0001:0004ea50       ??0ha_archive@@QAE@PAUst_table@@@Z 0044fa50 f   ha_archive.obj
 0001:0004eb10       ?read_data_header@ha_archive@@QAEHPAX@Z 0044fb10 f   ha_archive.obj
 0001:0004ed20       ?write_data_header@ha_archive@@QAEHPAX@Z 0044fd20 f   ha_archive.obj
 0001:0004eeb0       ?read_meta_file@ha_archive@@QAEHHPA_K@Z 0044feb0 f   ha_archive.obj
 0001:0004f140       ?write_meta_file@ha_archive@@QAEHH_K_N@Z 00450140 f   ha_archive.obj
 0001:0004f3a0       ?get_share@ha_archive@@QAEPAUst_archive_share@@PBDPAH@Z 004503a0 f   ha_archive.obj
 0001:0004f7e0       ?free_share@ha_archive@@QAEHXZ 004507e0 f   ha_archive.obj
 0001:0004fac0       ?init_archive_writer@ha_archive@@QAEHXZ 00450ac0 f   ha_archive.obj
 0001:0004fc80       ?bas_ext@ha_archive@@UBEPAPBDXZ 00450c80 f   ha_archive.obj
 0001:0004fca0       ?open@ha_archive@@UAEHPBDHI@Z 00450ca0 f   ha_archive.obj
 0001:0004ff90       ?close@ha_archive@@UAEHXZ  00450f90 f   ha_archive.obj
 0001:000500b0       ?create@ha_archive@@UAEHPBDPAUst_table@@PAUst_ha_create_information@@@Z 004510b0 f   ha_archive.obj
 0001:000503c0       ?real_write_row@ha_archive@@QAEHPAEPAX@Z 004513c0 f   ha_archive.obj
 0001:00050780       ?write_row@ha_archive@@UAEHPAE@Z 00451780 f   ha_archive.obj
 0001:00050af0       ?rnd_init@ha_archive@@UAEH_N@Z 00451af0 f   ha_archive.obj
 0001:00050d70       ?get_row@ha_archive@@QAEHPAXPAE@Z 00451d70 f   ha_archive.obj
 0001:00051080       ?rnd_next@ha_archive@@UAEHPAE@Z 00452080 f   ha_archive.obj
 0001:00051280       ?position@ha_archive@@UAEXPBE@Z 00452280 f   ha_archive.obj
 0001:00051390       ?rnd_pos@ha_archive@@UAEHPAE0@Z 00452390 f   ha_archive.obj
 0001:000514f0       ?repair@ha_archive@@UAEHPAVTHD@@PAUst_ha_check_opt@@@Z 004524f0 f   ha_archive.obj
 0001:00051640       ?optimize@ha_archive@@UAEHPAVTHD@@PAUst_ha_check_opt@@@Z 00452640 f   ha_archive.obj
 0001:00051ac0       ?store_lock@ha_archive@@UAEPAPAUst_thr_lock_data@@PAVTHD@@PAPAU2@W4thr_lock_type@@@Z 00452ac0 f   ha_archive.obj
 0001:00051b80       ?info@ha_archive@@UAEHI@Z  00452b80 f   ha_archive.obj
 0001:00051d70       ?start_bulk_insert@ha_archive@@UAEX_K@Z 00452d70 f   ha_archive.obj
 0001:00051e70       ?end_bulk_insert@ha_archive@@UAEHXZ 00452e70 f   ha_archive.obj
 0001:00051f70       ?delete_all_rows@ha_archive@@UAEHXZ 00452f70 f   ha_archive.obj
 0001:00052060       ?is_crashed@ha_archive@@UBE_NXZ 00453060 f   ha_archive.obj
 0001:00052150       ?check@ha_archive@@UAEHPAVTHD@@PAUst_ha_check_opt@@@Z 00453150 f   ha_archive.obj
 0001:00052350       ?check_and_repair@ha_archive@@UAE_NPAVTHD@@@Z 00453350 f   ha_archive.obj
 0001:000533a0       ?set@String@@QAEXPADKPAUcharset_info_st@@@Z 004543a0 f i ha_archive.obj
 0001:00053410       ?table_type@ha_archive@@UBEPBDXZ 00454410 f i ha_archive.obj
 0001:00053430       ?index_type@ha_archive@@UAEPBDI@Z 00454430 f i ha_archive.obj
 0001:00053450       ?table_flags@ha_archive@@UBEKXZ 00454450 f i ha_archive.obj
 0001:00053470       ?index_flags@ha_archive@@UBEKII_N@Z 00454470 f i ha_archive.obj
 0001:00053490       ?auto_repair@ha_archive@@UBE_NXZ 00454490 f i ha_archive.obj
 0001:000534b0       ?get_row_type@ha_archive@@UBE?AW4row_type@@XZ 004544b0 f i ha_archive.obj
 0001:000534d0       ??_Gha_archive@@UAEPAXI@Z  004544d0 f i ha_archive.obj
 0001:000534d0       ??_Eha_archive@@UAEPAXI@Z  004544d0 f i ha_archive.obj
 0001:00053530       ??1ha_archive@@UAE@XZ      00454530 f i ha_archive.obj
 0001:00053580       ?set_ptr@Field_blob@@QAEXKPAD@Z 00454580 f i ha_archive.obj
 0001:000535e0       ??0st_ha_check_opt@@QAE@XZ 004545e0 f i ha_archive.obj
 0001:00053600       ??0ha_heap@@QAE@PAUst_table@@@Z 00454600 f   ha_heap.obj
 0001:00053670       ?bas_ext@ha_heap@@UBEPAPBDXZ 00454670 f   ha_heap.obj
 0001:00053690       ?open@ha_heap@@UAEHPBDHI@Z 00454690 f   ha_heap.obj
 0001:000537f0       ?close@ha_heap@@UAEHXZ     004547f0 f   ha_heap.obj
 0001:00053820       ?clone@ha_heap@@UAEPAVhandler@@PAUst_mem_root@@@Z 00454820 f   ha_heap.obj
 0001:000538b0       ?set_keys_for_scanning@ha_heap@@QAEXXZ 004548b0 f   ha_heap.obj
 0001:00053940       ?update_key_stats@ha_heap@@AAEXXZ 00454940 f   ha_heap.obj
 0001:00053a90       ?write_row@ha_heap@@UAEHPAE@Z 00454a90 f   ha_heap.obj
 0001:00053ba0       ?update_row@ha_heap@@UAEHPBEPAE@Z 00454ba0 f   ha_heap.obj
 0001:00053c80       ?delete_row@ha_heap@@UAEHPBE@Z 00454c80 f   ha_heap.obj
 0001:00053d50       ?index_read@ha_heap@@UAEHPAEPBEIW4ha_rkey_function@@@Z 00454d50 f   ha_heap.obj
 0001:00053e10       ?index_read_last@ha_heap@@UAEHPAEPBEI@Z 00454e10 f   ha_heap.obj
 0001:00053ed0       ?index_read_idx@ha_heap@@UAEHPAEIPBEIW4ha_rkey_function@@@Z 00454ed0 f   ha_heap.obj
 0001:00053f60       ?index_next@ha_heap@@UAEHPAE@Z 00454f60 f   ha_heap.obj
 0001:00054000       ?index_prev@ha_heap@@UAEHPAE@Z 00455000 f   ha_heap.obj
 0001:000540a0       ?index_first@ha_heap@@UAEHPAE@Z 004550a0 f   ha_heap.obj
 0001:00054150       ?index_last@ha_heap@@UAEHPAE@Z 00455150 f   ha_heap.obj
 0001:00054200       ?rnd_init@ha_heap@@UAEH_N@Z 00455200 f   ha_heap.obj
 0001:00054250       ?rnd_next@ha_heap@@UAEHPAE@Z 00455250 f   ha_heap.obj
 0001:000542d0       ?rnd_pos@ha_heap@@UAEHPAE0@Z 004552d0 f   ha_heap.obj
 0001:000543a0       ?position@ha_heap@@UAEXPBE@Z 004553a0 f   ha_heap.obj
 0001:000543e0       ?info@ha_heap@@UAEHI@Z     004553e0 f   ha_heap.obj
 0001:00054500       ?extra@ha_heap@@UAEHW4ha_extra_function@@@Z 00455500 f   ha_heap.obj
 0001:00054540       ?delete_all_rows@ha_heap@@UAEHXZ 00455540 f   ha_heap.obj
 0001:000545a0       ?external_lock@ha_heap@@UAEHPAVTHD@@H@Z 004555a0 f   ha_heap.obj
 0001:000545c0       ?disable_indexes@ha_heap@@UAEHI@Z 004555c0 f   ha_heap.obj
 0001:00054620       ?enable_indexes@ha_heap@@UAEHI@Z 00455620 f   ha_heap.obj
 0001:00054680       ?indexes_are_disabled@ha_heap@@UAEHXZ 00455680 f   ha_heap.obj
 0001:000546b0       ?store_lock@ha_heap@@UAEPAPAUst_thr_lock_data@@PAVTHD@@PAPAU2@W4thr_lock_type@@@Z 004556b0 f   ha_heap.obj
 0001:00054710       ?delete_table@ha_heap@@UAEHPBD@Z 00455710 f   ha_heap.obj
 0001:000547c0       ?rename_table@ha_heap@@UAEHPBD0@Z 004557c0 f   ha_heap.obj
 0001:000547f0       ?records_in_range@ha_heap@@UAE_KIPAUst_key_range@@0@Z 004557f0 f   ha_heap.obj
 0001:00054910       ?create@ha_heap@@UAEHPBDPAUst_table@@PAUst_ha_create_information@@@Z 00455910 f   ha_heap.obj
 0001:00054fe0       ?update_create_info@ha_heap@@UAEXPAUst_ha_create_information@@@Z 00455fe0 f   ha_heap.obj
 0001:00055050       ?get_auto_increment@ha_heap@@UAE_KXZ 00456050 f   ha_heap.obj
 0001:00055720       ??0?$Bitmap@$0EA@@@QAE@XZ  00456720 f i ha_heap.obj
 0001:00055740       ?table_type@ha_heap@@UBEPBDXZ 00456740 f i ha_heap.obj
 0001:000557a0       ?index_type@ha_heap@@UAEPBDI@Z 004567a0 f i ha_heap.obj
 0001:00055800       ?get_row_type@ha_heap@@UBE?AW4row_type@@XZ 00456800 f i ha_heap.obj
 0001:00055820       ?table_flags@ha_heap@@UBEKXZ 00456820 f i ha_heap.obj
 0001:00055840       ?index_flags@ha_heap@@UBEKII_N@Z 00456840 f i ha_heap.obj
 0001:00055890       ?keys_to_use_for_scanning@ha_heap@@UAEPBV?$Bitmap@$0EA@@@XZ 00456890 f i ha_heap.obj
 0001:000558b0       ?max_supported_keys@ha_heap@@UBEIXZ 004568b0 f i ha_heap.obj
 0001:000558d0       ?max_supported_key_part_length@ha_heap@@UBEIXZ 004568d0 f i ha_heap.obj
 0001:000558f0       ?scan_time@ha_heap@@UAENXZ 004568f0 f i ha_heap.obj
 0001:00055980       ?read_time@ha_heap@@UAENII_K@Z 00456980 f i ha_heap.obj
 0001:00055a00       ?cmp_ref@ha_heap@@UAEHPBE0@Z 00456a00 f i ha_heap.obj
 0001:00055a40       ??_Gha_heap@@UAEPAXI@Z     00456a40 f i ha_heap.obj
 0001:00055a40       ??_Eha_heap@@UAEPAXI@Z     00456a40 f i ha_heap.obj
 0001:00055aa0       ??1ha_heap@@UAE@XZ         00456aa0 f i ha_heap.obj
 0001:00055ae0       ??0st_ha_create_information@@QAE@XZ 00456ae0 f i ha_heap.obj
 0001:00055b20       ??0st_sql_list@@QAE@XZ     00456b20 f i ha_heap.obj
 0001:00055b40       ?set_bit@?$Bitmap@$0EA@@@QAEXI@Z 00456b40 f i ha_heap.obj
 0001:00055b90       ?clear_all@?$Bitmap@$0EA@@@QAEXXZ 00456b90 f i ha_heap.obj
 0001:00055bc0       ?table2myisam@@YAHPAUst_table@@PAPAUst_mi_keydef@@PAPAUst_columndef@@PAI@Z 00456bc0 f   ha_myisam.obj
 0001:000565b0       ?check_definition@@YAHPAUst_mi_keydef@@PAUst_columndef@@II01II_N@Z 004575b0 f   ha_myisam.obj
 0001:00056dc0       _killed_ptr                00457dc0 f   ha_myisam.obj
 0001:00056de0       _mi_check_print_error      00457de0 f   ha_myisam.obj
 0001:00057070       _mi_check_print_info       00458070 f   ha_myisam.obj
 0001:000570b0       _mi_check_print_warning    004580b0 f   ha_myisam.obj
 0001:00057120       ??0ha_myisam@@QAE@PAUst_table@@@Z 00458120 f   ha_myisam.obj
 0001:00057180       ?clone@ha_myisam@@UAEPAVhandler@@PAUst_mem_root@@@Z 00458180 f   ha_myisam.obj
 0001:000571e0       ?bas_ext@ha_myisam@@UBEPAPBDXZ 004581e0 f   ha_myisam.obj
 0001:00057200       ?index_type@ha_myisam@@UAEPBDI@Z 00458200 f   ha_myisam.obj
 0001:000572a0       ?net_read_dump@ha_myisam@@UAEHPAUst_net@@@Z 004582a0 f   ha_myisam.obj
 0001:00057360       ?dump@ha_myisam@@UAEHPAVTHD@@H@Z 00458360 f   ha_myisam.obj
 0001:00057570       ?open@ha_myisam@@UAEHPBDHI@Z 00458570 f   ha_myisam.obj
 0001:000576a0       ?close@ha_myisam@@UAEHXZ   004586a0 f   ha_myisam.obj
 0001:000576f0       ?write_row@ha_myisam@@UAEHPAE@Z 004586f0 f   ha_myisam.obj
 0001:000577a0       ?check@ha_myisam@@UAEHPAVTHD@@PAUst_ha_check_opt@@@Z 004587a0 f   ha_myisam.obj
 0001:00057cc0       ?analyze@ha_myisam@@UAEHPAVTHD@@PAUst_ha_check_opt@@@Z 00458cc0 f   ha_myisam.obj
 0001:00057ec0       ?restore@ha_myisam@@UAEHPAVTHD@@PAUst_ha_check_opt@@@Z 00458ec0 f   ha_myisam.obj
 0001:000581d0       ?backup@ha_myisam@@UAEHPAVTHD@@PAUst_ha_check_opt@@@Z 004591d0 f   ha_myisam.obj
 0001:00058520       ?repair@ha_myisam@@UAEHPAVTHD@@PAUst_ha_check_opt@@@Z 00459520 f   ha_myisam.obj
 0001:000587d0       ?optimize@ha_myisam@@UAEHPAVTHD@@PAUst_ha_check_opt@@@Z 004597d0 f   ha_myisam.obj
 0001:00058920       ?repair@ha_myisam@@AAEHPAVTHD@@AAUst_mi_check_param@@_N@Z 00459920 f   ha_myisam.obj
 0001:00059360       ?assign_to_keycache@ha_myisam@@UAEHPAVTHD@@PAUst_ha_check_opt@@@Z 0045a360 f   ha_myisam.obj
 0001:000595f0       ?preload_keys@ha_myisam@@UAEHPAVTHD@@PAUst_ha_check_opt@@@Z 0045a5f0 f   ha_myisam.obj
 0001:00059900       ?disable_indexes@ha_myisam@@UAEHI@Z 0045a900 f   ha_myisam.obj
 0001:00059990       ?enable_indexes@ha_myisam@@UAEHI@Z 0045a990 f   ha_myisam.obj
 0001:00059c20       ?indexes_are_disabled@ha_myisam@@UAEHXZ 0045ac20 f   ha_myisam.obj
 0001:00059c50       ?start_bulk_insert@ha_myisam@@UAEX_K@Z 0045ac50 f   ha_myisam.obj
 0001:00059f50       ?end_bulk_insert@ha_myisam@@UAEHXZ 0045af50 f   ha_myisam.obj
 0001:00059ff0       ?check_and_repair@ha_myisam@@UAE_NPAVTHD@@@Z 0045aff0 f   ha_myisam.obj
 0001:0005a2d0       ?is_crashed@ha_myisam@@UBE_NXZ 0045b2d0 f   ha_myisam.obj
 0001:0005a340       ?update_row@ha_myisam@@UAEHPBEPAE@Z 0045b340 f   ha_myisam.obj
 0001:0005a3c0       ?delete_row@ha_myisam@@UAEHPBE@Z 0045b3c0 f   ha_myisam.obj
 0001:0005a420       ?index_read@ha_myisam@@UAEHPAEPBEIW4ha_rkey_function@@@Z 0045b420 f   ha_myisam.obj
 0001:0005a4e0       ?index_read_idx@ha_myisam@@UAEHPAEIPBEIW4ha_rkey_function@@@Z 0045b4e0 f   ha_myisam.obj
 0001:0005a570       ?index_read_last@ha_myisam@@UAEHPAEPBEI@Z 0045b570 f   ha_myisam.obj
 0001:0005a630       ?index_next@ha_myisam@@UAEHPAE@Z 0045b630 f   ha_myisam.obj
 0001:0005a6e0       ?index_prev@ha_myisam@@UAEHPAE@Z 0045b6e0 f   ha_myisam.obj
 0001:0005a790       ?index_first@ha_myisam@@UAEHPAE@Z 0045b790 f   ha_myisam.obj
 0001:0005a840       ?index_last@ha_myisam@@UAEHPAE@Z 0045b840 f   ha_myisam.obj
 0001:0005a8f0       ?index_next_same@ha_myisam@@UAEHPAEPBEI@Z 0045b8f0 f   ha_myisam.obj
 0001:0005a9a0       ?rnd_init@ha_myisam@@UAEH_N@Z 0045b9a0 f   ha_myisam.obj
 0001:0005a9f0       ?rnd_next@ha_myisam@@UAEHPAE@Z 0045b9f0 f   ha_myisam.obj
 0001:0005aa70       ?restart_rnd_next@ha_myisam@@UAEHPAE0@Z 0045ba70 f   ha_myisam.obj
 0001:0005aab0       ?rnd_pos@ha_myisam@@UAEHPAE0@Z 0045bab0 f   ha_myisam.obj
 0001:0005ab50       ?position@ha_myisam@@UAEXPBE@Z 0045bb50 f   ha_myisam.obj
 0001:0005abc0       ?info@ha_myisam@@UAEHI@Z   0045bbc0 f   ha_myisam.obj
 0001:0005af20       ?extra@ha_myisam@@UAEHW4ha_extra_function@@@Z 0045bf20 f   ha_myisam.obj
 0001:0005af70       ?extra_opt@ha_myisam@@UAEHW4ha_extra_function@@K@Z 0045bf70 f   ha_myisam.obj
 0001:0005afc0       ?delete_all_rows@ha_myisam@@UAEHXZ 0045bfc0 f   ha_myisam.obj
 0001:0005aff0       ?delete_table@ha_myisam@@UAEHPBD@Z 0045bff0 f   ha_myisam.obj
 0001:0005b020       ?external_lock@ha_myisam@@UAEHPAVTHD@@H@Z 0045c020 f   ha_myisam.obj
 0001:0005b080       ?store_lock@ha_myisam@@UAEPAPAUst_thr_lock_data@@PAVTHD@@PAPAU2@W4thr_lock_type@@@Z 0045c080 f   ha_myisam.obj
 0001:0005b0e0       ?update_create_info@ha_myisam@@UAEXPAUst_ha_create_information@@@Z 0045c0e0 f   ha_myisam.obj
 0001:0005b180       ?create@ha_myisam@@UAEHPBDPAUst_table@@PAUst_ha_create_information@@@Z 0045c180 f   ha_myisam.obj
 0001:0005b5d0       ?rename_table@ha_myisam@@UAEHPBD0@Z 0045c5d0 f   ha_myisam.obj
 0001:0005b600       ?get_auto_increment@ha_myisam@@UAE_KXZ 0045c600 f   ha_myisam.obj
 0001:0005b7c0       ?records_in_range@ha_myisam@@UAE_KIPAUst_key_range@@0@Z 0045c7c0 f   ha_myisam.obj
 0001:0005b800       ?ft_read@ha_myisam@@UAEHPAE@Z 0045c800 f   ha_myisam.obj
 0001:0005b8a0       ?checksum@ha_myisam@@UBEIXZ 0045c8a0 f   ha_myisam.obj
 0001:0005b8d0       ?register_query_cache_table@ha_myisam@@UAEDPAVTHD@@PADIPAP6AD01IPA_K@Z2@Z 0045c8d0 f   ha_myisam.obj
 0001:0005d1e0       ?vio_ok@THD@@QBE_NXZ       0045e1e0 f i ha_myisam.obj
 0001:0005d210       ?table_type@ha_myisam@@UBEPBDXZ 0045e210 f i ha_myisam.obj
 0001:0005d230       ?table_flags@ha_myisam@@UBEKXZ 0045e230 f i ha_myisam.obj
 0001:0005d260       ?index_flags@ha_myisam@@UBEKII_N@Z 0045e260 f i ha_myisam.obj
 0001:0005d2a0       ?max_supported_keys@ha_myisam@@UBEIXZ 0045e2a0 f i ha_myisam.obj
 0001:0005d2c0       ?max_supported_key_length@ha_myisam@@UBEIXZ 0045e2c0 f i ha_myisam.obj
 0001:0005d2e0       ?max_supported_key_part_length@ha_myisam@@UBEIXZ 0045e2e0 f i ha_myisam.obj
 0001:0005d300       ?ft_init@ha_myisam@@UAEHXZ 0045e300 f i ha_myisam.obj
 0001:0005d370       ?ft_init_ext@ha_myisam@@UAEPAUst_ft_info@@IIPAVString@@@Z 0045e370 f i ha_myisam.obj
 0001:0005d3f0       ?auto_repair@ha_myisam@@UBE_NXZ 0045e3f0 f i ha_myisam.obj
 0001:0005d420       ??_Gha_myisam@@UAEPAXI@Z   0045e420 f i ha_myisam.obj
 0001:0005d420       ??_Eha_myisam@@UAEPAXI@Z   0045e420 f i ha_myisam.obj
 0001:0005d480       ??1ha_myisam@@UAE@XZ       0045e480 f i ha_myisam.obj
 0001:0005d4c0       ?to_ulonglong@?$Bitmap@$0EA@@@QBE_KXZ 0045e4c0 f i ha_myisam.obj
 0001:0005d4e0       ?is_clear_all@?$Bitmap@$0EA@@@QBEDXZ 0045e4e0 f i ha_myisam.obj
 0001:0005d540       ?is_set_all@?$Bitmap@$0EA@@@QBEDXZ 0045e540 f i ha_myisam.obj
 0001:0005d5a0       ?clear_error@THD@@QAEXXZ   0045e5a0 f i ha_myisam.obj
 0001:0005d5f0       ?intersect@?$Bitmap@$0EA@@@QAEXAAV1@@Z 0045e5f0 f i ha_myisam.obj
 0001:0005d630       ?intersect_extended@?$Bitmap@$0EA@@@QAEX_K@Z 0045e630 f i ha_myisam.obj
 0001:0005d670       ?val_int_offset@Field@@QAE_JI@Z 0045e670 f i ha_myisam.obj
 0001:0005d700       ??0ha_myisammrg@@QAE@PAUst_table@@@Z 0045e700 f   ha_myisammrg.obj
 0001:0005d750       _myrg_print_wrong_table    0045e750 f   ha_myisammrg.obj
 0001:0005d860       ?bas_ext@ha_myisammrg@@UBEPAPBDXZ 0045e860 f   ha_myisammrg.obj
 0001:0005d880       ?index_type@ha_myisammrg@@UAEPBDI@Z 0045e880 f   ha_myisammrg.obj
 0001:0005d920       ?open@ha_myisammrg@@UAEHPBDHI@Z 0045e920 f   ha_myisammrg.obj
 0001:0005dd20       ?close@ha_myisammrg@@UAEHXZ 0045ed20 f   ha_myisammrg.obj
 0001:0005dd50       ?write_row@ha_myisammrg@@UAEHPAE@Z 0045ed50 f   ha_myisammrg.obj
 0001:0005de30       ?update_row@ha_myisammrg@@UAEHPBEPAE@Z 0045ee30 f   ha_myisammrg.obj
 0001:0005deb0       ?delete_row@ha_myisammrg@@UAEHPBE@Z 0045eeb0 f   ha_myisammrg.obj
 0001:0005df10       ?index_read@ha_myisammrg@@UAEHPAEPBEIW4ha_rkey_function@@@Z 0045ef10 f   ha_myisammrg.obj
 0001:0005dfa0       ?index_read_idx@ha_myisammrg@@UAEHPAEIPBEIW4ha_rkey_function@@@Z 0045efa0 f   ha_myisammrg.obj
 0001:0005e030       ?index_read_last@ha_myisammrg@@UAEHPAEPBEI@Z 0045f030 f   ha_myisammrg.obj
 0001:0005e0c0       ?index_next@ha_myisammrg@@UAEHPAE@Z 0045f0c0 f   ha_myisammrg.obj
 0001:0005e150       ?index_prev@ha_myisammrg@@UAEHPAE@Z 0045f150 f   ha_myisammrg.obj
 0001:0005e1e0       ?index_first@ha_myisammrg@@UAEHPAE@Z 0045f1e0 f   ha_myisammrg.obj
 0001:0005e270       ?index_last@ha_myisammrg@@UAEHPAE@Z 0045f270 f   ha_myisammrg.obj
 0001:0005e300       ?index_next_same@ha_myisammrg@@UAEHPAEPBEI@Z 0045f300 f   ha_myisammrg.obj
 0001:0005e390       ?rnd_init@ha_myisammrg@@UAEH_N@Z 0045f390 f   ha_myisammrg.obj
 0001:0005e3d0       ?rnd_next@ha_myisammrg@@UAEHPAE@Z 0045f3d0 f   ha_myisammrg.obj
 0001:0005e450       ?rnd_pos@ha_myisammrg@@UAEHPAE0@Z 0045f450 f   ha_myisammrg.obj
 0001:0005e4f0       ?position@ha_myisammrg@@UAEXPBE@Z 0045f4f0 f   ha_myisammrg.obj
 0001:0005e560       ?records_in_range@ha_myisammrg@@UAE_KIPAUst_key_range@@0@Z 0045f560 f   ha_myisammrg.obj
 0001:0005e5a0       ?info@ha_myisammrg@@UAEHI@Z 0045f5a0 f   ha_myisammrg.obj
 0001:0005e770       ?extra@ha_myisammrg@@UAEHW4ha_extra_function@@@Z 0045f770 f   ha_myisammrg.obj
 0001:0005e7c0       ?extra_opt@ha_myisammrg@@UAEHW4ha_extra_function@@K@Z 0045f7c0 f   ha_myisammrg.obj
 0001:0005e810       ?external_lock@ha_myisammrg@@UAEHPAVTHD@@H@Z 0045f810 f   ha_myisammrg.obj
 0001:0005e850       ?lock_count@ha_myisammrg@@UBEIXZ 0045f850 f   ha_myisammrg.obj
 0001:0005e870       ?store_lock@ha_myisammrg@@UAEPAPAUst_thr_lock_data@@PAVTHD@@PAPAU2@W4thr_lock_type@@@Z 0045f870 f   ha_myisammrg.obj
 0001:0005ea00       ?update_create_info@ha_myisammrg@@UAEXPAUst_ha_create_information@@@Z 0045fa00 f   ha_myisammrg.obj
 0001:0005ec70       ?create@ha_myisammrg@@UAEHPBDPAUst_table@@PAUst_ha_create_information@@@Z 0045fc70 f   ha_myisammrg.obj
 0001:0005efe0       ?append_create_info@ha_myisammrg@@UAEXPAVString@@@Z 0045ffe0 f   ha_myisammrg.obj
 0001:0005f1b0       ?check@ha_myisammrg@@UAEHPAVTHD@@PAUst_ha_check_opt@@@Z 004601b0 f   ha_myisammrg.obj
 0001:0005f880       ?table_type@ha_myisammrg@@UBEPBDXZ 00460880 f i ha_myisammrg.obj
 0001:0005f8a0       ?table_flags@ha_myisammrg@@UBEKXZ 004608a0 f i ha_myisammrg.obj
 0001:0005f8c0       ?index_flags@ha_myisammrg@@UBEKII_N@Z 004608c0 f i ha_myisammrg.obj
 0001:0005f900       ?max_supported_keys@ha_myisammrg@@UBEIXZ 00460900 f i ha_myisammrg.obj
 0001:0005f920       ?max_supported_key_length@ha_myisammrg@@UBEIXZ 00460920 f i ha_myisammrg.obj
 0001:0005f940       ?max_supported_key_part_length@ha_myisammrg@@UBEIXZ 00460940 f i ha_myisammrg.obj
 0001:0005f960       ?scan_time@ha_myisammrg@@UAENXZ 00460960 f i ha_myisammrg.obj
 0001:0005f9e0       ??_Gha_myisammrg@@UAEPAXI@Z 004609e0 f i ha_myisammrg.obj
 0001:0005f9e0       ??_Eha_myisammrg@@UAEPAXI@Z 004609e0 f i ha_myisammrg.obj
 0001:0005fa40       ??1ha_myisammrg@@UAE@XZ    00460a40 f i ha_myisammrg.obj
 0001:0005fa80       ?calloc@Query_arena@@QAEPADI@Z 00460a80 f i ha_myisammrg.obj
 0001:0005faf0       ?strmake@Query_arena@@QAEPADPBDI@Z 00460af0 f i ha_myisammrg.obj
 0001:0005fb40       ?alloc@Query_arena@@QAEPADI@Z 00460b40 f i ha_myisammrg.obj
 0001:0005fb80       ?innobase_release_temporary_latches@@YAXPAVTHD@@@Z 00460b80 f   ha_innodb.obj
 0001:0005fbd0       _innobase_mysql_prepare_print_arbitrary_thd 00460bd0 f   ha_innodb.obj
 0001:0005fc00       _innobase_mysql_end_print_arbitrary_thd 00460c00 f   ha_innodb.obj
 0001:0005fc30       _innobase_mysql_print_thd  00460c30 f   ha_innodb.obj
 0001:0005fea0       _innobase_get_cset_width   00460ea0 f   ha_innodb.obj
 0001:0005ff60       _innobase_strcasecmp       00460f60 f   ha_innodb.obj
 0001:0005ffa0       _innobase_casedn_str       00460fa0 f   ha_innodb.obj
 0001:0005ffe0       _innobase_mysql_tmpfile    00460fe0 f   ha_innodb.obj
 0001:00060120       ??0ha_innobase@@QAE@PAUst_table@@@Z 00461120 f   ha_innodb.obj
 0001:00060190       ?innobase_query_caching_of_table_permitted@@YADPAVTHD@@PADIPA_K@Z 00461190 f   ha_innodb.obj
 0001:00060570       _innobase_invalidate_query_cache 00461570 f   ha_innodb.obj
 0001:000605a0       _mysql_get_identifier_quote_char 004615a0 f   ha_innodb.obj
 0001:000605e0       _trx_is_interrupted        004615e0 f   ha_innodb.obj
 0001:00060650       _innobase_current_thd      00461650 f   ha_innodb.obj
 0001:00060670       ?init_table_handle_for_HANDLER@ha_innobase@@UAEXXZ 00461670 f   ha_innodb.obj
 0001:00060760       ?innobase_init@@YA_NXZ     00461760 f   ha_innodb.obj
 0001:00060e70       ?innobase_end@@YA_NXZ      00461e70 f   ha_innodb.obj
 0001:00061010       ?innobase_flush_logs@@YA_NXZ 00462010 f   ha_innodb.obj
 0001:00061100       ?innobase_commit_low@@YAXPAUtrx_struct@@@Z 00462100 f   ha_innodb.obj
 0001:00061180       ?innobase_start_trx_and_assign_read_view@@YAHPAVTHD@@@Z 00462180 f   ha_innodb.obj
 0001:000615d0       ?innobase_report_binlog_offset_and_commit@@YAHPAVTHD@@PAXPAD_K@Z 004625d0 f   ha_innodb.obj
 0001:000616a0       ?innobase_commit_complete@@YAHPAVTHD@@@Z 004626a0 f   ha_innodb.obj
 0001:00061a30       ?innobase_rollback_trx@@YAHPAUtrx_struct@@@Z 00462a30 f   ha_innodb.obj
 0001:00062130       ?get_row_type@ha_innobase@@UBE?AW4row_type@@XZ 00463130 f   ha_innodb.obj
 0001:00062190       ?bas_ext@ha_innobase@@UBEPAPBDXZ 00463190 f   ha_innodb.obj
 0001:000621b0       ?open@ha_innobase@@UAEHPBDHI@Z 004631b0 f   ha_innodb.obj
 0001:000627e0       ?max_supported_key_part_length@ha_innobase@@UBEIXZ 004637e0 f   ha_innodb.obj
 0001:00062800       ?close@ha_innobase@@UAEHXZ 00463800 f   ha_innodb.obj
 0001:00062950       _innobase_mysql_cmp        00463950 f   ha_innodb.obj
 0001:00062c00       ?store_key_val_for_row@ha_innobase@@AAEIIPADIPBE@Z 00463c00 f   ha_innodb.obj
 0001:00063360       ?write_row@ha_innobase@@UAEHPAE@Z 00464360 f   ha_innodb.obj
 0001:00063db0       ?update_row@ha_innobase@@UAEHPBEPAE@Z 00464db0 f   ha_innodb.obj
 0001:00064460       ?delete_row@ha_innobase@@UAEHPBE@Z 00465460 f   ha_innodb.obj
 0001:00064640       ?unlock_row@ha_innobase@@UAEXXZ 00465640 f   ha_innodb.obj
 0001:00064810       ?index_init@ha_innobase@@UAEHI@Z 00465810 f   ha_innodb.obj
 0001:00064910       ?index_end@ha_innobase@@UAEHXZ 00465910 f   ha_innodb.obj
 0001:00064a10       ?index_read@ha_innobase@@UAEHPAEPBEIW4ha_rkey_function@@@Z 00465a10 f   ha_innodb.obj
 0001:00064d40       ?index_read_last@ha_innobase@@UAEHPAEPBEI@Z 00465d40 f   ha_innodb.obj
 0001:00064d90       ?change_active_index@ha_innobase@@AAEHI@Z 00465d90 f   ha_innodb.obj
 0001:00064ff0       ?index_read_idx@ha_innobase@@UAEHPAEIPBEIW4ha_rkey_function@@@Z 00465ff0 f   ha_innodb.obj
 0001:00065050       ?general_fetch@ha_innobase@@AAEHPAEII@Z 00466050 f   ha_innodb.obj
 0001:00065210       ?index_next@ha_innobase@@UAEHPAE@Z 00466210 f   ha_innodb.obj
 0001:00065260       ?index_next_same@ha_innobase@@UAEHPAEPBEI@Z 00466260 f   ha_innodb.obj
 0001:000652c0       ?index_prev@ha_innobase@@UAEHPAE@Z 004662c0 f   ha_innodb.obj
 0001:00065310       ?index_first@ha_innobase@@UAEHPAE@Z 00466310 f   ha_innodb.obj
 0001:00065440       ?index_last@ha_innobase@@UAEHPAE@Z 00466440 f   ha_innodb.obj
 0001:00065570       ?rnd_init@ha_innobase@@UAEH_N@Z 00466570 f   ha_innodb.obj
 0001:000655f0       ?rnd_end@ha_innobase@@UAEHXZ 004665f0 f   ha_innodb.obj
 0001:00065630       ?rnd_next@ha_innobase@@UAEHPAE@Z 00466630 f   ha_innodb.obj
 0001:00065790       ?rnd_pos@ha_innobase@@UAEHPAE0@Z 00466790 f   ha_innodb.obj
 0001:000659b0       ?position@ha_innobase@@UAEXPBE@Z 004669b0 f   ha_innodb.obj
 0001:00065a70       ?update_create_info@ha_innobase@@UAEXPAUst_ha_create_information@@@Z 00466a70 f   ha_innodb.obj
 0001:00065ac0       ?create@ha_innobase@@UAEHPBDPAUst_table@@PAUst_ha_create_information@@@Z 00466ac0 f   ha_innodb.obj
 0001:00066890       ?discard_or_import_tablespace@ha_innobase@@UAEHD@Z 00467890 f   ha_innodb.obj
 0001:00066ae0       ?delete_all_rows@ha_innobase@@UAEHXZ 00467ae0 f   ha_innodb.obj
 0001:00066c50       ?delete_table@ha_innobase@@UAEHPBD@Z 00467c50 f   ha_innodb.obj
 0001:00066f00       ?innobase_drop_database@@YAHPAD@Z 00467f00 f   ha_innodb.obj
 0001:000670b0       ?rename_table@ha_innobase@@UAEHPBD0@Z 004680b0 f   ha_innodb.obj
 0001:00067360       ?records_in_range@ha_innobase@@UAE_KIPAUst_key_range@@0@Z 00468360 f   ha_innodb.obj
 0001:00067750       ?estimate_rows_upper_bound@ha_innobase@@UAE_KXZ 00468750 f   ha_innodb.obj
 0001:000678d0       ?scan_time@ha_innobase@@UAENXZ 004688d0 f   ha_innodb.obj
 0001:00067920       ?read_time@ha_innobase@@UAENII_K@Z 00468920 f   ha_innodb.obj
 0001:00067a90       ?info@ha_innobase@@UAEHI@Z 00468a90 f   ha_innodb.obj
 0001:00068170       ?analyze@ha_innobase@@UAEHPAVTHD@@PAUst_ha_check_opt@@@Z 00469170 f   ha_innodb.obj
 0001:000681b0       ?optimize@ha_innobase@@UAEHPAVTHD@@PAUst_ha_check_opt@@@Z 004691b0 f   ha_innodb.obj
 0001:000681d0       ?check@ha_innobase@@UAEHPAVTHD@@PAUst_ha_check_opt@@@Z 004691d0 f   ha_innodb.obj
 0001:00068340       ?update_table_comment@ha_innobase@@UAEPADPBD@Z 00469340 f   ha_innodb.obj
 0001:00068540       ?get_foreign_key_create_info@ha_innobase@@UAEPADXZ 00469540 f   ha_innodb.obj
 0001:000686f0       ?get_foreign_key_list@ha_innobase@@UAEHPAVTHD@@PAV?$List@Ust_foreign_key_info@@@@@Z 004696f0 f   ha_innodb.obj
 0001:00068b40       ?can_switch_engines@ha_innobase@@UAE_NXZ 00469b40 f   ha_innodb.obj
 0001:00068ca0       ?referenced_by_foreign_key@ha_innobase@@UAEIXZ 00469ca0 f   ha_innodb.obj
 0001:00068cf0       ?free_foreign_key_create_info@ha_innobase@@UAEXPAD@Z 00469cf0 f   ha_innodb.obj
 0001:00068d30       ?extra@ha_innobase@@UAEHW4ha_extra_function@@@Z 00469d30 f   ha_innodb.obj
 0001:00068e90       ?start_stmt@ha_innobase@@UAEHPAVTHD@@W4thr_lock_type@@@Z 00469e90 f   ha_innodb.obj
 0001:00068fa0       ?external_lock@ha_innobase@@UAEHPAVTHD@@H@Z 00469fa0 f   ha_innodb.obj
 0001:000693b0       ?transactional_table_lock@ha_innobase@@QAEHPAVTHD@@H@Z 0046a3b0 f   ha_innodb.obj
 0001:000696d0       ?innodb_export_status@@YAXXZ 0046a6d0 f   ha_innodb.obj
 0001:000696f0       ?innodb_show_status@@YA_NPAVTHD@@@Z 0046a6f0 f   ha_innodb.obj
 0001:00069be0       ?innodb_mutex_show_status@@YA_NPAVTHD@@@Z 0046abe0 f   ha_innodb.obj
 0001:0006a100       ?store_lock@ha_innobase@@UAEPAPAUst_thr_lock_data@@PAVTHD@@PAPAU2@W4thr_lock_type@@@Z 0046b100 f   ha_innodb.obj
 0001:0006a340       ?innobase_read_and_init_auto_inc@ha_innobase@@AAEHPA_J@Z 0046b340 f   ha_innodb.obj
 0001:0006a710       ?get_auto_increment@ha_innobase@@UAE_KXZ 0046b710 f   ha_innodb.obj
 0001:0006a7b0       ?reset_auto_increment@ha_innobase@@UAEH_K@Z 0046b7b0 f   ha_innodb.obj
 0001:0006a910       ?get_error_message@ha_innobase@@UAE_NHPAVString@@@Z 0046b910 f   ha_innodb.obj
 0001:0006a980       ?cmp_ref@ha_innobase@@UAEHPBE0@Z 0046b980 f   ha_innodb.obj
 0001:0006ab30       ?get_mysql_bin_log_name@ha_innobase@@SAPADXZ 0046bb30 f   ha_innodb.obj
 0001:0006ab40       ?get_mysql_bin_log_pos@ha_innobase@@SA_KXZ 0046bb40 f   ha_innodb.obj
 0001:0006ab50       _innobase_get_at_most_n_mbchars 0046bb50 f   ha_innodb.obj
 0001:0006ac00       _innobase_query_is_update  0046bc00 f   ha_innodb.obj
 0001:0006ac90       ?innobase_xa_prepare@@YAHPAVTHD@@_N@Z 0046bc90 f   ha_innodb.obj
 0001:0006add0       ?innobase_xa_recover@@YAHPAUxid_t@@I@Z 0046bdd0 f   ha_innodb.obj
 0001:0006ae00       ?innobase_commit_by_xid@@YAHPAUxid_t@@@Z 0046be00 f   ha_innodb.obj
 0001:0006ae50       ?innobase_rollback_by_xid@@YAHPAUxid_t@@@Z 0046be50 f   ha_innodb.obj
 0001:0006aea0       ?innobase_create_cursor_view@@YAPAXXZ 0046bea0 f   ha_innodb.obj
 0001:0006aed0       ?innobase_close_cursor_view@@YAXPAX@Z 0046bed0 f   ha_innodb.obj
 0001:0006af00       ?innobase_set_cursor_view@@YAXPAX@Z 0046bf00 f   ha_innodb.obj
 0001:0006dc10       ?innobase_release_stat_resources@@YAXPAUtrx_struct@@@Z 0046ec10 f i ha_innodb.obj
 0001:0006dc60       ?table_type@ha_innobase@@UBEPBDXZ 0046ec60 f i ha_innodb.obj
 0001:0006dc80       ?index_type@ha_innobase@@UAEPBDI@Z 0046ec80 f i ha_innodb.obj
 0001:0006dca0       ?table_flags@ha_innobase@@UBEKXZ 0046eca0 f i ha_innodb.obj
 0001:0006dcd0       ?index_flags@ha_innobase@@UBEKII_N@Z 0046ecd0 f i ha_innodb.obj
 0001:0006dcf0       ?max_supported_keys@ha_innobase@@UBEIXZ 0046ecf0 f i ha_innodb.obj
 0001:0006dd10       ?max_supported_key_length@ha_innobase@@UBEIXZ 0046ed10 f i ha_innodb.obj
 0001:0006dd30       ?keys_to_use_for_scanning@ha_innobase@@UAEPBV?$Bitmap@$0EA@@@XZ 0046ed30 f i ha_innodb.obj
 0001:0006dd50       ?has_transactions@ha_innobase@@UAE_NXZ 0046ed50 f i ha_innodb.obj
 0001:0006dd70       ?table_cache_type@ha_innobase@@UAEEXZ 0046ed70 f i ha_innodb.obj
 0001:0006dd90       ?register_query_cache_table@ha_innobase@@UAEDPAVTHD@@PADIPAP6AD01IPA_K@Z2@Z 0046ed90 f i ha_innodb.obj
 0001:0006de00       ?primary_key_is_clustered@ha_innobase@@UAE_NXZ 0046ee00 f i ha_innodb.obj
 0001:0006de20       ??_Eha_innobase@@UAEPAXI@Z 0046ee20 f i ha_innodb.obj
 0001:0006de20       ??_Gha_innobase@@UAEPAXI@Z 0046ee20 f i ha_innodb.obj
 0001:0006de80       ??1ha_innobase@@UAE@XZ     0046ee80 f i ha_innodb.obj
 0001:0006dec0       ?innobase_register_trx_and_stmt@@YAXPAVTHD@@@Z 0046eec0 f i ha_innodb.obj
 0001:0006df40       ?innobase_register_stmt@@YAXPAVTHD@@@Z 0046ef40 f i ha_innodb.obj
 0001:0006df70       ?update_thd@ha_innobase@@AAEHPAVTHD@@@Z 0046ef70 f i ha_innodb.obj
 0001:0006e000       ?get_log_fname@MYSQL_LOG@@QAEPADXZ 0046f000 f i ha_innodb.obj
 0001:0006e020       ?get_log_file@MYSQL_LOG@@QAEPAUst_io_cache@@XZ 0046f020 f i ha_innodb.obj
 0001:0006e040       ?get_field_offset@@YAIPAUst_table@@PAVField@@@Z 0046f040 f i ha_innodb.obj
 0001:0006e060       ?innobase_write_to_2_little_endian@@YAXPAEK@Z 0046f060 f i ha_innodb.obj
 0001:0006e110       ?innodb_srv_conc_enter_innodb@@YAXPAUtrx_struct@@@Z 0046f110 f i ha_innodb.obj
 0001:0006e140       ?innodb_srv_conc_exit_innodb@@YAXPAUtrx_struct@@@Z 0046f140 f i ha_innodb.obj
 0001:0006e170       ?innobase_active_small@@YAXXZ 0046f170 f i ha_innodb.obj
 0001:0006e1b0       ?field_in_record_is_null@@YAIPAUst_table@@PAVField@@PAD@Z 0046f1b0 f i ha_innodb.obj
 0001:0006e210       ?convert_search_mode_to_innobase@@YAKW4ha_rkey_function@@@Z 0046f210 f i ha_innodb.obj
 0001:0006e310       ?charset@THD@@QAEPAUcharset_info_st@@XZ 0046f310 f i ha_innodb.obj
 0001:0006e340       ?get_innobase_type_from_mysql_type@@YAKPAKPAVField@@@Z 0046f340 f i ha_innodb.obj
 0001:0006e730       ?memdup@Query_arena@@QAEPADPBDI@Z 0046f730 f i ha_innodb.obj
 0001:0006e780       ??0st_foreign_key_info@@QAE@XZ 0046f780 f i ha_innodb.obj
 0001:0006e7d0       ??1st_foreign_key_info@@QAE@XZ 0046f7d0 f i ha_innodb.obj
 0001:0006e810       ??1?$List@Ust_lex_string@@@@QAE@XZ 0046f810 f i ha_innodb.obj
 0001:0006e840       ??1base_list@@QAE@XZ       0046f840 f i ha_innodb.obj
 0001:0006e870       ?innobase_map_isolation_level@@YAKW4enum_tx_isolation@@@Z 0046f870 f i ha_innodb.obj
 0001:0006e960       ??0Item_empty_string@@QAE@PBDIPAUcharset_info_st@@@Z 0046f960 f i ha_innodb.obj
 0001:0006ea20       ??_EItem_empty_string@@UAEPAXI@Z 0046fa20 f i ha_innodb.obj
 0001:0006ea20       ??_GItem_empty_string@@UAEPAXI@Z 0046fa20 f i ha_innodb.obj
 0001:0006ea70       ??1Item_empty_string@@UAE@XZ 0046fa70 f i ha_innodb.obj
 0001:0006eaa0       ??1?$List@VItem@@@@QAE@XZ  0046faa0 f i ha_innodb.obj
 0001:0006ead0       ?store@Protocol@@QAE_N_K@Z 0046fad0 f i ha_innodb.obj
 0001:0006eb20       ?innobase_read_from_2_little_endian@@YAIPBE@Z 0046fb20 f i ha_innodb.obj
 0001:0006eb40       ??0?$List@Ust_lex_string@@@@QAE@XZ 0046fb40 f i ha_innodb.obj
 0001:0006eb70       ?push_back@?$List@Ust_lex_string@@@@QAE_NPAUst_lex_string@@@Z 0046fb70 f i ha_innodb.obj
 0001:0006ebb0       ??0?$List@VItem@@@@QAE@XZ  0046fbb0 f i ha_innodb.obj
 0001:0006ebe0       ?push_back@?$List@VItem@@@@QAE_NPAVItem@@@Z 0046fbe0 f i ha_innodb.obj
 0001:0006ec20       ?push_back@?$List@Ust_foreign_key_info@@@@QAE_NPAUst_foreign_key_info@@@Z 0046fc20 f i ha_innodb.obj
 0001:0006ec60       ?federated_db_init@@YA_NXZ 0046fc60 f   ha_federated.obj
 0001:0006edf0       ?federated_db_end@@YA_NXZ  0046fdf0 f   ha_federated.obj
 0001:0006ee40       ??0ha_federated@@QAE@PAUst_table@@@Z 0046fe40 f   ha_federated.obj
 0001:0006eeb0       ?convert_row_to_internal_format@ha_federated@@AAEIPAEPAPADPAUst_mysql_res@@@Z 0046feb0 f   ha_federated.obj
 0001:0006f080       ?create_where_from_key@ha_federated@@AAE_NPAVString@@PAUst_key@@PBUst_key_range@@2_N@Z 00470080 f   ha_federated.obj
 0001:00070760       ?records_in_range@ha_federated@@UAE_KIPAUst_key_range@@0@Z 00471760 f   ha_federated.obj
 0001:00070850       ?bas_ext@ha_federated@@UBEPAPBDXZ 00471850 f   ha_federated.obj
 0001:00070870       ?open@ha_federated@@UAEHPBDHI@Z 00471870 f   ha_federated.obj
 0001:00071600       ?close@ha_federated@@UAEHXZ 00472600 f   ha_federated.obj
 0001:000718d0       ?append_stmt_insert@ha_federated@@AAE_NPAVString@@@Z 004728d0 f   ha_federated.obj
 0001:00071c00       ?write_row@ha_federated@@UAEHPAE@Z 00472c00 f   ha_federated.obj
 0001:00072250       ?start_bulk_insert@ha_federated@@UAEX_K@Z 00473250 f   ha_federated.obj
 0001:00072400       ?end_bulk_insert@ha_federated@@UAEHXZ 00473400 f   ha_federated.obj
 0001:00072560       ?update_auto_increment@ha_federated@@QAEXXZ 00473560 f   ha_federated.obj
 0001:00072690       ?optimize@ha_federated@@UAEHPAVTHD@@PAUst_ha_check_opt@@@Z 00473690 f   ha_federated.obj
 0001:000728b0       ?repair@ha_federated@@UAEHPAVTHD@@PAUst_ha_check_opt@@@Z 004738b0 f   ha_federated.obj
 0001:00072b20       ?update_row@ha_federated@@UAEHPBEPAE@Z 00473b20 f   ha_federated.obj
 0001:000730c0       ?delete_row@ha_federated@@UAEHPBE@Z 004740c0 f   ha_federated.obj
 0001:00073570       ?index_read@ha_federated@@UAEHPAEPBEIW4ha_rkey_function@@@Z 00474570 f   ha_federated.obj
 0001:000736a0       ?index_read_idx@ha_federated@@UAEHPAEIPBEIW4ha_rkey_function@@@Z 004746a0 f   ha_federated.obj
 0001:000737f0       ?index_read_idx_with_result_set@ha_federated@@AAEHPAEIPBEIW4ha_rkey_function@@PAPAUst_mysql_res@@@Z 004747f0 f   ha_federated.obj
 0001:00073c20       ?estimate_rows_upper_bound@ha_federated@@UAE_KXZ 00474c20 f   ha_federated.obj
 0001:00073c40       ?index_init@ha_federated@@UAEHI@Z 00474c40 f   ha_federated.obj
 0001:00073d70       ?read_range_first@ha_federated@@UAEHPBUst_key_range@@0_N1@Z 00474d70 f   ha_federated.obj
 0001:00074070       ?read_range_next@ha_federated@@UAEHXZ 00475070 f   ha_federated.obj
 0001:00074180       ?index_next@ha_federated@@UAEHPAE@Z 00475180 f   ha_federated.obj
 0001:000742a0       ?rnd_init@ha_federated@@UAEH_N@Z 004752a0 f   ha_federated.obj
 0001:00074430       ?rnd_end@ha_federated@@UAEHXZ 00475430 f   ha_federated.obj
 0001:00074530       ?index_end@ha_federated@@UAEHXZ 00475530 f   ha_federated.obj
 0001:00074650       ?rnd_next@ha_federated@@UAEHPAE@Z 00475650 f   ha_federated.obj
 0001:00074780       ?read_next@ha_federated@@AAEHPAEPAUst_mysql_res@@@Z 00475780 f   ha_federated.obj
 0001:000748e0       ?position@ha_federated@@UAEXPBE@Z 004758e0 f   ha_federated.obj
 0001:00074a30       ?rnd_pos@ha_federated@@UAEHPAE0@Z 00475a30 f   ha_federated.obj
 0001:00074bc0       ?info@ha_federated@@UAEHI@Z 00475bc0 f   ha_federated.obj
 0001:00075090       ?extra@ha_federated@@UAEHW4ha_extra_function@@@Z 00476090 f   ha_federated.obj
 0001:00075270       ?delete_all_rows@ha_federated@@UAEHXZ 00476270 f   ha_federated.obj
 0001:000754d0       ?store_lock@ha_federated@@UAEPAPAUst_thr_lock_data@@PAVTHD@@PAPAU2@W4thr_lock_type@@@Z 004764d0 f   ha_federated.obj
 0001:00075630       ?create@ha_federated@@UAEHPBDPAUst_table@@PAUst_ha_create_information@@@Z 00476630 f   ha_federated.obj
 0001:00075780       ?real_connect@ha_federated@@AAEHXZ 00476780 f   ha_federated.obj
 0001:00075c20       ?real_query@ha_federated@@AAEHPBDI@Z 00476c20 f   ha_federated.obj
 0001:00075d60       ?stash_remote_error@ha_federated@@AAEHXZ 00476d60 f   ha_federated.obj
 0001:00075f00       ?get_error_message@ha_federated@@UAE_NHPAVString@@@Z 00476f00 f   ha_federated.obj
 0001:00077db0       ?table_type@ha_federated@@UBEPBDXZ 00478db0 f i ha_federated.obj
 0001:00077dd0       ?index_type@ha_federated@@UAEPBDI@Z 00478dd0 f i ha_federated.obj
 0001:00077df0       ?table_flags@ha_federated@@UBEKXZ 00478df0 f i ha_federated.obj
 0001:00077e10       ?index_flags@ha_federated@@UBEKII_N@Z 00478e10 f i ha_federated.obj
 0001:00077e30       ?max_supported_record_length@ha_federated@@UBEIXZ 00478e30 f i ha_federated.obj
 0001:00077e50       ?max_supported_keys@ha_federated@@UBEIXZ 00478e50 f i ha_federated.obj
 0001:00077e70       ?max_supported_key_parts@ha_federated@@UBEIXZ 00478e70 f i ha_federated.obj
 0001:00077e90       ?max_supported_key_length@ha_federated@@UBEIXZ 00478e90 f i ha_federated.obj
 0001:00077eb0       ?max_supported_key_part_length@ha_federated@@UBEIXZ 00478eb0 f i ha_federated.obj
 0001:00077ed0       ?scan_time@ha_federated@@UAENXZ 00478ed0 f i ha_federated.obj
 0001:00077f90       ?read_time@ha_federated@@UAENII_K@Z 00478f90 f i ha_federated.obj
 0001:00078010       ?keys_to_use_for_scanning@ha_federated@@UAEPBV?$Bitmap@$0EA@@@XZ 00479010 f i ha_federated.obj
 0001:00078030       ?table_cache_type@ha_federated@@UAEEXZ 00479030 f i ha_federated.obj
 0001:00078050       ??_Gha_federated@@UAEPAXI@Z 00479050 f i ha_federated.obj
 0001:00078050       ??_Eha_federated@@UAEPAXI@Z 00479050 f i ha_federated.obj
 0001:000780b0       ??1ha_federated@@UAE@XZ    004790b0 f i ha_federated.obj
 0001:000780f0       ?reserve@String@@QAEHK@Z   004790f0 f i ha_federated.obj
 0001:00078130       ?val_str@Field@@QAEPAVString@@PAV2@PAD@Z 00479130 f i ha_federated.obj
 0001:000781a0       ?insert_id@THD@@QAEX_K@Z   004791a0 f i ha_federated.obj
 0001:000781f0       ?ha_resolve_by_name@@YA?AW4db_type@@PBDI@Z 004791f0 f   handler.obj
 0001:00078350       ?ha_get_storage_engine@@YAPBDW4db_type@@@Z 00479350 f   handler.obj
 0001:000783a0       ?ha_check_storage_engine_flag@@YA_NW4db_type@@K@Z 004793a0 f   handler.obj
 0001:000783f0       ?ha_storage_engine_is_enabled@@YADW4db_type@@@Z 004793f0 f   handler.obj
 0001:00078440       ?ha_checktype@@YA?AW4db_type@@PAVTHD@@W41@_N2@Z 00479440 f   handler.obj
 0001:00078510       ?get_new_handler@@YAPAVhandler@@PAUst_table@@PAUst_mem_root@@W4db_type@@@Z 00479510 f   handler.obj
 0001:000787a0       ?ha_init@@YAHXZ            004797a0 f   handler.obj
 0001:00078bd0       ?ha_panic@@YAHW4ha_panic_function@@@Z 00479bd0 f   handler.obj
 0001:00078d00       ?ha_drop_database@@YAXPAD@Z 00479d00 f   handler.obj
 0001:00078d30       ?ha_close_connection@@YAXPAVTHD@@@Z 00479d30 f   handler.obj
 0001:00078da0       ?trans_register_ha@@YAXPAVTHD@@_NPAUhandlerton@@@Z 00479da0 f   handler.obj
 0001:00078fc0       ?ha_prepare@@YAHPAVTHD@@@Z 00479fc0 f   handler.obj
 0001:000791b0       ?ha_commit_trans@@YAHPAVTHD@@_N@Z 0047a1b0 f   handler.obj
 0001:000795f0       ?ha_commit_one_phase@@YAHPAVTHD@@_N@Z 0047a5f0 f   handler.obj
 0001:00079830       ?ha_rollback_trans@@YAHPAVTHD@@_N@Z 0047a830 f   handler.obj
 0001:00079b30       ?ha_autocommit_or_rollback@@YAHPAVTHD@@H@Z 0047ab30 f   handler.obj
 0001:00079c90       ?ha_commit_or_rollback_by_xid@@YAHPAUxid_t@@_N@Z 0047ac90 f   handler.obj
 0001:00079d40       ?ha_recover@@YAHPAUst_hash@@@Z 0047ad40 f   handler.obj
 0001:0007a490       ?mysql_xa_recover@@YA_NPAVTHD@@@Z 0047b490 f   handler.obj
 0001:0007a860       ?ha_release_temporary_latches@@YAHPAVTHD@@@Z 0047b860 f   handler.obj
 0001:0007a890       ?ha_update_statistics@@YAHXZ 0047b890 f   handler.obj
 0001:0007a8b0       ?ha_rollback_to_savepoint@@YAHPAVTHD@@PAUst_savepoint@@@Z 0047b8b0 f   handler.obj
 0001:0007ab30       ?ha_savepoint@@YAHPAVTHD@@PAUst_savepoint@@@Z 0047bb30 f   handler.obj
 0001:0007ad00       ?ha_release_savepoint@@YAHPAVTHD@@PAUst_savepoint@@@Z 0047bd00 f   handler.obj
 0001:0007aea0       ?ha_start_consistent_snapshot@@YAHPAVTHD@@@Z 0047bea0 f   handler.obj
 0001:0007aef0       ?ha_flush_logs@@YA_NXZ     0047bef0 f   handler.obj
 0001:0007af30       ?ha_delete_table@@YAHPAVTHD@@W4db_type@@PBD2_N@Z 0047bf30 f   handler.obj
 0001:0007b3a0       ?clone@handler@@UAEPAV1@PAUst_mem_root@@@Z 0047c3a0 f   handler.obj
 0001:0007b460       ?ha_open@handler@@QAEHPBDHH@Z 0047c460 f   handler.obj
 0001:0007b750       ?read_first_row@handler@@UAEHPAEI@Z 0047c750 f   handler.obj
 0001:0007b900       ?adjust_next_insert_id_after_explicit_value@handler@@QAEX_K@Z 0047c900 f   handler.obj
 0001:0007b9f0       ?update_auto_increment@handler@@QAEHXZ 0047c9f0 f   handler.obj
 0001:0007be30       ?restore_auto_increment@handler@@UAEXXZ 0047ce30 f   handler.obj
 0001:0007bec0       ?get_auto_increment@handler@@UAE_KXZ 0047cec0 f   handler.obj
 0001:0007c090       ?print_error@handler@@UAEXHH@Z 0047d090 f   handler.obj
 0001:0007c880       ?get_error_message@handler@@UAE_NHPAVString@@@Z 0047d880 f   handler.obj
 0001:0007c8a0       ?ha_check_for_upgrade@handler@@QAEHPAUst_ha_check_opt@@@Z 0047d8a0 f   handler.obj
 0001:0007c9f0       ?check_old_types@handler@@QAEHXZ 0047d9f0 f   handler.obj
 0001:0007caa0       ?get_dup_key@handler@@QAEIH@Z 0047daa0 f   handler.obj
 0001:0007cbe0       ?delete_table@handler@@UAEHPBD@Z 0047dbe0 f   handler.obj
 0001:0007cd00       ?rename_table@handler@@UAEHPBD0@Z 0047dd00 f   handler.obj
 0001:0007cda0       ?ha_check@handler@@QAEHPAVTHD@@PAUst_ha_check_opt@@@Z 0047dda0 f   handler.obj
 0001:0007d1f0       ?ha_repair@handler@@QAEHPAVTHD@@PAUst_ha_check_opt@@@Z 0047e1f0 f   handler.obj
 0001:0007d260       ?ha_enable_transaction@@YAHPAVTHD@@_N@Z 0047e260 f   handler.obj
 0001:0007d380       ?index_next_same@handler@@UAEHPAEPBEI@Z 0047e380 f   handler.obj
 0001:0007d410       ?ha_create_table@@YAHPBDPAUst_ha_create_information@@_N@Z 0047e410 f   handler.obj
 0001:0007d690       ?ha_create_table_from_engine@@YAHPAVTHD@@PBD1@Z 0047e690 f   handler.obj
 0001:0007da60       ?init@st_ha_check_opt@@QAEXXZ 0047ea60 f   handler.obj
 0001:0007daa0       ?ha_init_key_cache@@YAHPBDPAUst_key_cache@@@Z 0047eaa0 f   handler.obj
 0001:0007dc20       ?ha_resize_key_cache@@YAHPAUst_key_cache@@@Z 0047ec20 f   handler.obj
 0001:0007dda0       ?ha_change_key_cache_param@@YAHPAUst_key_cache@@@Z 0047eda0 f   handler.obj
 0001:0007de30       ?ha_end_key_cache@@YAHPAUst_key_cache@@@Z 0047ee30 f   handler.obj
 0001:0007de50       ?ha_change_key_cache@@YAHPAUst_key_cache@@0@Z 0047ee50 f   handler.obj
 0001:0007de70       ?ha_discover@@YAHPAVTHD@@PBD1PAPBXPAI@Z 0047ee70 f   handler.obj
 0001:0007dfe0       ?ha_find_files@@YAHPAVTHD@@PBD11_NPAV?$List@D@@@Z 0047efe0 f   handler.obj
 0001:0007e100       ?ha_table_exists_in_engine@@YAHPAVTHD@@PBD1@Z 0047f100 f   handler.obj
 0001:0007e240       ?read_multi_range_first@handler@@UAEHPAPAUst_key_multi_range@@PAU2@I_NPAUst_handler_buffer@@@Z 0047f240 f   handler.obj
 0001:0007e440       ?read_multi_range_next@handler@@UAEHPAPAUst_key_multi_range@@@Z 0047f440 f   handler.obj
 0001:0007e6a0       ?read_range_first@handler@@UAEHPBUst_key_range@@0_N1@Z 0047f6a0 f   handler.obj
 0001:0007e8e0       ?read_range_next@handler@@UAEHXZ 0047f8e0 f   handler.obj
 0001:0007ea90       ?compare_key@handler@@QAEHPAUst_key_range@@@Z 0047fa90 f   handler.obj
 0001:0007eb00       ?index_read_idx@handler@@UAEHPAEIPBEIW4ha_rkey_function@@@Z 0047fb00 f   handler.obj
 0001:0007eb80       ?ha_known_exts@@YAPAUst_typelib@@XZ 0047fb80 f   handler.obj
 0001:000808c0       ??2Sql_alloc@@SAPAXIPAUst_mem_root@@@Z 004818c0 f i handler.obj
 0001:000808f0       ?set@xid_t@@QAEX_K@Z       004818f0 f i handler.obj
 0001:000809d0       ?set@xid_t@@QAEXJJPBD@Z    004819d0 f i handler.obj
 0001:00080a40       ?is_null@xid_t@@QAE_NXZ    00481a40 f i handler.obj
 0001:00080a70       ?get_my_xid@xid_t@@QAE_KXZ 00481a70 f i handler.obj
 0001:00080b30       ?quick_get_my_xid@xid_t@@QAE_KXZ 00481b30 f i handler.obj
 0001:00080bc0       ?null@xid_t@@QAEXXZ        00481bc0 f i handler.obj
 0001:00080bf0       ?cleanup@st_transactions@THD@@QAEXXZ 00481bf0 f i handler.obj
 0001:00080c50       ??0Item_int@@QAE@PBD_JI@Z  00481c50 f i handler.obj
 0001:00080cc0       ??0Item_num@@QAE@XZ        00481cc0 f i handler.obj
 0001:00080d00       ??_GItem_num@@UAEPAXI@Z    00481d00 f i handler.obj
 0001:00080d00       ??_EItem_num@@UAEPAXI@Z    00481d00 f i handler.obj
 0001:00080d50       ??1Item_num@@UAE@XZ        00481d50 f i handler.obj
 0001:00080d80       ?type@Item_int@@UBE?AW4Type@Item@@XZ 00481d80 f i handler.obj
 0001:00080da0       ?result_type@Item_int@@UBE?AW4Item_result@@XZ 00481da0 f i handler.obj
 0001:00080dc0       ?field_type@Item_int@@UBE?AW4enum_field_types@@XZ 00481dc0 f i handler.obj
 0001:00080de0       ?val_int@Item_int@@UAE_JXZ 00481de0 f i handler.obj
 0001:00080e40       ?val_real@Item_int@@UAENXZ 00481e40 f i handler.obj
 0001:00080ea0       ?basic_const_item@Item_int@@UBE_NXZ 00481ea0 f i handler.obj
 0001:00080ec0       ?clone_item@Item_int@@UAEPAVItem@@XZ 00481ec0 f i handler.obj
 0001:00080f50       ?neg@Item_int@@UAEPAVItem_num@@XZ 00481f50 f i handler.obj
 0001:00080f90       ?decimal_precision@Item_int@@UBEIXZ 00481f90 f i handler.obj
 0001:00081000       ??_EItem_int@@UAEPAXI@Z    00482000 f i handler.obj
 0001:00081000       ??_GItem_int@@UAEPAXI@Z    00482000 f i handler.obj
 0001:00081050       ??1Item_int@@UAE@XZ        00482050 f i handler.obj
 0001:00081080       ??0st_table@@QAE@XZ        00482080 f i handler.obj
 0001:000810f0       ??0st_table_share@@QAE@XZ  004820f0 f i handler.obj
 0001:00081140       ?ha_index_init@handler@@QAEHI@Z 00482140 f i handler.obj
 0001:000812c0       ?ha_index_end@handler@@QAEHXZ 004822c0 f i handler.obj
 0001:00081430       ?next_insert_id@@YA_K_KPAUsystem_variables@@@Z 00482430 f i handler.obj
 0001:000814b0       ?prev_insert_id@@YA_K_KPAUsystem_variables@@@Z 004824b0 f i handler.obj
 0001:000815c0       ?is_empty@String@@QAE_NXZ  004825c0 f i handler.obj
 0001:000815f0       ?c_ptr_safe@String@@QAEPADXZ 004825f0 f i handler.obj
 0001:00081660       ??1?$List@D@@QAE@XZ        00482660 f i handler.obj
 0001:00081690       ??0?$List@D@@QAE@XZ        00482690 f i handler.obj
 0001:000816c0       ?push_back@?$List@D@@QAE_NPAD@Z 004826c0 f i handler.obj
 0001:00081700       ??0?$List_iterator_fast@D@@QAE@AAV?$List@D@@@Z 00482700 f i handler.obj
 0001:00081740       ??E?$List_iterator_fast@D@@QAEPADH@Z 00482740 f i handler.obj
 0001:00081770       ?next_fast@base_list_iterator@@QAEPAXXZ 00482770 f i handler.obj
 0001:000817c0       ?rewind@?$List_iterator_fast@D@@QAEXXZ 004827c0 f i handler.obj
 0001:000817f0       ?rewind@base_list_iterator@@QAEXXZ 004827f0 f i handler.obj
 0001:00081820       ?hostname_cache_refresh@@YAXXZ 00482820 f   hostname.obj
 0001:00081840       ?hostname_cache_init@@YA_NXZ 00482840 f   hostname.obj
 0001:00081930       ?hostname_cache_free@@YAXXZ 00482930 f   hostname.obj
 0001:000819b0       ?inc_host_errors@@YAXPAUin_addr@@@Z 004829b0 f   hostname.obj
 0001:00081a30       ?reset_host_errors@@YAXPAUin_addr@@@Z 00482a30 f   hostname.obj
 0001:00081aa0       ?ip_to_hostname@@YAPADPAUin_addr@@PAI@Z 00482aa0 f   hostname.obj
 0001:00082300       ?clear@hash_filo@@QAEX_N@Z 00483300 f i hostname.obj
 0001:00082430       ??0hash_filo@@QAE@IIIP6APAEPBEPAID@ZP6AXPAX@ZPAUcharset_info_st@@@Z 00483430 f i hostname.obj
 0001:000824c0       ??0host_entry@@QAE@XZ      004834c0 f i hostname.obj
 0001:000824f0       ??0hash_filo_element@@QAE@XZ 004834f0 f i hostname.obj
 0001:00082510       ??_Ghash_filo@@QAEPAXI@Z   00483510 f i hostname.obj
 0001:00082560       ??1hash_filo@@QAE@XZ       00483560 f i hostname.obj
 0001:000825d0       ?search@hash_filo@@QAEPAVhash_filo_element@@PADI@Z 004835d0 f i hostname.obj
 0001:000826b0       ?add@hash_filo@@QAEDPAVhash_filo_element@@@Z 004836b0 f i hostname.obj
 0001:000827c0       ?add_wrong_ip@@YAXPAUin_addr@@@Z 004837c0 f i hostname.obj
 0001:000827e0       ?unireg_init@@YAXK@Z       004837e0 f   init.obj
 0001:00082980       ?fix_length_and_dec@Hybrid_type_traits@@UBEXPAVItem@@0@Z 00483980 f   item.obj
 0001:000829c0       ?instance@Hybrid_type_traits@@SAPBU1@XZ 004839c0 f   item.obj
 0001:000829d0       ?val_decimal@Hybrid_type_traits@@UBEPAVmy_decimal@@PAUHybrid_type@@PAV2@@Z 004839d0 f   item.obj
 0001:00082a20       ?val_str@Hybrid_type_traits@@UBEPAVString@@PAUHybrid_type@@PAV2@E@Z 00483a20 f   item.obj
 0001:00082a60       ?instance@Hybrid_type_traits_decimal@@SAPBU1@XZ 00483a60 f   item.obj
 0001:00082a70       ?fix_length_and_dec@Hybrid_type_traits_decimal@@UBEXPAVItem@@0@Z 00483a70 f   item.obj
 0001:00082ad0       ?set_zero@Hybrid_type_traits_decimal@@UBEXPAUHybrid_type@@@Z 00483ad0 f   item.obj
 0001:00082b10       ?add@Hybrid_type_traits_decimal@@UBEXPAUHybrid_type@@PAVField@@@Z 00483b10 f   item.obj
 0001:00082ba0       ?div@Hybrid_type_traits_decimal@@UBEXPAUHybrid_type@@_K@Z 00483ba0 f   item.obj
 0001:00082c30       ?val_int@Hybrid_type_traits_decimal@@UBE_JPAUHybrid_type@@_N@Z 00483c30 f   item.obj
 0001:00082cc0       ?val_real@Hybrid_type_traits_decimal@@UBENPAUHybrid_type@@@Z 00483cc0 f   item.obj
 0001:00082d10       ?val_str@Hybrid_type_traits_decimal@@UBEPAVString@@PAUHybrid_type@@PAV2@E@Z 00483d10 f   item.obj
 0001:00082d80       ?instance@Hybrid_type_traits_integer@@SAPBU1@XZ 00483d80 f   item.obj
 0001:00082d90       ?fix_length_and_dec@Hybrid_type_traits_integer@@UBEXPAVItem@@0@Z 00483d90 f   item.obj
 0001:00082dc0       ?item_init@@YAXXZ          00483dc0 f   item.obj
 0001:00082de0       ?val_bool@Item@@UAE_NXZ    00483de0 f   item.obj
 0001:00082f50       ?val_string_from_real@Item@@QAEPAVString@@PAV2@@Z 00483f50 f   item.obj
 0001:00082fd0       ?val_string_from_int@Item@@QAEPAVString@@PAV2@@Z 00483fd0 f   item.obj
 0001:00083070       ?val_string_from_decimal@Item@@QAEPAVString@@PAV2@@Z 00484070 f   item.obj
 0001:00083140       ?val_decimal_from_real@Item@@QAEPAVmy_decimal@@PAV2@@Z 00484140 f   item.obj
 0001:000831b0       ?val_decimal_from_int@Item@@QAEPAVmy_decimal@@PAV2@@Z 004841b0 f   item.obj
 0001:00083230       ?val_decimal_from_string@Item@@QAEPAVmy_decimal@@PAV2@@Z 00484230 f   item.obj
 0001:00083310       ?val_decimal_from_date@Item@@QAEPAVmy_decimal@@PAV2@@Z 00484310 f   item.obj
 0001:000833e0       ?val_decimal_from_time@Item@@QAEPAVmy_decimal@@PAV2@@Z 004843e0 f   item.obj
 0001:000834a0       ?val_real_from_decimal@Item@@QAENXZ 004844a0 f   item.obj
 0001:00083560       ?val_int_from_decimal@Item@@QAE_JXZ 00484560 f   item.obj
 0001:00083620       ?save_time_in_field@Item@@QAEHPAVField@@@Z 00484620 f   item.obj
 0001:000836d0       ?save_date_in_field@Item@@QAEHPAVField@@@Z 004846d0 f   item.obj
 0001:00083780       ?save_str_value_in_field@Item@@QAEHPAVField@@PAVString@@@Z 00484780 f   item.obj
 0001:000837f0       ??0Item@@QAE@XZ            004847f0 f   item.obj
 0001:00083940       ??0Item@@QAE@PAVTHD@@PAV0@@Z 00484940 f   item.obj
 0001:00083a40       ?decimal_precision@Item@@UBEIXZ 00484a40 f   item.obj
 0001:00083b10       ?print_item_w_name@Item@@QAEXPAVString@@@Z 00484b10 f   item.obj
 0001:00083ba0       ?cleanup@Item@@UAEXXZ      00484ba0 f   item.obj
 0001:00083cb0       ?cleanup_processor@Item@@UAE_NPAE@Z 00484cb0 f   item.obj
 0001:00083d00       ?rename@Item@@QAEXPAD@Z    00484d00 f   item.obj
 0001:00083d40       ?transform@Item@@UAEPAV1@P81@AEPAV1@PAE@Z0@Z 00484d40 f   item.obj
 0001:00083da0       ??0Item_ident@@QAE@PAUName_resolution_context@@PBD11@Z 00484da0 f   item.obj
 0001:00083e40       ??0Item_ident@@QAE@PAVTHD@@PAV0@@Z 00484e40 f   item.obj
 0001:00083f00       ?cleanup@Item_ident@@UAEXXZ 00484f00 f   item.obj
 0001:00084020       ?remove_dependence_processor@Item_ident@@UAE_NPAE@Z 00485020 f   item.obj
 0001:00084120       ?collect_item_field_processor@Item_field@@UAE_NPAE@Z 00485120 f   item.obj
 0001:000842e0       ?find_item_in_field_list_processor@Item_field@@UAE_NPAE@Z 004852e0 f   item.obj
 0001:00084370       ?check_cols@Item@@UAE_NI@Z 00485370 f   item.obj
 0001:000843b0       ?set_name@Item@@QAEXPBDIPAUcharset_info_st@@@Z 004853b0 f   item.obj
 0001:00084570       ?eq@Item@@UBE_NPBV1@_N@Z   00485570 f   item.obj
 0001:00084620       ?safe_charset_converter@Item@@UAEPAV1@PAUcharset_info_st@@@Z 00485620 f   item.obj
 0001:000846a0       ?safe_charset_converter@Item_num@@UAEPAVItem@@PAUcharset_info_st@@@Z 004856a0 f   item.obj
 0001:000847d0       ?safe_charset_converter@Item_static_float_func@@UAEPAVItem@@PAUcharset_info_st@@@Z 004857d0 f   item.obj
 0001:00084900       ?safe_charset_converter@Item_string@@UAEPAVItem@@PAUcharset_info_st@@@Z 00485900 f   item.obj
 0001:00084a80       ?safe_charset_converter@Item_param@@UAEPAVItem@@PAUcharset_info_st@@@Z 00485a80 f   item.obj
 0001:00084bb0       ?safe_charset_converter@Item_static_string_func@@UAEPAVItem@@PAUcharset_info_st@@@Z 00485bb0 f   item.obj
 0001:00084d40       ?eq@Item_string@@UBE_NPBVItem@@_N@Z 00485d40 f   item.obj
 0001:00084e30       ?get_date@Item@@UAE_NPAUst_mysql_time@@I@Z 00485e30 f   item.obj
 0001:00085020       ?get_time@Item@@UAE_NPAUst_mysql_time@@@Z 00486020 f   item.obj
 0001:00085130       ?default_charset@Item@@SAPAUcharset_info_st@@XZ 00486130 f   item.obj
 0001:00085150       ?save_in_field_no_warnings@Item@@QAEHPAVField@@_N@Z 00486150 f   item.obj
 0001:00085210       ??0Item_sp_variable@@QAE@PADI@Z 00486210 f   item.obj
 0001:00085270       ?fix_fields@Item_sp_variable@@UAE_NPAVTHD@@PAPAVItem@@@Z 00486270 f   item.obj
 0001:00085330       ?val_real@Item_sp_variable@@UAENXZ 00486330 f   item.obj
 0001:000853c0       ?val_int@Item_sp_variable@@UAE_JXZ 004863c0 f   item.obj
 0001:00085460       ?val_str@Item_sp_variable@@UAEPAVString@@PAV2@@Z 00486460 f   item.obj
 0001:00085540       ?val_decimal@Item_sp_variable@@UAEPAVmy_decimal@@PAV2@@Z 00486540 f   item.obj
 0001:000855e0       ?is_null@Item_sp_variable@@UAE_NXZ 004865e0 f   item.obj
 0001:00085640       ??0Item_splocal@@QAE@ABUst_lex_string@@IW4enum_field_types@@II@Z 00486640 f   item.obj
 0001:000856f0       ?this_item@Item_splocal@@UAEPAVItem@@XZ 004866f0 f   item.obj
 0001:00085760       ?this_item@Item_splocal@@UBEPBVItem@@XZ 00486760 f   item.obj
 0001:000857d0       ?this_item_addr@Item_splocal@@UAEPAPAVItem@@PAVTHD@@PAPAV2@@Z 004867d0 f   item.obj
 0001:00085830       ?print@Item_splocal@@UAEXPAVString@@@Z 00486830 f   item.obj
 0001:00085890       ?set_value@Item_splocal@@EAE_NPAVTHD@@PAVsp_rcontext@@PAPAVItem@@@Z 00486890 f   item.obj
 0001:000858d0       ??0Item_case_expr@@QAE@H@Z 004868d0 f   item.obj
 0001:00085920       ?this_item@Item_case_expr@@UAEPAVItem@@XZ 00486920 f   item.obj
 0001:00085990       ?this_item@Item_case_expr@@UBEPBVItem@@XZ 00486990 f   item.obj
 0001:00085a00       ?this_item_addr@Item_case_expr@@UAEPAPAVItem@@PAVTHD@@PAPAV2@@Z 00486a00 f   item.obj
 0001:00085a60       ?print@Item_case_expr@@UAEXPAVString@@@Z 00486a60 f   item.obj
 0001:00085aa0       ?val_real@Item_name_const@@UAENXZ 00486aa0 f   item.obj
 0001:00085b30       ?val_int@Item_name_const@@UAE_JXZ 00486b30 f   item.obj
 0001:00085bc0       ?val_str@Item_name_const@@UAEPAVString@@PAV2@@Z 00486bc0 f   item.obj
 0001:00085c40       ?val_decimal@Item_name_const@@UAEPAVmy_decimal@@PAV2@@Z 00486c40 f   item.obj
 0001:00085cc0       ?is_null@Item_name_const@@UAE_NXZ 00486cc0 f   item.obj
 0001:00085d00       ??0Item_name_const@@QAE@PAVItem@@0@Z 00486d00 f   item.obj
 0001:00085e60       ?type@Item_name_const@@UBE?AW4Type@Item@@XZ 00486e60 f   item.obj
 0001:00085f50       ?fix_fields@Item_name_const@@UAE_NPAVTHD@@PAPAVItem@@@Z 00486f50 f   item.obj
 0001:00086180       ?print@Item_name_const@@UAEXPAVString@@@Z 00487180 f   item.obj
 0001:00086210       ?split_sum_func2@Item@@QAEXPAVTHD@@PAPAV1@AAV?$List@VItem@@@@1_N@Z 00487210 f   item.obj
 0001:00086480       ?aggregate@DTCollation@@QAE_NAAV1@I@Z 00487480 f   item.obj
 0001:00086720       ?agg_item_collations@@YA_NAAVDTCollation@@PBDPAPAVItem@@IIH@Z 00487720 f   item.obj
 0001:00086930       ?agg_item_collations_for_comparison@@YA_NAAVDTCollation@@PBDPAPAVItem@@II@Z 00487930 f   item.obj
 0001:00086960       ?agg_item_charsets@@YA_NAAVDTCollation@@PBDPAPAVItem@@IIH@Z 00487960 f   item.obj
 0001:00086c30       ?make_field@Item_ident_for_show@@UAEXPAVSend_field@@@Z 00487c30 f   item.obj
 0001:00086d50       ??0Item_field@@QAE@PAVField@@@Z 00487d50 f   item.obj
 0001:00086df0       ??0Item_field@@QAE@PAVTHD@@PAUName_resolution_context@@PAVField@@@Z 00487df0 f   item.obj
 0001:00086f00       ??0Item_field@@QAE@PAUName_resolution_context@@PBD11@Z 00487f00 f   item.obj
 0001:00086fe0       ??0Item_field@@QAE@PAVTHD@@PAV0@@Z 00487fe0 f   item.obj
 0001:00087090       ?set_field@Item_field@@IAEXPAVField@@@Z 00488090 f   item.obj
 0001:000871d0       ?reset_field@Item_field@@QAEXPAVField@@@Z 004881d0 f   item.obj
 0001:00087210       ?full_name@Item_ident@@UBEPBDXZ 00488210 f   item.obj
 0001:00087380       ?print@Item_ident@@UAEXPAVString@@@Z 00488380 f   item.obj
 0001:00087740       ?val_str@Item_field@@UAEPAVString@@PAV2@@Z 00488740 f   item.obj
 0001:000877e0       ?val_real@Item_field@@UAENXZ 004887e0 f   item.obj
 0001:00087870       ?val_int@Item_field@@UAE_JXZ 00488870 f   item.obj
 0001:000878f0       ?val_decimal@Item_field@@UAEPAVmy_decimal@@PAV2@@Z 004888f0 f   item.obj
 0001:00087950       ?str_result@Item_field@@UAEPAVString@@PAV2@@Z 00488950 f   item.obj
 0001:000879d0       ?get_date@Item_field@@UAE_NPAUst_mysql_time@@I@Z 004889d0 f   item.obj
 0001:00087a60       ?get_date_result@Item_field@@UAE_NPAUst_mysql_time@@I@Z 00488a60 f   item.obj
 0001:00087af0       ?get_time@Item_field@@UAE_NPAUst_mysql_time@@@Z 00488af0 f   item.obj
 0001:00087b70       ?val_result@Item_field@@UAENXZ 00488b70 f   item.obj
 0001:00087bd0       ?val_int_result@Item_field@@UAE_JXZ 00488bd0 f   item.obj
 0001:00087c30       ?val_decimal_result@Item_field@@UAEPAVmy_decimal@@PAV2@@Z 00488c30 f   item.obj
 0001:00087c90       ?val_bool_result@Item_field@@UAE_NXZ 00488c90 f   item.obj
 0001:00087e40       ?eq@Item_field@@UBE_NPBVItem@@_N@Z 00488e40 f   item.obj
 0001:00087fa0       ?used_tables@Item_field@@UBE_KXZ 00488fa0 f   item.obj
 0001:00088020       ?get_tmp_table_item@Item_field@@UAEPAVItem@@PAVTHD@@@Z 00489020 f   item.obj
 0001:000880a0       ??0Item_int@@QAE@PBDI@Z    004890a0 f   item.obj
 0001:00088170       ?val_decimal@Item_int@@UAEPAVmy_decimal@@PAV2@@Z 00489170 f   item.obj
 0001:000881c0       ?val_str@Item_int@@UAEPAVString@@PAV2@@Z 004891c0 f   item.obj
 0001:00088220       ?print@Item_int@@UAEXPAVString@@@Z 00489220 f   item.obj
 0001:00088270       ??0Item_uint@@QAE@PBDI@Z   00489270 f   item.obj
 0001:000882c0       ??0Item_uint@@QAE@PBD_JI@Z 004892c0 f   item.obj
 0001:00088310       ?val_str@Item_uint@@UAEPAVString@@PAV2@@Z 00489310 f   item.obj
 0001:00088370       ?print@Item_uint@@UAEXPAVString@@@Z 00489370 f   item.obj
 0001:000883c0       ??0Item_decimal@@QAE@PBDIPAUcharset_info_st@@@Z 004893c0 f   item.obj
 0001:00088470       ??0Item_decimal@@QAE@_J_N@Z 00489470 f   item.obj
 0001:00088510       ??0Item_decimal@@QAE@NHH@Z 00489510 f   item.obj
 0001:000885b0       ??0Item_decimal@@QAE@PBDPBVmy_decimal@@II@Z 004895b0 f   item.obj
 0001:00088630       ??0Item_decimal@@QAE@PAVmy_decimal@@@Z 00489630 f   item.obj
 0001:000886d0       ??0Item_decimal@@QAE@PBDHH@Z 004896d0 f   item.obj
 0001:00088770       ?val_int@Item_decimal@@UAE_JXZ 00489770 f   item.obj
 0001:000887f0       ?val_real@Item_decimal@@UAENXZ 004897f0 f   item.obj
 0001:00088860       ?val_str@Item_decimal@@UAEPAVString@@PAV2@@Z 00489860 f   item.obj
 0001:000888b0       ?print@Item_decimal@@UAEXPAVString@@@Z 004898b0 f   item.obj
 0001:00088900       ?eq@Item_decimal@@UBE_NPBVItem@@_N@Z 00489900 f   item.obj
 0001:000889c0       ?set_decimal_value@Item_decimal@@QAEXPAVmy_decimal@@@Z 004899c0 f   item.obj
 0001:00088a50       ?val_str@Item_float@@UAEPAVString@@PAV2@@Z 00489a50 f   item.obj
 0001:00088ac0       ?val_decimal@Item_float@@UAEPAVmy_decimal@@PAV2@@Z 00489ac0 f   item.obj
 0001:00088b20       ?print@Item_string@@UAEXPAVString@@@Z 00489b20 f   item.obj
 0001:00088b80       ?val_real@Item_string@@UAENXZ 00489b80 f   item.obj
 0001:00088d10       ?val_int@Item_string@@UAE_JXZ 00489d10 f   item.obj
 0001:00088e60       ?val_decimal@Item_string@@UAEPAVmy_decimal@@PAV2@@Z 00489e60 f   item.obj
 0001:00088e90       ?eq@Item_null@@UBE_NPBVItem@@_N@Z 00489e90 f   item.obj
 0001:00088ef0       ?val_real@Item_null@@UAENXZ 00489ef0 f   item.obj
 0001:00088f40       ?val_int@Item_null@@UAE_JXZ 00489f40 f   item.obj
 0001:00088f90       ?val_str@Item_null@@UAEPAVString@@PAV2@@Z 00489f90 f   item.obj
 0001:00088fe0       ?val_decimal@Item_null@@UAEPAVmy_decimal@@PAV2@@Z 00489fe0 f   item.obj
 0001:00089000       ?safe_charset_converter@Item_null@@UAEPAVItem@@PAUcharset_info_st@@@Z 0048a000 f   item.obj
 0001:00089030       ??0Item_param@@QAE@I@Z     0048a030 f   item.obj
 0001:00089190       ?set_null@Item_param@@QAEXXZ 0048a190 f   item.obj
 0001:000892a0       ?set_int@Item_param@@QAEX_JK@Z 0048a2a0 f   item.obj
 0001:000893c0       ?set_double@Item_param@@QAEXN@Z 0048a3c0 f   item.obj
 0001:000894e0       ?set_decimal@Item_param@@QAEXPBDK@Z 0048a4e0 f   item.obj
 0001:00089650       ?set_time@Item_param@@QAEXPAUst_mysql_time@@W4enum_mysql_timestamp_type@@K@Z 0048a650 f   item.obj
 0001:00089840       ?set_str@Item_param@@QAE_NPBDK@Z 0048a840 f   item.obj
 0001:000899a0       ?set_longdata@Item_param@@QAE_NPBDK@Z 0048a9a0 f   item.obj
 0001:00089ae0       ?set_from_user_var@Item_param@@QAE_NPAVTHD@@PBVuser_var_entry@@@Z 0048aae0 f   item.obj
 0001:00089e80       ?reset@Item_param@@QAEXXZ  0048ae80 f   item.obj
 0001:00089fe0       ?save_in_field@Item_param@@UAEHPAVField@@_N@Z 0048afe0 f   item.obj
 0001:0008a170       ?get_time@Item_param@@UAE_NPAUst_mysql_time@@@Z 0048b170 f   item.obj
 0001:0008a1d0       ?get_date@Item_param@@UAE_NPAUst_mysql_time@@I@Z 0048b1d0 f   item.obj
 0001:0008a230       ?val_real@Item_param@@UAENXZ 0048b230 f   item.obj
 0001:0008a3d0       ?val_int@Item_param@@UAE_JXZ 0048b3d0 f   item.obj
 0001:0008a570       ?val_decimal@Item_param@@UAEPAVmy_decimal@@PAV2@@Z 0048b570 f   item.obj
 0001:0008a6b0       ?val_str@Item_param@@UAEPAVString@@PAV2@@Z 0048b6b0 f   item.obj
 0001:0008a810       ?query_val_str@Item_param@@QBEPBVString@@PAV2@@Z 0048b810 f   item.obj
 0001:0008a9f0       ?convert_str_value@Item_param@@QAE_NPAVTHD@@@Z 0048b9f0 f   item.obj
 0001:0008aaf0       ?basic_const_item@Item_param@@UBE_NXZ 0048baf0 f   item.obj
 0001:0008ab20       ?clone_item@Item_param@@UAEPAVItem@@XZ 0048bb20 f   item.obj
 0001:0008ad40       ?eq@Item_param@@UBE_NPBVItem@@_N@Z 0048bd40 f   item.obj
 0001:0008af20       ?print@Item_param@@UAEXPAVString@@@Z 0048bf20 f   item.obj
 0001:0008aff0       ?copy@Item_copy_string@@QAEXXZ 0048bff0 f   item.obj
 0001:0008b070       ?val_str@Item_copy_string@@UAEPAVString@@PAV2@@Z 0048c070 f   item.obj
 0001:0008b0a0       ?val_decimal@Item_copy_string@@UAEPAVmy_decimal@@PAV2@@Z 0048c0a0 f   item.obj
 0001:0008b0f0       ?fix_fields@Item@@UAE_NPAVTHD@@PAPAV1@@Z 0048c0f0 f   item.obj
 0001:0008b160       ?val_real@Item_ref_null_helper@@UAENXZ 0048c160 f   item.obj
 0001:0008b220       ?val_int@Item_ref_null_helper@@UAE_JXZ 0048c220 f   item.obj
 0001:0008b2e0       ?val_decimal@Item_ref_null_helper@@UAEPAVmy_decimal@@PAV2@@Z 0048c2e0 f   item.obj
 0001:0008b390       ?val_bool@Item_ref_null_helper@@UAE_NXZ 0048c390 f   item.obj
 0001:0008b440       ?val_str@Item_ref_null_helper@@UAEPAVString@@PAV2@@Z 0048c440 f   item.obj
 0001:0008b4f0       ?get_date@Item_ref_null_helper@@UAE_NPAUst_mysql_time@@I@Z 0048c4f0 f   item.obj
 0001:0008b580       ?mark_select_range_as_dependent@@YAXPAVTHD@@PAVst_select_lex@@1PAVField@@PAVItem@@PAVItem_ident@@@Z 0048c580 f   item.obj
 0001:0008b8a0       ?fix_outer_field@Item_field@@QAEHPAVTHD@@PAPAVField@@PAPAVItem@@@Z 0048c8a0 f   item.obj
 0001:0008c840       ?fix_fields@Item_field@@UAE_NPAVTHD@@PAPAVItem@@@Z 0048d840 f   item.obj
 0001:0008cef0       ?safe_charset_converter@Item_field@@UAEPAVItem@@PAUcharset_info_st@@@Z 0048def0 f   item.obj
 0001:0008cf30       ?cleanup@Item_field@@UAEXXZ 0048df30 f   item.obj
 0001:0008d040       ?find_item_equal@Item_field@@QAEPAVItem_equal@@PAVCOND_EQUAL@@@Z 0048e040 f   item.obj
 0001:0008d100       ?subst_argument_checker@Item_field@@UAE_NPAPAE@Z 0048e100 f   item.obj
 0001:0008d160       ?equal_fields_propagator@Item_field@@UAEPAVItem@@PAE@Z 0048e160 f   item.obj
 0001:0008d4d0       ?set_no_const_sub@Item_field@@UAE_NPAE@Z 0048e4d0 f   item.obj
 0001:0008d530       ?replace_equal_field@Item_field@@UAEPAVItem@@PAE@Z 0048e530 f   item.obj
 0001:0008d5f0       ?init_make_field@Item@@QAEXPAVSend_field@@W4enum_field_types@@@Z 0048e5f0 f   item.obj
 0001:0008d6c0       ?make_field@Item@@UAEXPAVSend_field@@@Z 0048e6c0 f   item.obj
 0001:0008d710       ?make_field@Item_empty_string@@UAEXPAVSend_field@@@Z 0048e710 f   item.obj
 0001:0008d780       ?field_type@Item@@UBE?AW4enum_field_types@@XZ 0048e780 f   item.obj
 0001:0008d820       ?is_datetime@Item@@QAE_NXZ 0048e820 f   item.obj
 0001:0008d880       ?check_well_formed_result@Item@@QAEPAVString@@PAV2@_N@Z 0048e880 f   item.obj
 0001:0008da40       ?eq_by_collation@Item@@QAE_NPAV1@_NPAUcharset_info_st@@@Z 0048ea40 f   item.obj
 0001:0008db00       ?make_string_field@Item@@QAEPAVField@@PAUst_table@@@Z 0048eb00 f   item.obj
 0001:0008dca0       ?tmp_table_field_from_field_type@Item@@QAEPAVField@@PAUst_table@@@Z 0048eca0 f   item.obj
 0001:0008e410       ?make_field@Item_field@@UAEXPAVSend_field@@@Z 0048f410 f   item.obj
 0001:0008e4b0       ?save_org_in_field@Item_field@@UAEXPAVField@@@Z 0048f4b0 f   item.obj
 0001:0008e520       ?save_in_field@Item_field@@UAEHPAVField@@_N@Z 0048f520 f   item.obj
 0001:0008e5b0       ?save_in_field@Item_null@@UAEHPAVField@@_N@Z 0048f5b0 f   item.obj
 0001:0008e5e0       ?save_safe_in_field@Item_null@@UAEHPAVField@@@Z 0048f5e0 f   item.obj
 0001:0008e610       ?save_in_field@Item@@UAEHPAVField@@_N@Z 0048f610 f   item.obj
 0001:0008e940       ?save_in_field@Item_string@@UAEHPAVField@@_N@Z 0048f940 f   item.obj
 0001:0008e9a0       ?save_in_field@Item_uint@@UAEHPAVField@@_N@Z 0048f9a0 f   item.obj
 0001:0008e9d0       ?save_in_field@Item_int@@UAEHPAVField@@_N@Z 0048f9d0 f   item.obj
 0001:0008ea70       ?save_in_field@Item_decimal@@UAEHPAVField@@_N@Z 0048fa70 f   item.obj
 0001:0008eac0       ?eq@Item_int@@UBE_NPBVItem@@_N@Z 0048fac0 f   item.obj
 0001:0008ebb0       ?clone_item@Item_int_with_ref@@UAEPAVItem@@XZ 0048fbb0 f   item.obj
 0001:0008ecf0       ?neg@Item_uint@@UAEPAVItem_num@@XZ 0048fcf0 f   item.obj
 0001:0008ed70       ??0Item_float@@QAE@PBDI@Z  0048fd70 f   item.obj
 0001:0008ef60       ?save_in_field@Item_float@@UAEHPAVField@@_N@Z 0048ff60 f   item.obj
 0001:0008eff0       ?print@Item_float@@UAEXPAVString@@@Z 0048fff0 f   item.obj
 0001:0008f0d0       ?eq@Item_float@@UBE_NPBVItem@@_N@Z 004900d0 f   item.obj
 0001:0008f190       ??0Item_hex_string@@QAE@PBDI@Z 00490190 f   item.obj
 0001:0008f2d0       ?val_int@Item_hex_string@@UAE_JXZ 004902d0 f   item.obj
 0001:0008f3c0       ?val_decimal@Item_hex_string@@UAEPAVmy_decimal@@PAV2@@Z 004903c0 f   item.obj
 0001:0008f450       ?save_in_field@Item_hex_string@@UAEHPAVField@@_N@Z 00490450 f   item.obj
 0001:0008f5d0       ?print@Item_hex_string@@UAEXPAVString@@@Z 004905d0 f   item.obj
 0001:0008f6a0       ?eq@Item_hex_string@@UBE_NPBVItem@@_N@Z 004906a0 f   item.obj
 0001:0008f760       ?safe_charset_converter@Item_hex_string@@UAEPAVItem@@PAUcharset_info_st@@@Z 00490760 f   item.obj
 0001:0008f870       ??0Item_bin_string@@QAE@PBDI@Z 00490870 f   item.obj
 0001:0008f9c0       ?send@Item_null@@UAE_NPAVProtocol@@PAVString@@@Z 004909c0 f   item.obj
 0001:0008fa00       ?send@Item@@UAE_NPAVProtocol@@PAVString@@@Z 00490a00 f   item.obj
 0001:0008fdf0       ?send@Item_field@@UAE_NPAVProtocol@@PAVString@@@Z 00490df0 f   item.obj
 0001:0008fe30       ?update_null_value@Item_field@@UAEXXZ 00490e30 f   item.obj
 0001:0008fea0       ?update_value_transformer@Item_field@@UAEPAVItem@@PAE@Z 00490ea0 f   item.obj
 0001:0008ffd0       ?print@Item_field@@UAEXPAVString@@@Z 00490fd0 f   item.obj
 0001:000900e0       ??0Item_ref@@QAE@PAUName_resolution_context@@PAPAVItem@@PBD2_N@Z 004910e0 f   item.obj
 0001:00090170       ?fix_fields@Item_ref@@UAE_NPAVTHD@@PAPAVItem@@@Z 00491170 f   item.obj
 0001:00090990       ?set_properties@Item_ref@@IAEXXZ 00491990 f   item.obj
 0001:00090a70       ?cleanup@Item_ref@@UAEXXZ  00491a70 f   item.obj
 0001:00090b60       ?print@Item_ref@@UAEXPAVString@@@Z 00491b60 f   item.obj
 0001:00090c60       ?send@Item_ref@@UAE_NPAVProtocol@@PAVString@@@Z 00491c60 f   item.obj
 0001:00090cd0       ?val_result@Item_ref@@UAENXZ 00491cd0 f   item.obj
 0001:00090d50       ?val_int_result@Item_ref@@UAE_JXZ 00491d50 f   item.obj
 0001:00090dd0       ?str_result@Item_ref@@UAEPAVString@@PAV2@@Z 00491dd0 f   item.obj
 0001:00090e70       ?val_decimal_result@Item_ref@@UAEPAVmy_decimal@@PAV2@@Z 00491e70 f   item.obj
 0001:00090f00       ?val_bool_result@Item_ref@@UAE_NXZ 00491f00 f   item.obj
 0001:000910d0       ?val_real@Item_ref@@UAENXZ 004920d0 f   item.obj
 0001:00091160       ?val_int@Item_ref@@UAE_JXZ 00492160 f   item.obj
 0001:000911f0       ?val_bool@Item_ref@@UAE_NXZ 004921f0 f   item.obj
 0001:00091270       ?val_str@Item_ref@@UAEPAVString@@PAV2@@Z 00492270 f   item.obj
 0001:000912f0       ?is_null@Item_ref@@UAE_NXZ 004922f0 f   item.obj
 0001:00091360       ?get_date@Item_ref@@UAE_NPAUst_mysql_time@@I@Z 00492360 f   item.obj
 0001:000913c0       ?val_decimal@Item_ref@@UAEPAVmy_decimal@@PAV2@@Z 004923c0 f   item.obj
 0001:00091430       ?save_in_field@Item_ref@@UAEHPAVField@@_N@Z 00492430 f   item.obj
 0001:000914c0       ?save_org_in_field@Item_ref@@UAEXPAVField@@@Z 004924c0 f   item.obj
 0001:00091510       ?make_field@Item_ref@@UAEXPAVSend_field@@@Z 00492510 f   item.obj
 0001:00091590       ?get_tmp_table_item@Item_ref@@UAEPAVItem@@PAVTHD@@@Z 00492590 f   item.obj
 0001:00091650       ?print@Item_ref_null_helper@@UAEXPAVString@@@Z 00492650 f   item.obj
 0001:000916d0       ?val_real@Item_direct_ref@@UAENXZ 004926d0 f   item.obj
 0001:00091740       ?val_int@Item_direct_ref@@UAE_JXZ 00492740 f   item.obj
 0001:000917b0       ?val_str@Item_direct_ref@@UAEPAVString@@PAV2@@Z 004927b0 f   item.obj
 0001:00091810       ?val_decimal@Item_direct_ref@@UAEPAVmy_decimal@@PAV2@@Z 00492810 f   item.obj
 0001:00091880       ?val_bool@Item_direct_ref@@UAE_NXZ 00492880 f   item.obj
 0001:000918e0       ?is_null@Item_direct_ref@@UAE_NXZ 004928e0 f   item.obj
 0001:00091920       ?get_date@Item_direct_ref@@UAE_NPAUst_mysql_time@@I@Z 00492920 f   item.obj
 0001:00091980       ?fix_fields@Item_direct_view_ref@@UAE_NPAVTHD@@PAPAVItem@@@Z 00492980 f   item.obj
 0001:00091a20       ?fix_fields@Item_outer_ref@@UAE_NPAVTHD@@PAPAVItem@@@Z 00492a20 f   item.obj
 0001:00091b00       ?eq@Item_direct_view_ref@@UBE_NPBVItem@@_N@Z 00492b00 f   item.obj
 0001:00091bc0       ?eq@Item_default_value@@UBE_NPBVItem@@_N@Z 00492bc0 f   item.obj
 0001:00091c50       ?fix_fields@Item_default_value@@UAE_NPAVTHD@@PAPAVItem@@@Z 00492c50 f   item.obj
 0001:00091e50       ?print@Item_default_value@@UAEXPAVString@@@Z 00492e50 f   item.obj
 0001:00091ed0       ?save_in_field@Item_default_value@@UAEHPAVField@@_N@Z 00492ed0 f   item.obj
 0001:00092010       ?transform@Item_default_value@@UAEPAVItem@@P82@AEPAV2@PAE@Z0@Z 00493010 f   item.obj
 0001:000920e0       ?eq@Item_insert_value@@UBE_NPBVItem@@_N@Z 004930e0 f   item.obj
 0001:00092170       ?fix_fields@Item_insert_value@@UAE_NPAVTHD@@PAPAVItem@@@Z 00493170 f   item.obj
 0001:00092430       ?print@Item_insert_value@@UAEXPAVString@@@Z 00493430 f   item.obj
 0001:00092490       ?setup_field@Item_trigger_field@@QAEXPAVTHD@@PAUst_table@@PAUst_grant_info@@@Z 00493490 f   item.obj
 0001:00092520       ?eq@Item_trigger_field@@UBE_NPBVItem@@_N@Z 00493520 f   item.obj
 0001:000925c0       ?set_required_privilege@Item_trigger_field@@EAEX_N@Z 004935c0 f   item.obj
 0001:000925f0       ?set_value@Item_trigger_field@@EAE_NPAVTHD@@PAVsp_rcontext@@PAPAVItem@@@Z 004935f0 f   item.obj
 0001:000926b0       ?fix_fields@Item_trigger_field@@UAE_NPAVTHD@@PAPAVItem@@@Z 004936b0 f   item.obj
 0001:00092850       ?print@Item_trigger_field@@UAEXPAVString@@@Z 00493850 f   item.obj
 0001:000928c0       ?cleanup@Item_trigger_field@@UAEXXZ 004938c0 f   item.obj
 0001:00092900       ?item_cmp_type@@YA?AW4Item_result@@W41@0@Z 00493900 f   item.obj
 0001:00092960       ?resolve_const_item@@YAXPAVTHD@@PAPAVItem@@PAV2@@Z 00493960 f   item.obj
 0001:000930a0       ?field_is_equal_to_item@@YA_NPAVField@@PAVItem@@@Z 004940a0 f   item.obj
 0001:000933a0       ?get_cache@Item_cache@@SAPAV1@PBVItem@@@Z 004943a0 f   item.obj
 0001:00093510       ?print@Item_cache@@UAEXPAVString@@@Z 00494510 f   item.obj
 0001:00093590       ?store@Item_cache_int@@UAEXPAVItem@@@Z 00494590 f   item.obj
 0001:000935f0       ?store@Item_cache_int@@QAEXPAVItem@@_J@Z 004945f0 f   item.obj
 0001:00093630       ?val_str@Item_cache_int@@UAEPAVString@@PAV2@@Z 00494630 f   item.obj
 0001:00093690       ?val_decimal@Item_cache_int@@UAEPAVmy_decimal@@PAV2@@Z 00494690 f   item.obj
 0001:00093700       ?store@Item_cache_real@@UAEXPAVItem@@@Z 00494700 f   item.obj
 0001:00093750       ?val_int@Item_cache_real@@UAE_JXZ 00494750 f   item.obj
 0001:000937b0       ?val_str@Item_cache_real@@UAEPAVString@@PAV2@@Z 004947b0 f   item.obj
 0001:00093820       ?val_decimal@Item_cache_real@@UAEPAVmy_decimal@@PAV2@@Z 00494820 f   item.obj
 0001:00093880       ?store@Item_cache_decimal@@UAEXPAVItem@@@Z 00494880 f   item.obj
 0001:00093900       ?val_real@Item_cache_decimal@@UAENXZ 00494900 f   item.obj
 0001:00093990       ?val_int@Item_cache_decimal@@UAE_JXZ 00494990 f   item.obj
 0001:00093a30       ?val_str@Item_cache_decimal@@UAEPAVString@@PAV2@@Z 00494a30 f   item.obj
 0001:00093ab0       ?val_decimal@Item_cache_decimal@@UAEPAVmy_decimal@@PAV2@@Z 00494ab0 f   item.obj
 0001:00093b00       ?store@Item_cache_str@@UAEXPAVItem@@@Z 00494b00 f   item.obj
 0001:00093bd0       ?val_real@Item_cache_str@@UAENXZ 00494bd0 f   item.obj
 0001:00093ce0       ?val_int@Item_cache_str@@UAE_JXZ 00494ce0 f   item.obj
 0001:00093dc0       ?val_decimal@Item_cache_str@@UAEPAVmy_decimal@@PAV2@@Z 00494dc0 f   item.obj
 0001:00093e40       ?save_in_field@Item_cache_str@@UAEHPAVField@@_N@Z 00494e40 f   item.obj
 0001:00093ee0       ?allocate@Item_cache_row@@UAE_NI@Z 00494ee0 f   item.obj
 0001:00093f40       ?setup@Item_cache_row@@UAE_NPAVItem@@@Z 00494f40 f   item.obj
 0001:00094050       ?store@Item_cache_row@@UAEXPAVItem@@@Z 00495050 f   item.obj
 0001:00094120       ?illegal_method_call@Item_cache_row@@QAEXPBD@Z 00495120 f   item.obj
 0001:00094260       ?check_cols@Item_cache_row@@UAE_NI@Z 00495260 f   item.obj
 0001:000942b0       ?null_inside@Item_cache_row@@UAE_NXZ 004952b0 f   item.obj
 0001:000943b0       ?bring_value@Item_cache_row@@UAEXXZ 004953b0 f   item.obj
 0001:00094420       ??0Item_type_holder@@QAE@PAVTHD@@PAVItem@@@Z 00495420 f   item.obj
 0001:00094530       ?result_type@Item_type_holder@@UBE?AW4Item_result@@XZ 00495530 f   item.obj
 0001:00094560       ?get_real_type@Item_type_holder@@SA?AW4enum_field_types@@PAVItem@@@Z 00495560 f   item.obj
 0001:00094710       ?join_types@Item_type_holder@@QAE_NPAVTHD@@PAVItem@@@Z 00495710 f   item.obj
 0001:00094d20       ?display_length@Item_type_holder@@SAKPAVItem@@@Z 00495d20 f   item.obj
 0001:00094e40       ?make_field_by_type@Item_type_holder@@QAEPAVField@@PAUst_table@@@Z 00495e40 f   item.obj
 0001:00094ff0       ?get_full_info@Item_type_holder@@IAEXPAVItem@@@Z 00495ff0 f   item.obj
 0001:00095130       ?val_real@Item_type_holder@@UAENXZ 00496130 f   item.obj
 0001:00095170       ?val_int@Item_type_holder@@UAE_JXZ 00496170 f   item.obj
 0001:000951b0       ?val_decimal@Item_type_holder@@UAEPAVmy_decimal@@PAV2@@Z 004961b0 f   item.obj
 0001:000951f0       ?val_str@Item_type_holder@@UAEPAVString@@PAV2@@Z 004961f0 f   item.obj
 0001:00095230       ?cleanup@Item_result_field@@UAEXXZ 00496230 f   item.obj
 0001:00095320       ?dummy_error_processor@@YAXPAVTHD@@PAX@Z 00496320 f   item.obj
 0001:00095330       ?view_error_processor@@YAXPAVTHD@@PAX@Z 00496330 f   item.obj
 0001:00099dc0       ?float_length@Item@@QBEII@Z 0049adc0 f i item.obj
 0001:00099e10       ?my_decimal_add@@YAHIPAVmy_decimal@@PBV1@1@Z 0049ae10 f i item.obj
 0001:00099e50       ?my_decimal_div@@YAHIPAVmy_decimal@@PBV1@1H@Z 0049ae50 f i item.obj
 0001:00099ea0       ?my_decimal_round@@YAHIPBVmy_decimal@@H_NPAV1@@Z 0049aea0 f i item.obj
 0001:00099ef0       ?my_decimal_is_zero@@YA_NPBVmy_decimal@@@Z 0049aef0 f i item.obj
 0001:00099f20       ??0DTCollation@@QAE@PAUcharset_info_st@@W4Derivation@@@Z 0049af20 f i item.obj
 0001:00099f70       ?set_repertoire_from_charset@DTCollation@@QAEXPAUcharset_info_st@@@Z 0049af70 f i item.obj
 0001:00099fb0       ??0String@@QAE@ABV0@@Z     0049afb0 f i item.obj
 0001:0009a010       ?is_stmt_prepare@Query_arena@@QBE_NXZ 0049b010 f i item.obj
 0001:0009a040       ?change_context_processor@Item_ident@@UAE_NPAE@Z 0049b040 f i item.obj
 0001:0009a070       ??_EItem_ident@@UAEPAXI@Z  0049b070 f i item.obj
 0001:0009a070       ??_GItem_ident@@UAEPAXI@Z  0049b070 f i item.obj
 0001:0009a0c0       ??1Item_ident@@UAE@XZ      0049b0c0 f i item.obj
 0001:0009a0f0       ??0Item_func_conv_charset@@QAE@PAVItem@@PAUcharset_info_st@@_N@Z 0049b0f0 f i item.obj
 0001:0009a360       ?mark_as_const@String@@QAEXXZ 0049b360 f i item.obj
 0001:0009a390       ?get_tmp_table_field@Item_result_field@@UAEPAVField@@XZ 0049b390 f i item.obj
 0001:0009a3b0       ?set_result_field@Item_result_field@@UAEXPAVField@@@Z 0049b3b0 f i item.obj
 0001:0009a3e0       ?is_result_field@Item_result_field@@UAE_NXZ 0049b3e0 f i item.obj
 0001:0009a400       ?save_in_result_field@Item_result_field@@UAEX_N@Z 0049b400 f i item.obj
 0001:0009a450       ?type@Item_func@@UBE?AW4Type@Item@@XZ 0049b450 f i item.obj
 0001:0009a470       ?functype@Item_func@@UBE?AW4Functype@1@XZ 0049b470 f i item.obj
 0001:0009a490       ?select_optimize@Item_func@@UBE?AW4optimize_type@1@XZ 0049b490 f i item.obj
 0001:0009a4b0       ?have_rev_func@Item_func@@UBE_NXZ 0049b4b0 f i item.obj
 0001:0009a4d0       ?key_item@Item_func@@UBEPAVItem@@XZ 0049b4d0 f i item.obj
 0001:0009a4f0       ?const_item@Item_func@@UBE_NXZ 0049b4f0 f i item.obj
 0001:0009a510       ?is_null@Item_func@@UAE_NXZ 0049b510 f i item.obj
 0001:0009a560       ?is_expensive@Item_func@@UAE_NXZ 0049b560 f i item.obj
 0001:0009a580       ??0Item_str_func@@QAE@PAVItem@@@Z 0049b580 f i item.obj
 0001:0009a5d0       ??0Item_func@@QAE@PAVItem@@@Z 0049b5d0 f i item.obj
 0001:0009a660       ??0Item_result_field@@QAE@XZ 0049b660 f i item.obj
 0001:0009a6b0       ?tmp_table_field@Item_result_field@@UAEPAVField@@PAUst_table@@@Z 0049b6b0 f i item.obj
 0001:0009a6d0       ?used_tables@Item_result_field@@UBE_KXZ 0049b6d0 f i item.obj
 0001:0009a6f0       ??_GItem_result_field@@UAEPAXI@Z 0049b6f0 f i item.obj
 0001:0009a6f0       ??_EItem_result_field@@UAEPAXI@Z 0049b6f0 f i item.obj
 0001:0009a740       ??1Item_result_field@@UAE@XZ 0049b740 f i item.obj
 0001:0009a780       ??_EItem_func@@UAEPAXI@Z   0049b780 f i item.obj
 0001:0009a780       ??_GItem_func@@UAEPAXI@Z   0049b780 f i item.obj
 0001:0009a7e0       ??1Item_func@@UAE@XZ       0049b7e0 f i item.obj
 0001:0009a810       ?result_type@Item_str_func@@UBE?AW4Item_result@@XZ 0049b810 f i item.obj
 0001:0009a830       ??_EItem_str_func@@UAEPAXI@Z 0049b830 f i item.obj
 0001:0009a830       ??_GItem_str_func@@UAEPAXI@Z 0049b830 f i item.obj
 0001:0009a890       ??1Item_str_func@@UAE@XZ   0049b890 f i item.obj
 0001:0009a8c0       ?func_name@Item_func_conv_charset@@UBEPBDXZ 0049b8c0 f i item.obj
 0001:0009a8e0       ??_EItem_func_conv_charset@@UAEPAXI@Z 0049b8e0 f i item.obj
 0001:0009a8e0       ??_GItem_func_conv_charset@@UAEPAXI@Z 0049b8e0 f i item.obj
 0001:0009a940       ??1Item_func_conv_charset@@UAE@XZ 0049b940 f i item.obj
 0001:0009a970       ??0Item_static_string_func@@QAE@PBD0IPAUcharset_info_st@@W4Derivation@@@Z 0049b970 f i item.obj
 0001:0009a9e0       ?print@Item_static_string_func@@UAEXPAVString@@@Z 0049b9e0 f i item.obj
 0001:0009aa20       ??_EItem_static_string_func@@UAEPAXI@Z 0049ba20 f i item.obj
 0001:0009aa20       ??_GItem_static_string_func@@UAEPAXI@Z 0049ba20 f i item.obj
 0001:0009aa70       ??1Item_static_string_func@@UAE@XZ 0049ba70 f i item.obj
 0001:0009aaa0       ?make_field@Item_sp_variable@@UAEXPAVSend_field@@@Z 0049baa0 f i item.obj
 0001:0009ab80       ?const_item@Item_sp_variable@@UBE_NXZ 0049bb80 f i item.obj
 0001:0009aba0       ?save_in_field@Item_sp_variable@@UAEHPAVField@@_N@Z 0049bba0 f i item.obj
 0001:0009ac20       ?send@Item_sp_variable@@UAE_NPAVProtocol@@PAVString@@@Z 0049bc20 f i item.obj
 0001:0009aca0       ??_EItem_sp_variable@@UAEPAXI@Z 0049bca0 f i item.obj
 0001:0009aca0       ??_GItem_sp_variable@@UAEPAXI@Z 0049bca0 f i item.obj
 0001:0009acf0       ??1Item_sp_variable@@UAE@XZ 0049bcf0 f i item.obj
 0001:0009ad20       ?set@DTCollation@@QAEXPAUcharset_info_st@@W4Derivation@@@Z 0049bd20 f i item.obj
 0001:0009ad70       ??0Settable_routine_parameter@@QAE@XZ 0049bd70 f i item.obj
 0001:0009ada0       ?set_required_privilege@Settable_routine_parameter@@UAEX_N@Z 0049bda0 f i item.obj
 0001:0009adc0       ??_ESettable_routine_parameter@@UAEPAXI@Z 0049bdc0 f i item.obj
 0001:0009adc0       ??_GSettable_routine_parameter@@UAEPAXI@Z 0049bdc0 f i item.obj
 0001:0009ae10       ??1Settable_routine_parameter@@UAE@XZ 0049be10 f i item.obj
 0001:0009ae40       ?is_splocal@Item_splocal@@UAE_NXZ 0049be40 f i item.obj
 0001:0009ae60       ?field_type@Item_splocal@@UBE?AW4enum_field_types@@XZ 0049be60 f i item.obj
 0001:0009ae80       ?get_settable_routine_parameter@Item_splocal@@UAEPAVSettable_routine_parameter@@XZ 0049be80 f i item.obj
 0001:0009aed0       ?type@Item_splocal@@UBE?AW4Type@Item@@XZ 0049bed0 f i item.obj
 0001:0009aef0       ?result_type@Item_splocal@@UBE?AW4Item_result@@XZ 0049bef0 f i item.obj
 0001:0009af10       ??_GItem_splocal@@UAEPAXI@Z 0049bf10 f i item.obj
 0001:0009af10       ??_EItem_splocal@@UAEPAXI@Z 0049bf10 f i item.obj
 0001:0009af60       ??1Item_splocal@@UAE@XZ    0049bf60 f i item.obj
 0001:0009afc0       ?get_var_idx@Item_splocal@@QBEIXZ 0049bfc0 f i item.obj
 0001:0009afe0       ?type@Item_case_expr@@UBE?AW4Type@Item@@XZ 0049bfe0 f i item.obj
 0001:0009b050       ?result_type@Item_case_expr@@UBE?AW4Item_result@@XZ 0049c050 f i item.obj
 0001:0009b0c0       ??_EItem_case_expr@@UAEPAXI@Z 0049c0c0 f i item.obj
 0001:0009b0c0       ??_GItem_case_expr@@UAEPAXI@Z 0049c0c0 f i item.obj
 0001:0009b110       ??1Item_case_expr@@UAE@XZ  0049c110 f i item.obj
 0001:0009b140       ?result_type@Item_name_const@@UBE?AW4Item_result@@XZ 0049c140 f i item.obj
 0001:0009b190       ?const_item@Item_name_const@@UBE_NXZ 0049c190 f i item.obj
 0001:0009b1b0       ?save_in_field@Item_name_const@@UAEHPAVField@@_N@Z 0049c1b0 f i item.obj
 0001:0009b210       ?send@Item_name_const@@UAE_NPAVProtocol@@PAVString@@@Z 0049c210 f i item.obj
 0001:0009b270       ??_EItem_name_const@@UAEPAXI@Z 0049c270 f i item.obj
 0001:0009b270       ??_GItem_name_const@@UAEPAXI@Z 0049c270 f i item.obj
 0001:0009b2c0       ??1Item_name_const@@UAE@XZ 0049c2c0 f i item.obj
 0001:0009b2f0       ?depended_from@Item_sum@@QAEPAVst_select_lex@@XZ 0049c2f0 f i item.obj
 0001:0009b350       ?change_item_tree@THD@@QAEXPAPAVItem@@PAV2@@Z 0049c350 f i item.obj
 0001:0009b3c0       ?is_conventional@Query_arena@@QBE_NXZ 0049c3c0 f i item.obj
 0001:0009b3f0       ??0Item_aggregate_ref@@QAE@PAUName_resolution_context@@PAPAVItem@@PBD2@Z 0049c3f0 f i item.obj
 0001:0009b450       ?type@Item_ref@@UBE?AW4Type@Item@@XZ 0049c450 f i item.obj
 0001:0009b470       ?eq@Item_ref@@UBE_NPBVItem@@_N@Z 0049c470 f i item.obj
 0001:0009b530       ?result_type@Item_ref@@UBE?AW4Item_result@@XZ 0049c530 f i item.obj
 0001:0009b580       ?field_type@Item_ref@@UBE?AW4enum_field_types@@XZ 0049c580 f i item.obj
 0001:0009b5d0       ?get_tmp_table_field@Item_ref@@UAEPAVField@@XZ 0049c5d0 f i item.obj
 0001:0009b650       ?used_tables@Item_ref@@UBE_KXZ 0049c650 f i item.obj
 0001:0009b6e0       ?update_used_tables@Item_ref@@UAEXXZ 0049c6e0 f i item.obj
 0001:0009b740       ?not_null_tables@Item_ref@@UBE_KXZ 0049c740 f i item.obj
 0001:0009b790       ?set_result_field@Item_ref@@UAEXPAVField@@@Z 0049c790 f i item.obj
 0001:0009b7c0       ?is_result_field@Item_ref@@UAE_NXZ 0049c7c0 f i item.obj
 0001:0009b7e0       ?save_in_result_field@Item_ref@@UAEX_N@Z 0049c7e0 f i item.obj
 0001:0009b840       ?real_item@Item_ref@@UAEPAVItem@@XZ 0049c840 f i item.obj
 0001:0009b8c0       ?walk@Item_ref@@UAE_NP8Item@@AE_NPAE@Z0@Z 0049c8c0 f i item.obj
 0001:0009b920       ?result_as_longlong@Item_ref@@UAE_NXZ 0049c920 f i item.obj
 0001:0009b970       ?filed_for_view_update@Item_ref@@UAEPAVItem_field@@XZ 0049c970 f i item.obj
 0001:0009b9c0       ?ref_type@Item_ref@@UAE?AW4Ref_Type@1@XZ 0049c9c0 f i item.obj
 0001:0009b9e0       ?cols@Item_ref@@UAEIXZ     0049c9e0 f i item.obj
 0001:0009ba80       ?element_index@Item_ref@@UAEPAVItem@@I@Z 0049ca80 f i item.obj
 0001:0009bb20       ?addr@Item_ref@@UAEPAPAVItem@@I@Z 0049cb20 f i item.obj
 0001:0009bbc0       ?check_cols@Item_ref@@UAE_NI@Z 0049cbc0 f i item.obj
 0001:0009bc70       ?null_inside@Item_ref@@UAE_NXZ 0049cc70 f i item.obj
 0001:0009bd10       ?bring_value@Item_ref@@UAEXXZ 0049cd10 f i item.obj
 0001:0009bd90       ?print@Item_aggregate_ref@@UAEXPAVString@@@Z 0049cd90 f i item.obj
 0001:0009be10       ??_GItem_aggregate_ref@@UAEPAXI@Z 0049ce10 f i item.obj
 0001:0009be10       ??_EItem_aggregate_ref@@UAEPAXI@Z 0049ce10 f i item.obj
 0001:0009be70       ??1Item_aggregate_ref@@UAE@XZ 0049ce70 f i item.obj
 0001:0009bea0       ??1Item_ref@@UAE@XZ        0049cea0 f i item.obj
 0001:0009bed0       ?set@DTCollation@@QAEXAAV1@@Z 0049ced0 f i item.obj
 0001:0009bf20       ?derivation_name@DTCollation@@QBEPBDXZ 0049cf20 f i item.obj
 0001:0009bfc0       ??0Query_arena@@QAE@XZ     0049cfc0 f i item.obj
 0001:0009bff0       ??1Query_arena@@UAE@XZ     0049cff0 f i item.obj
 0001:0009c020       ??_EQuery_arena@@UAEPAXI@Z 0049d020 f i item.obj
 0001:0009c020       ??_GQuery_arena@@UAEPAXI@Z 0049d020 f i item.obj
 0001:0009c070       ?activate_stmt_arena_if_needed@THD@@QAEPAVQuery_arena@@PAV2@@Z 0049d070 f i item.obj
 0001:0009c100       ?type@Item_field@@UBE?AW4Type@Item@@XZ 0049d100 f i item.obj
 0001:0009c120       ?result_type@Item_field@@UBE?AW4Item_result@@XZ 0049d120 f i item.obj
 0001:0009c170       ?cast_to_int_type@Item_field@@UBE?AW4Item_result@@XZ 0049d170 f i item.obj
 0001:0009c1c0       ?field_type@Item_field@@UBE?AW4enum_field_types@@XZ 0049d1c0 f i item.obj
 0001:0009c210       ?get_tmp_table_field@Item_field@@UAEPAVField@@XZ 0049d210 f i item.obj
 0001:0009c230       ?tmp_table_field@Item_field@@UAEPAVField@@PAUst_table@@@Z 0049d230 f i item.obj
 0001:0009c250       ?is_null@Item_field@@UAE_NXZ 0049d250 f i item.obj
 0001:0009c290       ?reset_query_id_processor@Item_field@@UAE_NPAE@Z 0049d290 f i item.obj
 0001:0009c2f0       ?result_as_longlong@Item_field@@UAE_NXZ 0049d2f0 f i item.obj
 0001:0009c340       ?filed_for_view_update@Item_field@@UAEPAV1@XZ 0049d340 f i item.obj
 0001:0009c360       ?get_geometry_type@Item_field@@UBE?AW4geometry_type@Field@@XZ 0049d360 f i item.obj
 0001:0009c3f0       ??_GItem_field@@UAEPAXI@Z  0049d3f0 f i item.obj
 0001:0009c3f0       ??_EItem_field@@UAEPAXI@Z  0049d3f0 f i item.obj
 0001:0009c450       ??1Item_field@@UAE@XZ      0049d450 f i item.obj
 0001:0009c480       ?is_stmt_prepare_or_first_sp_execute@Query_arena@@QBE_NXZ 0049d480 f i item.obj
 0001:0009c4b0       ?strdup@Query_arena@@QAEPADPBD@Z 0049d4b0 f i item.obj
 0001:0009c4f0       ?set@DTCollation@@QAEXW4Derivation@@@Z 0049d4f0 f i item.obj
 0001:0009c520       ?val_real@Item_uint@@UAENXZ 0049d520 f i item.obj
 0001:0009c590       ?clone_item@Item_uint@@UAEPAVItem@@XZ 0049d590 f i item.obj
 0001:0009c620       ?decimal_precision@Item_uint@@UBEIXZ 0049d620 f i item.obj
 0001:0009c640       ??_GItem_uint@@UAEPAXI@Z   0049d640 f i item.obj
 0001:0009c640       ??_EItem_uint@@UAEPAXI@Z   0049d640 f i item.obj
 0001:0009c690       ??1Item_uint@@UAE@XZ       0049d690 f i item.obj
 0001:0009c6c0       ?type@Item_decimal@@UBE?AW4Type@Item@@XZ 0049d6c0 f i item.obj
 0001:0009c6e0       ?result_type@Item_decimal@@UBE?AW4Item_result@@XZ 0049d6e0 f i item.obj
 0001:0009c700       ?field_type@Item_decimal@@UBE?AW4enum_field_types@@XZ 0049d700 f i item.obj
 0001:0009c720       ?val_decimal@Item_decimal@@UAEPAVmy_decimal@@PAV2@@Z 0049d720 f i item.obj
 0001:0009c740       ?basic_const_item@Item_decimal@@UBE_NXZ 0049d740 f i item.obj
 0001:0009c760       ?clone_item@Item_decimal@@UAEPAVItem@@XZ 0049d760 f i item.obj
 0001:0009c800       ?neg@Item_decimal@@UAEPAVItem_num@@XZ 0049d800 f i item.obj
 0001:0009c860       ?my_decimal_neg@@YAXPAUst_decimal_t@@@Z 0049d860 f i item.obj
 0001:0009c8b0       ?decimal_precision@Item_decimal@@UBEIXZ 0049d8b0 f i item.obj
 0001:0009c8e0       ?precision@my_decimal@@QBEIXZ 0049d8e0 f i item.obj
 0001:0009c910       ??_GItem_decimal@@UAEPAXI@Z 0049d910 f i item.obj
 0001:0009c910       ??_EItem_decimal@@UAEPAXI@Z 0049d910 f i item.obj
 0001:0009c970       ??1Item_decimal@@UAE@XZ    0049d970 f i item.obj
 0001:0009c9a0       ?my_decimal2decimal@@YAXPBVmy_decimal@@PAV1@@Z 0049d9a0 f i item.obj
 0001:0009c9d0       ?my_decimal_cmp@@YAHPBVmy_decimal@@0@Z 0049d9d0 f i item.obj
 0001:0009ca00       ?set@DTCollation@@QAEXPAUcharset_info_st@@@Z 0049da00 f i item.obj
 0001:0009ca40       ?result_type@Item_param@@UBE?AW4Item_result@@XZ 0049da40 f i item.obj
 0001:0009ca70       ?type@Item_param@@UBE?AW4Type@Item@@XZ 0049da70 f i item.obj
 0001:0009caa0       ?field_type@Item_param@@UBE?AW4enum_field_types@@XZ 0049daa0 f i item.obj
 0001:0009cad0       ?used_tables@Item_param@@UBE_KXZ 0049dad0 f i item.obj
 0001:0009cb40       ?is_null@Item_param@@UAE_NXZ 0049db40 f i item.obj
 0001:0009cbb0       ??_EItem_param@@UAEPAXI@Z  0049dbb0 f i item.obj
 0001:0009cbb0       ??_GItem_param@@UAEPAXI@Z  0049dbb0 f i item.obj
 0001:0009cc10       ??1Item_param@@UAE@XZ      0049dc10 f i item.obj
 0001:0009cc60       ?str2my_decimal@@YAHIPBDPAVmy_decimal@@PAPAD@Z 0049dc60 f i item.obj
 0001:0009cca0       ?string2my_decimal@@YAHIPBVString@@PAVmy_decimal@@@Z 0049dca0 f i item.obj
 0001:0009ccf0       ??0Item_null@@QAE@PAD@Z    0049dcf0 f i item.obj
 0001:0009cda0       ?type@Item_null@@UBE?AW4Type@Item@@XZ 0049dda0 f i item.obj
 0001:0009cdc0       ?result_type@Item_null@@UBE?AW4Item_result@@XZ 0049ddc0 f i item.obj
 0001:0009cde0       ?field_type@Item_null@@UBE?AW4enum_field_types@@XZ 0049dde0 f i item.obj
 0001:0009ce00       ?basic_const_item@Item_null@@UBE_NXZ 0049de00 f i item.obj
 0001:0009ce20       ?clone_item@Item_null@@UAEPAVItem@@XZ 0049de20 f i item.obj
 0001:0009cea0       ?is_null@Item_null@@UAE_NXZ 0049dea0 f i item.obj
 0001:0009cec0       ?print@Item_null@@UAEXPAVString@@@Z 0049dec0 f i item.obj
 0001:0009cf00       ??_EItem_null@@UAEPAXI@Z   0049df00 f i item.obj
 0001:0009cf00       ??_GItem_null@@UAEPAXI@Z   0049df00 f i item.obj
 0001:0009cf50       ??1Item_null@@UAE@XZ       0049df50 f i item.obj
 0001:0009cf80       ??0Item_float@@QAE@PBDNII@Z 0049df80 f i item.obj
 0001:0009d000       ?type@Item_float@@UBE?AW4Type@Item@@XZ 0049e000 f i item.obj
 0001:0009d020       ?field_type@Item_float@@UBE?AW4enum_field_types@@XZ 0049e020 f i item.obj
 0001:0009d040       ?val_real@Item_float@@UAENXZ 0049e040 f i item.obj
 0001:0009d0a0       ?val_int@Item_float@@UAE_JXZ 0049e0a0 f i item.obj
 0001:0009d160       ?basic_const_item@Item_float@@UBE_NXZ 0049e160 f i item.obj
 0001:0009d180       ?clone_item@Item_float@@UAEPAVItem@@XZ 0049e180 f i item.obj
 0001:0009d220       ?neg@Item_float@@UAEPAVItem_num@@XZ 0049e220 f i item.obj
 0001:0009d250       ??_GItem_float@@UAEPAXI@Z  0049e250 f i item.obj
 0001:0009d250       ??_EItem_float@@UAEPAXI@Z  0049e250 f i item.obj
 0001:0009d2a0       ??1Item_float@@UAE@XZ      0049e2a0 f i item.obj
 0001:0009d2d0       ??0Item_ref@@QAE@PAUName_resolution_context@@PBD11@Z 0049e2d0 f i item.obj
 0001:0009d340       ??_GItem_ref@@UAEPAXI@Z    0049e340 f i item.obj
 0001:0009d340       ??_EItem_ref@@UAEPAXI@Z    0049e340 f i item.obj
 0001:0009d3a0       ??0Item_direct_ref@@QAE@PAUName_resolution_context@@PAPAVItem@@PBD2_N@Z 0049e3a0 f i item.obj
 0001:0009d400       ?ref_type@Item_direct_ref@@UAE?AW4Ref_Type@Item_ref@@XZ 0049e400 f i item.obj
 0001:0009d420       ??_EItem_direct_ref@@UAEPAXI@Z 0049e420 f i item.obj
 0001:0009d420       ??_GItem_direct_ref@@UAEPAXI@Z 0049e420 f i item.obj
 0001:0009d480       ??1Item_direct_ref@@UAE@XZ 0049e480 f i item.obj
 0001:0009d4b0       ??0Item_outer_ref@@QAE@PAUName_resolution_context@@PAVItem_field@@@Z 0049e4b0 f i item.obj
 0001:0009d560       ??0Item_outer_ref@@QAE@PAUName_resolution_context@@PAPAVItem@@PBD2_N@Z 0049e560 f i item.obj
 0001:0009d5f0       ?save_in_result_field@Item_outer_ref@@UAEX_N@Z 0049e5f0 f i item.obj
 0001:0009d650       ?used_tables@Item_outer_ref@@UBE_KXZ 0049e650 f i item.obj
 0001:0009d6f0       ?ref_type@Item_outer_ref@@UAE?AW4Ref_Type@Item_ref@@XZ 0049e6f0 f i item.obj
 0001:0009d710       ??_EItem_outer_ref@@UAEPAXI@Z 0049e710 f i item.obj
 0001:0009d710       ??_GItem_outer_ref@@UAEPAXI@Z 0049e710 f i item.obj
 0001:0009d770       ??1Item_outer_ref@@UAE@XZ  0049e770 f i item.obj
 0001:0009d7a0       ?first_select@st_select_lex_unit@@QAEPAVst_select_lex@@XZ 0049e7a0 f i item.obj
 0001:0009d7c0       ?process_error@Name_resolution_context@@QAEXPAVTHD@@@Z 0049e7c0 f i item.obj
 0001:0009d810       ?get_const@Item_equal@@QAEPAVItem@@XZ 0049e810 f i item.obj
 0001:0009d840       ?get_first@Item_equal@@QAEPAVItem_field@@XZ 0049e840 f i item.obj
 0001:0009d880       ??0Field_string@@QAE@K_NPBDPAUst_table@@PAUcharset_info_st@@@Z 0049e880 f i item.obj
 0001:0009d900       ??0Field_blob@@QAE@K_NPBDPAUst_table@@PAUcharset_info_st@@@Z 0049e900 f i item.obj
 0001:0009d9a0       ??0Field_newdate@@QAE@_NPBDPAUst_table@@PAUcharset_info_st@@@Z 0049e9a0 f i item.obj
 0001:0009da10       ??0Field_time@@QAE@_NPBDPAUst_table@@PAUcharset_info_st@@@Z 0049ea10 f i item.obj
 0001:0009da80       ??0Field_datetime@@QAE@_NPBDPAUst_table@@PAUcharset_info_st@@@Z 0049ea80 f i item.obj
 0001:0009daf0       ??0Field_blob@@QAE@K_NPBDPAUst_table@@PAUcharset_info_st@@0@Z 0049eaf0 f i item.obj
 0001:0009dc10       ??0Field_geom@@QAE@K_NPBDPAUst_table@@W4geometry_type@Field@@@Z 0049ec10 f i item.obj
 0001:0009dc80       ?type@Item_hex_string@@UBE?AW4Type@Item@@XZ 0049ec80 f i item.obj
 0001:0009dca0       ?val_real@Item_hex_string@@UAENXZ 0049eca0 f i item.obj
 0001:0009dd50       ?basic_const_item@Item_hex_string@@UBE_NXZ 0049ed50 f i item.obj
 0001:0009dd70       ?val_str@Item_hex_string@@UAEPAVString@@PAV2@@Z 0049ed70 f i item.obj
 0001:0009ddd0       ?result_type@Item_hex_string@@UBE?AW4Item_result@@XZ 0049edd0 f i item.obj
 0001:0009ddf0       ?cast_to_int_type@Item_hex_string@@UBE?AW4Item_result@@XZ 0049edf0 f i item.obj
 0001:0009de10       ?field_type@Item_hex_string@@UBE?AW4enum_field_types@@XZ 0049ee10 f i item.obj
 0001:0009de30       ??_EItem_hex_string@@UAEPAXI@Z 0049ee30 f i item.obj
 0001:0009de30       ??_GItem_hex_string@@UAEPAXI@Z 0049ee30 f i item.obj
 0001:0009de80       ??1Item_hex_string@@UAE@XZ 0049ee80 f i item.obj
 0001:0009deb0       ?char_val@@YAID@Z          0049eeb0 f i item.obj
 0001:0009df30       ??0Item_hex_string@@QAE@XZ 0049ef30 f i item.obj
 0001:0009df70       ??_EItem_bin_string@@UAEPAXI@Z 0049ef70 f i item.obj
 0001:0009df70       ??_GItem_bin_string@@UAEPAXI@Z 0049ef70 f i item.obj
 0001:0009dfc0       ??1Item_bin_string@@UAE@XZ 0049efc0 f i item.obj
 0001:0009dff0       ?top_table@TABLE_LIST@@QAEPAU1@XZ 0049eff0 f i item.obj
 0001:0009e040       ??0Item_cache_int@@QAE@XZ  0049f040 f i item.obj
 0001:0009e0a0       ??0Item_cache@@QAE@XZ      0049f0a0 f i item.obj
 0001:0009e120       ?allocate@Item_cache@@UAE_NI@Z 0049f120 f i item.obj
 0001:0009e140       ?setup@Item_cache@@UAE_NPAVItem@@@Z 0049f140 f i item.obj
 0001:0009e1f0       ?type@Item_cache@@UBE?AW4Type@Item@@XZ 0049f1f0 f i item.obj
 0001:0009e210       ?used_tables@Item_cache@@UBE_KXZ 0049f210 f i item.obj
 0001:0009e240       ?keep_array@Item_cache@@UAEXXZ 0049f240 f i item.obj
 0001:0009e260       ?eq@Item_cache@@UBE_NPBVItem@@_N@Z 0049f260 f i item.obj
 0001:0009e290       ??_EItem_cache@@UAEPAXI@Z  0049f290 f i item.obj
 0001:0009e290       ??_GItem_cache@@UAEPAXI@Z  0049f290 f i item.obj
 0001:0009e2e0       ??1Item_cache@@UAE@XZ      0049f2e0 f i item.obj
 0001:0009e310       ?val_real@Item_cache_int@@UAENXZ 0049f310 f i item.obj
 0001:0009e370       ?val_int@Item_cache_int@@UAE_JXZ 0049f370 f i item.obj
 0001:0009e3d0       ?result_type@Item_cache_int@@UBE?AW4Item_result@@XZ 0049f3d0 f i item.obj
 0001:0009e3f0       ?result_as_longlong@Item_cache_int@@UAE_NXZ 0049f3f0 f i item.obj
 0001:0009e410       ??_GItem_cache_int@@UAEPAXI@Z 0049f410 f i item.obj
 0001:0009e410       ??_EItem_cache_int@@UAEPAXI@Z 0049f410 f i item.obj
 0001:0009e460       ??1Item_cache_int@@UAE@XZ  0049f460 f i item.obj
 0001:0009e490       ??0Item_cache_real@@QAE@XZ 0049f490 f i item.obj
 0001:0009e4e0       ?val_real@Item_cache_real@@UAENXZ 0049f4e0 f i item.obj
 0001:0009e540       ?result_type@Item_cache_real@@UBE?AW4Item_result@@XZ 0049f540 f i item.obj
 0001:0009e560       ??_GItem_cache_real@@UAEPAXI@Z 0049f560 f i item.obj
 0001:0009e560       ??_EItem_cache_real@@UAEPAXI@Z 0049f560 f i item.obj
 0001:0009e5b0       ??1Item_cache_real@@UAE@XZ 0049f5b0 f i item.obj
 0001:0009e5e0       ??0Item_cache_decimal@@QAE@XZ 0049f5e0 f i item.obj
 0001:0009e630       ?result_type@Item_cache_decimal@@UBE?AW4Item_result@@XZ 0049f630 f i item.obj
 0001:0009e650       ??_EItem_cache_decimal@@UAEPAXI@Z 0049f650 f i item.obj
 0001:0009e650       ??_GItem_cache_decimal@@UAEPAXI@Z 0049f650 f i item.obj
 0001:0009e6b0       ??1Item_cache_decimal@@UAE@XZ 0049f6b0 f i item.obj
 0001:0009e6e0       ??0Item_cache_str@@QAE@PBVItem@@@Z 0049f6e0 f i item.obj
 0001:0009e7f0       ?val_str@Item_cache_str@@UAEPAVString@@PAV2@@Z 0049f7f0 f i item.obj
 0001:0009e850       ?result_type@Item_cache_str@@UBE?AW4Item_result@@XZ 0049f850 f i item.obj
 0001:0009e870       ??_GItem_cache_str@@UAEPAXI@Z 0049f870 f i item.obj
 0001:0009e870       ??_EItem_cache_str@@UAEPAXI@Z 0049f870 f i item.obj
 0001:0009e8d0       ??1Item_cache_str@@UAE@XZ  0049f8d0 f i item.obj
 0001:0009e910       ??0Item_cache_row@@QAE@XZ  0049f910 f i item.obj
 0001:0009e970       ?make_field@Item_cache_row@@UAEXPAVSend_field@@@Z 0049f970 f i item.obj
 0001:0009e9b0       ?val_real@Item_cache_row@@UAENXZ 0049f9b0 f i item.obj
 0001:0009e9f0       ?val_int@Item_cache_row@@UAE_JXZ 0049f9f0 f i item.obj
 0001:0009ea30       ?val_str@Item_cache_row@@UAEPAVString@@PAV2@@Z 0049fa30 f i item.obj
 0001:0009ea70       ?val_decimal@Item_cache_row@@UAEPAVmy_decimal@@PAV2@@Z 0049fa70 f i item.obj
 0001:0009eab0       ?result_type@Item_cache_row@@UBE?AW4Item_result@@XZ 0049fab0 f i item.obj
 0001:0009ead0       ?cols@Item_cache_row@@UAEIXZ 0049fad0 f i item.obj
 0001:0009eaf0       ?element_index@Item_cache_row@@UAEPAVItem@@I@Z 0049faf0 f i item.obj
 0001:0009eb20       ?addr@Item_cache_row@@UAEPAPAVItem@@I@Z 0049fb20 f i item.obj
 0001:0009eb50       ?keep_array@Item_cache_row@@UAEXXZ 0049fb50 f i item.obj
 0001:0009eb70       ?cleanup@Item_cache_row@@UAEXXZ 0049fb70 f i item.obj
 0001:0009ecd0       ??_EItem_cache_row@@UAEPAXI@Z 0049fcd0 f i item.obj
 0001:0009ecd0       ??_GItem_cache_row@@UAEPAXI@Z 0049fcd0 f i item.obj
 0001:0009ed20       ??1Item_cache_row@@UAE@XZ  0049fd20 f i item.obj
 0001:0009ed50       ?decimal_int_part@Item@@QBEHXZ 0049fd50 f i item.obj
 0001:0009edb0       ?my_decimal_int_part@@YAHII@Z 0049fdb0 f i item.obj
 0001:0009edd0       ?field_type@Item_type_holder@@UBE?AW4enum_field_types@@XZ 0049fdd0 f i item.obj
 0001:0009edf0       ?type@Item_type_holder@@UBE?AW4Type@Item@@XZ 0049fdf0 f i item.obj
 0001:0009ee10       ?get_geometry_type@Item_type_holder@@UBE?AW4geometry_type@Field@@XZ 0049fe10 f i item.obj
 0001:0009ee30       ??_GItem_type_holder@@UAEPAXI@Z 0049fe30 f i item.obj
 0001:0009ee30       ??_EItem_type_holder@@UAEPAXI@Z 0049fe30 f i item.obj
 0001:0009ee80       ??1Item_type_holder@@UAE@XZ 0049fe80 f i item.obj
 0001:0009eeb0       ?max_disp_length@Item_field@@QAEKXZ 0049feb0 f i item.obj
 0001:0009ef00       ?push_front@?$List@VItem@@@@QAE_NPAVItem@@@Z 0049ff00 f i item.obj
 0001:0009ef40       ?push_front@base_list@@QAE_NPAX@Z 0049ff40 f i item.obj
 0001:0009f000       ?push_back@?$List@VItem_field@@@@QAE_NPAVItem_field@@@Z 004a0000 f i item.obj
 0001:0009f040       ?head@?$List@VItem_field@@@@QAEPAVItem_field@@XZ 004a0040 f i item.obj
 0001:0009f070       ?head@base_list@@QAEPAXXZ  004a0070 f i item.obj
 0001:0009f090       ?push_back@?$List@VItem_outer_ref@@@@QAE_NPAVItem_outer_ref@@@Z 004a0090 f i item.obj
 0001:0009f0d0       ??0?$List_iterator@VItem_field@@@@QAE@AAV?$List@VItem_field@@@@@Z 004a00d0 f i item.obj
 0001:0009f110       ??E?$List_iterator@VItem_field@@@@QAEPAVItem_field@@H@Z 004a0110 f i item.obj
 0001:0009f140       ??0?$List_iterator_fast@VItem_equal@@@@QAE@AAV?$List@VItem_equal@@@@@Z 004a0140 f i item.obj
 0001:0009f180       ??E?$List_iterator_fast@VItem_equal@@@@QAEPAVItem_equal@@H@Z 004a0180 f i item.obj
 0001:0009f1b0       ??_EItem_splocal@@WFM@AEPAXI@Z 004a01b0 f i item.obj
 0001:0009f1c0       ??0Hybrid_type_traits@@QAE@XZ 004a01c0 f i item.obj
 0001:0009f1f0       ?type@Hybrid_type_traits@@UBE?AW4Item_result@@XZ 004a01f0 f i item.obj
 0001:0009f210       ?set_zero@Hybrid_type_traits@@UBEXPAUHybrid_type@@@Z 004a0210 f i item.obj
 0001:0009f240       ?add@Hybrid_type_traits@@UBEXPAUHybrid_type@@PAVField@@@Z 004a0240 f i item.obj
 0001:0009f290       ?div@Hybrid_type_traits@@UBEXPAUHybrid_type@@_K@Z 004a0290 f i item.obj
 0001:0009f2e0       ?val_int@Hybrid_type_traits@@UBE_JPAUHybrid_type@@_N@Z 004a02e0 f i item.obj
 0001:0009f330       ?val_real@Hybrid_type_traits@@UBENPAUHybrid_type@@@Z 004a0330 f i item.obj
 0001:0009f350       ??_GHybrid_type_traits@@UAEPAXI@Z 004a0350 f i item.obj
 0001:0009f350       ??_EHybrid_type_traits@@UAEPAXI@Z 004a0350 f i item.obj
 0001:0009f3a0       ??1Hybrid_type_traits@@UAE@XZ 004a03a0 f i item.obj
 0001:0009f3d0       ??0Hybrid_type_traits_decimal@@QAE@XZ 004a03d0 f i item.obj
 0001:0009f410       ?type@Hybrid_type_traits_decimal@@UBE?AW4Item_result@@XZ 004a0410 f i item.obj
 0001:0009f430       ?val_decimal@Hybrid_type_traits_decimal@@UBEPAVmy_decimal@@PAUHybrid_type@@PAV2@@Z 004a0430 f i item.obj
 0001:0009f460       ??_GHybrid_type_traits_decimal@@UAEPAXI@Z 004a0460 f i item.obj
 0001:0009f460       ??_EHybrid_type_traits_decimal@@UAEPAXI@Z 004a0460 f i item.obj
 0001:0009f4b0       ??1Hybrid_type_traits_decimal@@UAE@XZ 004a04b0 f i item.obj
 0001:0009f4e0       ??0Hybrid_type_traits_integer@@QAE@XZ 004a04e0 f i item.obj
 0001:0009f520       ?type@Hybrid_type_traits_integer@@UBE?AW4Item_result@@XZ 004a0520 f i item.obj
 0001:0009f540       ?set_zero@Hybrid_type_traits_integer@@UBEXPAUHybrid_type@@@Z 004a0540 f i item.obj
 0001:0009f570       ?add@Hybrid_type_traits_integer@@UBEXPAUHybrid_type@@PAVField@@@Z 004a0570 f i item.obj
 0001:0009f5d0       ?div@Hybrid_type_traits_integer@@UBEXPAUHybrid_type@@_K@Z 004a05d0 f i item.obj
 0001:0009f620       ?val_int@Hybrid_type_traits_integer@@UBE_JPAUHybrid_type@@_N@Z 004a0620 f i item.obj
 0001:0009f650       ?val_real@Hybrid_type_traits_integer@@UBENPAUHybrid_type@@@Z 004a0650 f i item.obj
 0001:0009f670       ?val_decimal@Hybrid_type_traits_integer@@UBEPAVmy_decimal@@PAUHybrid_type@@PAV2@@Z 004a0670 f i item.obj
 0001:0009f6d0       ?val_str@Hybrid_type_traits_integer@@UBEPAVString@@PAUHybrid_type@@PAV2@E@Z 004a06d0 f i item.obj
 0001:0009f720       ??_GHybrid_type_traits_integer@@UAEPAXI@Z 004a0720 f i item.obj
 0001:0009f720       ??_EHybrid_type_traits_integer@@UAEPAXI@Z 004a0720 f i item.obj
 0001:0009f770       ??1Hybrid_type_traits_integer@@UAE@XZ 004a0770 f i item.obj
 0001:0009f7a0       ?new_Cached_item@@YAPAVCached_item@@PAVTHD@@PAVItem@@@Z 004a07a0 f   item_buff.obj
 0001:0009f990       ??1Cached_item@@UAE@XZ     004a0990 f   item_buff.obj
 0001:0009f9e0       ??0Cached_item_str@@QAE@PAVTHD@@PAVItem@@@Z 004a09e0 f   item_buff.obj
 0001:0009fa70       ?cmp@Cached_item_str@@UAE_NXZ 004a0a70 f   item_buff.obj
 0001:0009fb90       ??1Cached_item_str@@UAE@XZ 004a0b90 f   item_buff.obj
 0001:0009fbe0       ?cmp@Cached_item_real@@UAE_NXZ 004a0be0 f   item_buff.obj
 0001:0009fc80       ?cmp@Cached_item_int@@UAE_NXZ 004a0c80 f   item_buff.obj
 0001:0009fd30       ?cmp@Cached_item_field@@UAE_NXZ 004a0d30 f   item_buff.obj
 0001:0009fe00       ??0Cached_item_decimal@@QAE@PAVItem@@@Z 004a0e00 f   item_buff.obj
 0001:0009fe60       ?cmp@Cached_item_decimal@@UAE_NXZ 004a0e60 f   item_buff.obj
 0001:000a0140       ??0Cached_item_real@@QAE@PAVItem@@@Z 004a1140 f i item_buff.obj
 0001:000a01a0       ??0Cached_item@@QAE@XZ     004a11a0 f i item_buff.obj
 0001:000a01f0       ??_ECached_item@@UAEPAXI@Z 004a11f0 f i item_buff.obj
 0001:000a01f0       ??_GCached_item@@UAEPAXI@Z 004a11f0 f i item_buff.obj
 0001:000a0240       ??_GCached_item_real@@UAEPAXI@Z 004a1240 f i item_buff.obj
 0001:000a0240       ??_ECached_item_real@@UAEPAXI@Z 004a1240 f i item_buff.obj
 0001:000a0290       ??1Cached_item_real@@UAE@XZ 004a1290 f i item_buff.obj
 0001:000a02c0       ??0Cached_item_int@@QAE@PAVItem@@@Z 004a12c0 f i item_buff.obj
 0001:000a0320       ??_GCached_item_int@@UAEPAXI@Z 004a1320 f i item_buff.obj
 0001:000a0320       ??_ECached_item_int@@UAEPAXI@Z 004a1320 f i item_buff.obj
 0001:000a0370       ??1Cached_item_int@@UAE@XZ 004a1370 f i item_buff.obj
 0001:000a03a0       ??0Cached_item_field@@QAE@PAVItem_field@@@Z 004a13a0 f i item_buff.obj
 0001:000a0440       ??_ECached_item_field@@UAEPAXI@Z 004a1440 f i item_buff.obj
 0001:000a0440       ??_GCached_item_field@@UAEPAXI@Z 004a1440 f i item_buff.obj
 0001:000a0490       ??1Cached_item_field@@UAE@XZ 004a1490 f i item_buff.obj
 0001:000a04c0       ??0String@@QAE@K@Z         004a14c0 f i item_buff.obj
 0001:000a0520       ??_ECached_item_str@@UAEPAXI@Z 004a1520 f i item_buff.obj
 0001:000a0520       ??_GCached_item_str@@UAEPAXI@Z 004a1520 f i item_buff.obj
 0001:000a0570       ?cmp@Field@@QAEHPBD@Z      004a1570 f i item_buff.obj
 0001:000a05c0       ??_ECached_item_decimal@@UAEPAXI@Z 004a15c0 f i item_buff.obj
 0001:000a05c0       ??_GCached_item_decimal@@UAEPAXI@Z 004a15c0 f i item_buff.obj
 0001:000a0610       ??1Cached_item_decimal@@UAE@XZ 004a1610 f i item_buff.obj
 0001:000a0640       ?agg_field_type@@YA?AW4enum_field_types@@PAPAVItem@@I@Z 004a1640 f   item_cmpfunc.obj
 0001:000a0700       ?create@Eq_creator@@UBEPAVItem_bool_func2@@PAVItem@@0@Z 004a1700 f   item_cmpfunc.obj
 0001:000a0770       ?create@Ne_creator@@UBEPAVItem_bool_func2@@PAVItem@@0@Z 004a1770 f   item_cmpfunc.obj
 0001:000a07e0       ?create@Gt_creator@@UBEPAVItem_bool_func2@@PAVItem@@0@Z 004a17e0 f   item_cmpfunc.obj
 0001:000a0850       ?create@Lt_creator@@UBEPAVItem_bool_func2@@PAVItem@@0@Z 004a1850 f   item_cmpfunc.obj
 0001:000a08c0       ?create@Ge_creator@@UBEPAVItem_bool_func2@@PAVItem@@0@Z 004a18c0 f   item_cmpfunc.obj
 0001:000a0930       ?create@Le_creator@@UBEPAVItem_bool_func2@@PAVItem@@0@Z 004a1930 f   item_cmpfunc.obj
 0001:000a09a0       ?val_int@Item_func_not@@UAE_JXZ 004a19a0 f   item_cmpfunc.obj
 0001:000a0a50       ?print@Item_func_not@@UAEXPAVString@@@Z 004a1a50 f   item_cmpfunc.obj
 0001:000a0a90       ?val_int@Item_func_not_all@@UAE_JXZ 004a1a90 f   item_cmpfunc.obj
 0001:000a0b60       ?empty_underlying_subquery@Item_func_not_all@@QAE_NXZ 004a1b60 f   item_cmpfunc.obj
 0001:000a0be0       ?print@Item_func_not_all@@UAEXPAVString@@@Z 004a1be0 f   item_cmpfunc.obj
 0001:000a0c50       ?val_int@Item_func_nop_all@@UAE_JXZ 004a1c50 f   item_cmpfunc.obj
 0001:000a0d10       ?fix_length_and_dec@Item_bool_func2@@UAEXXZ 004a1d10 f   item_cmpfunc.obj
 0001:000a1330       ?set_compare_func@Arg_comparator@@QAEHPAVItem_bool_func2@@W4Item_result@@@Z 004a2330 f   item_cmpfunc.obj
 0001:000a18d0       ?can_compare_as_dates@Arg_comparator@@SA?AW4enum_date_cmp_type@1@PAVItem@@0PA_K@Z 004a28d0 f   item_cmpfunc.obj
 0001:000a1c70       ?get_time_value@@YA_KPAVTHD@@PAPAPAVItem@@PAPAV2@PAV2@PA_N@Z 004a2c70 f   item_cmpfunc.obj
 0001:000a1e40       ?set_cmp_func@Arg_comparator@@QAEHPAVItem_bool_func2@@PAPAVItem@@1W4Item_result@@@Z 004a2e40 f   item_cmpfunc.obj
 0001:000a2160       ?set_datetime_cmp_func@Arg_comparator@@QAEXPAPAVItem@@0@Z 004a3160 f   item_cmpfunc.obj
 0001:000a2220       ?get_datetime_value@@YA_KPAVTHD@@PAPAPAVItem@@PAPAV2@PAV2@PA_N@Z 004a3220 f   item_cmpfunc.obj
 0001:000a24c0       ?compare_datetime@Arg_comparator@@QAEHXZ 004a34c0 f   item_cmpfunc.obj
 0001:000a2680       ?compare_string@Arg_comparator@@QAEHXZ 004a3680 f   item_cmpfunc.obj
 0001:000a2750       ?compare_binary_string@Arg_comparator@@QAEHXZ 004a3750 f   item_cmpfunc.obj
 0001:000a2880       ?compare_e_string@Arg_comparator@@QAEHXZ 004a3880 f   item_cmpfunc.obj
 0001:000a2940       ?compare_e_binary_string@Arg_comparator@@QAEHXZ 004a3940 f   item_cmpfunc.obj
 0001:000a2a00       ?compare_real@Arg_comparator@@QAEHXZ 004a3a00 f   item_cmpfunc.obj
 0001:000a2ae0       ?compare_decimal@Arg_comparator@@QAEHXZ 004a3ae0 f   item_cmpfunc.obj
 0001:000a2c00       ?compare_e_real@Arg_comparator@@QAEHXZ 004a3c00 f   item_cmpfunc.obj
 0001:000a2cf0       ?compare_e_decimal@Arg_comparator@@QAEHXZ 004a3cf0 f   item_cmpfunc.obj
 0001:000a2e40       ?compare_real_fixed@Arg_comparator@@QAEHXZ 004a3e40 f   item_cmpfunc.obj
 0001:000a2f40       ?compare_e_real_fixed@Arg_comparator@@QAEHXZ 004a3f40 f   item_cmpfunc.obj
 0001:000a3050       ?compare_int_signed@Arg_comparator@@QAEHXZ 004a4050 f   item_cmpfunc.obj
 0001:000a3130       ?compare_int_unsigned@Arg_comparator@@QAEHXZ 004a4130 f   item_cmpfunc.obj
 0001:000a3210       ?compare_int_signed_unsigned@Arg_comparator@@QAEHXZ 004a4210 f   item_cmpfunc.obj
 0001:000a3300       ?compare_int_unsigned_signed@Arg_comparator@@QAEHXZ 004a4300 f   item_cmpfunc.obj
 0001:000a3400       ?compare_e_int@Arg_comparator@@QAEHXZ 004a4400 f   item_cmpfunc.obj
 0001:000a34f0       ?compare_e_int_diff_signedness@Arg_comparator@@QAEHXZ 004a44f0 f   item_cmpfunc.obj
 0001:000a3610       ?compare_row@Arg_comparator@@QAEHXZ 004a4610 f   item_cmpfunc.obj
 0001:000a3780       ?compare_e_row@Arg_comparator@@QAEHXZ 004a4780 f   item_cmpfunc.obj
 0001:000a3850       ?fix_length_and_dec@Item_func_truth@@UAEXXZ 004a4850 f   item_cmpfunc.obj
 0001:000a3890       ?print@Item_func_truth@@UAEXPAVString@@@Z 004a4890 f   item_cmpfunc.obj
 0001:000a3950       ?val_bool@Item_func_truth@@UAE_NXZ 004a4950 f   item_cmpfunc.obj
 0001:000a3a00       ?val_int@Item_func_truth@@UAE_JXZ 004a4a00 f   item_cmpfunc.obj
 0001:000a3a40       ?fix_left@Item_in_optimizer@@QAE_NPAVTHD@@PAPAVItem@@@Z 004a4a40 f   item_cmpfunc.obj
 0001:000a3d40       ?fix_fields@Item_in_optimizer@@UAE_NPAVTHD@@PAPAVItem@@@Z 004a4d40 f   item_cmpfunc.obj
 0001:000a3f90       ?val_int@Item_in_optimizer@@UAE_JXZ 004a4f90 f   item_cmpfunc.obj
 0001:000a4270       ?keep_top_level_cache@Item_in_optimizer@@QAEXXZ 004a5270 f   item_cmpfunc.obj
 0001:000a42c0       ?cleanup@Item_in_optimizer@@UAEXXZ 004a52c0 f   item_cmpfunc.obj
 0001:000a43d0       ?is_null@Item_in_optimizer@@UAE_NXZ 004a53d0 f   item_cmpfunc.obj
 0001:000a4480       ?val_int@Item_func_eq@@UAE_JXZ 004a5480 f   item_cmpfunc.obj
 0001:000a44f0       ?fix_length_and_dec@Item_func_equal@@UAEXXZ 004a54f0 f   item_cmpfunc.obj
 0001:000a4530       ?val_int@Item_func_equal@@UAE_JXZ 004a5530 f   item_cmpfunc.obj
 0001:000a4580       ?val_int@Item_func_ne@@UAE_JXZ 004a5580 f   item_cmpfunc.obj
 0001:000a4610       ?val_int@Item_func_ge@@UAE_JXZ 004a5610 f   item_cmpfunc.obj
 0001:000a4680       ?val_int@Item_func_gt@@UAE_JXZ 004a5680 f   item_cmpfunc.obj
 0001:000a46f0       ?val_int@Item_func_le@@UAE_JXZ 004a56f0 f   item_cmpfunc.obj
 0001:000a4780       ?val_int@Item_func_lt@@UAE_JXZ 004a5780 f   item_cmpfunc.obj
 0001:000a4810       ?val_int@Item_func_strcmp@@UAE_JXZ 004a5810 f   item_cmpfunc.obj
 0001:000a4950       ?eq@Item_func_opt_neg@@UBE_NPBVItem@@_N@Z 004a5950 f   item_cmpfunc.obj
 0001:000a4a90       ?fix_length_and_dec@Item_func_interval@@UAEXXZ 004a5a90 f   item_cmpfunc.obj
 0001:000a4ed0       ?val_int@Item_func_interval@@UAE_JXZ 004a5ed0 f   item_cmpfunc.obj
 0001:000a53a0       ?fix_fields@Item_func_between@@UAE_NPAVTHD@@PAPAVItem@@@Z 004a63a0 f   item_cmpfunc.obj
 0001:000a54d0       ?fix_length_and_dec@Item_func_between@@UAEXXZ 004a64d0 f   item_cmpfunc.obj
 0001:000a5a40       ?val_int@Item_func_between@@UAE_JXZ 004a6a40 f   item_cmpfunc.obj
 0001:000a6450       ?print@Item_func_between@@UAEXPAVString@@@Z 004a7450 f   item_cmpfunc.obj
 0001:000a6540       ?fix_length_and_dec@Item_func_ifnull@@UAEXXZ 004a7540 f   item_cmpfunc.obj
 0001:000a6920       ?decimal_precision@Item_func_ifnull@@UBEIXZ 004a7920 f   item_cmpfunc.obj
 0001:000a69c0       ?field_type@Item_func_ifnull@@UBE?AW4enum_field_types@@XZ 004a79c0 f   item_cmpfunc.obj
 0001:000a69e0       ?tmp_table_field@Item_func_ifnull@@UAEPAVField@@PAUst_table@@@Z 004a79e0 f   item_cmpfunc.obj
 0001:000a6a10       ?real_op@Item_func_ifnull@@UAENXZ 004a7a10 f   item_cmpfunc.obj
 0001:000a6af0       ?int_op@Item_func_ifnull@@UAE_JXZ 004a7af0 f   item_cmpfunc.obj
 0001:000a6be0       ?decimal_op@Item_func_ifnull@@UAEPAVmy_decimal@@PAV2@@Z 004a7be0 f   item_cmpfunc.obj
 0001:000a6cc0       ?str_op@Item_func_ifnull@@UAEPAVString@@PAV2@@Z 004a7cc0 f   item_cmpfunc.obj
 0001:000a6dc0       ?fix_fields@Item_func_if@@UAE_NPAVTHD@@PAPAVItem@@@Z 004a7dc0 f   item_cmpfunc.obj
 0001:000a6ea0       ?fix_length_and_dec@Item_func_if@@UAEXXZ 004a7ea0 f   item_cmpfunc.obj
 0001:000a72a0       ?decimal_precision@Item_func_if@@UBEIXZ 004a82a0 f   item_cmpfunc.obj
 0001:000a7340       ?val_real@Item_func_if@@UAENXZ 004a8340 f   item_cmpfunc.obj
 0001:000a7400       ?val_int@Item_func_if@@UAE_JXZ 004a8400 f   item_cmpfunc.obj
 0001:000a74d0       ?val_str@Item_func_if@@UAEPAVString@@PAV2@@Z 004a84d0 f   item_cmpfunc.obj
 0001:000a75b0       ?val_decimal@Item_func_if@@UAEPAVmy_decimal@@PAV2@@Z 004a85b0 f   item_cmpfunc.obj
 0001:000a7670       ?fix_length_and_dec@Item_func_nullif@@UAEXXZ 004a8670 f   item_cmpfunc.obj
 0001:000a7740       ?val_real@Item_func_nullif@@UAENXZ 004a8740 f   item_cmpfunc.obj
 0001:000a77f0       ?val_int@Item_func_nullif@@UAE_JXZ 004a87f0 f   item_cmpfunc.obj
 0001:000a78a0       ?val_str@Item_func_nullif@@UAEPAVString@@PAV2@@Z 004a88a0 f   item_cmpfunc.obj
 0001:000a7950       ?val_decimal@Item_func_nullif@@UAEPAVmy_decimal@@PAV2@@Z 004a8950 f   item_cmpfunc.obj
 0001:000a7a00       ?is_null@Item_func_nullif@@UAE_NXZ 004a8a00 f   item_cmpfunc.obj
 0001:000a7a60       ?find_item@Item_func_case@@QAEPAVItem@@PAVString@@@Z 004a8a60 f   item_cmpfunc.obj
 0001:000a81c0       ?val_str@Item_func_case@@UAEPAVString@@PAV2@@Z 004a91c0 f   item_cmpfunc.obj
 0001:000a8270       ?val_int@Item_func_case@@UAE_JXZ 004a9270 f   item_cmpfunc.obj
 0001:000a83f0       ?val_real@Item_func_case@@UAENXZ 004a93f0 f   item_cmpfunc.obj
 0001:000a8550       ?val_decimal@Item_func_case@@UAEPAVmy_decimal@@PAV2@@Z 004a9550 f   item_cmpfunc.obj
 0001:000a86b0       ?fix_fields@Item_func_case@@UAE_NPAVTHD@@PAPAVItem@@@Z 004a96b0 f   item_cmpfunc.obj
 0001:000a8760       ?agg_str_lengths@Item_func_case@@QAEXPAVItem@@@Z 004a9760 f   item_cmpfunc.obj
 0001:000a87f0       ?agg_num_lengths@Item_func_case@@QAEXPAVItem@@@Z 004a97f0 f   item_cmpfunc.obj
 0001:000a88b0       ?fix_length_and_dec@Item_func_case@@UAEXXZ 004a98b0 f   item_cmpfunc.obj
 0001:000a8bf0       ?decimal_precision@Item_func_case@@UBEIXZ 004a9bf0 f   item_cmpfunc.obj
 0001:000a8ce0       ?print@Item_func_case@@UAEXPAVString@@@Z 004a9ce0 f   item_cmpfunc.obj
 0001:000a8e90       ?str_op@Item_func_coalesce@@UAEPAVString@@PAV2@@Z 004a9e90 f   item_cmpfunc.obj
 0001:000a8f50       ?int_op@Item_func_coalesce@@UAE_JXZ 004a9f50 f   item_cmpfunc.obj
 0001:000a9020       ?real_op@Item_func_coalesce@@UAENXZ 004aa020 f   item_cmpfunc.obj
 0001:000a90f0       ?decimal_op@Item_func_coalesce@@UAEPAVmy_decimal@@PAV2@@Z 004aa0f0 f   item_cmpfunc.obj
 0001:000a91c0       ?fix_length_and_dec@Item_func_coalesce@@UAEXXZ 004aa1c0 f   item_cmpfunc.obj
 0001:000a92d0       ?cmp_longlong@@YAHPAXPAUpacked_longlong@in_longlong@@1@Z 004aa2d0 f   item_cmpfunc.obj
 0001:000a94f0       ?find@in_vector@@QAEHPAVItem@@@Z 004aa4f0 f   item_cmpfunc.obj
 0001:000a9610       ??0in_string@@QAE@IP6AHPBX00@ZPAUcharset_info_st@@@Z 004aa610 f   item_cmpfunc.obj
 0001:000a9670       ??1in_string@@UAE@XZ       004aa670 f   item_cmpfunc.obj
 0001:000a96f0       ?set@in_string@@UAEXIPAVItem@@@Z 004aa6f0 f   item_cmpfunc.obj
 0001:000a97d0       ?get_value@in_string@@UAEPAEPAVItem@@@Z 004aa7d0 f   item_cmpfunc.obj
 0001:000a9810       ??0in_row@@QAE@IPAVItem@@@Z 004aa810 f   item_cmpfunc.obj
 0001:000a9940       ??1in_row@@UAE@XZ          004aa940 f   item_cmpfunc.obj
 0001:000a9a00       ?get_value@in_row@@UAEPAEPAVItem@@@Z 004aaa00 f   item_cmpfunc.obj
 0001:000a9a70       ?set@in_row@@UAEXIPAVItem@@@Z 004aaa70 f   item_cmpfunc.obj
 0001:000a9bb0       ??0in_longlong@@QAE@I@Z    004aabb0 f   item_cmpfunc.obj
 0001:000a9bf0       ?set@in_longlong@@UAEXIPAVItem@@@Z 004aabf0 f   item_cmpfunc.obj
 0001:000a9c60       ?get_value@in_longlong@@UAEPAEPAVItem@@@Z 004aac60 f   item_cmpfunc.obj
 0001:000a9cd0       ?set@in_datetime@@UAEXIPAVItem@@@Z 004aacd0 f   item_cmpfunc.obj
 0001:000a9da0       ?get_value@in_datetime@@UAEPAEPAVItem@@@Z 004aada0 f   item_cmpfunc.obj
 0001:000a9e90       ??0in_double@@QAE@I@Z      004aae90 f   item_cmpfunc.obj
 0001:000a9f30       ?set@in_double@@UAEXIPAVItem@@@Z 004aaf30 f   item_cmpfunc.obj
 0001:000a9f70       ?get_value@in_double@@UAEPAEPAVItem@@@Z 004aaf70 f   item_cmpfunc.obj
 0001:000a9fc0       ??0in_decimal@@QAE@I@Z     004aafc0 f   item_cmpfunc.obj
 0001:000aa040       ?set@in_decimal@@UAEXIPAVItem@@@Z 004ab040 f   item_cmpfunc.obj
 0001:000aa0d0       ?get_value@in_decimal@@UAEPAEPAVItem@@@Z 004ab0d0 f   item_cmpfunc.obj
 0001:000aa130       ?get_comparator@cmp_item@@SAPAV1@W4Item_result@@PAUcharset_info_st@@@Z 004ab130 f   item_cmpfunc.obj
 0001:000aa290       ?make_same@cmp_item_sort_string@@UAEPAVcmp_item@@XZ 004ab290 f   item_cmpfunc.obj
 0001:000aa2f0       ?make_same@cmp_item_int@@UAEPAVcmp_item@@XZ 004ab2f0 f   item_cmpfunc.obj
 0001:000aa350       ?make_same@cmp_item_real@@UAEPAVcmp_item@@XZ 004ab350 f   item_cmpfunc.obj
 0001:000aa3b0       ?make_same@cmp_item_row@@UAEPAVcmp_item@@XZ 004ab3b0 f   item_cmpfunc.obj
 0001:000aa410       ??1cmp_item_row@@UAE@XZ    004ab410 f   item_cmpfunc.obj
 0001:000aa5a0       ?store_value@cmp_item_row@@UAEXPAVItem@@@Z 004ab5a0 f   item_cmpfunc.obj
 0001:000aa7f0       ?store_value_by_template@cmp_item_row@@UAEXPAVcmp_item@@PAVItem@@@Z 004ab7f0 f   item_cmpfunc.obj
 0001:000aa9a0       ?cmp@cmp_item_row@@UAEHPAVItem@@@Z 004ab9a0 f   item_cmpfunc.obj
 0001:000aaae0       ?compare@cmp_item_row@@UAEHPAVcmp_item@@@Z 004abae0 f   item_cmpfunc.obj
 0001:000aab80       ?store_value@cmp_item_decimal@@UAEXPAVItem@@@Z 004abb80 f   item_cmpfunc.obj
 0001:000aabf0       ?cmp@cmp_item_decimal@@UAEHPAVItem@@@Z 004abbf0 f   item_cmpfunc.obj
 0001:000aaca0       ?compare@cmp_item_decimal@@UAEHPAVcmp_item@@@Z 004abca0 f   item_cmpfunc.obj
 0001:000aacf0       ?make_same@cmp_item_decimal@@UAEPAVcmp_item@@XZ 004abcf0 f   item_cmpfunc.obj
 0001:000aad50       ?store_value@cmp_item_datetime@@UAEXPAVItem@@@Z 004abd50 f   item_cmpfunc.obj
 0001:000aae20       ?cmp@cmp_item_datetime@@UAEHPAVItem@@@Z 004abe20 f   item_cmpfunc.obj
 0001:000aaef0       ?compare@cmp_item_datetime@@UAEHPAVcmp_item@@@Z 004abef0 f   item_cmpfunc.obj
 0001:000aafa0       ?make_same@cmp_item_datetime@@UAEPAVcmp_item@@XZ 004abfa0 f   item_cmpfunc.obj
 0001:000ab000       ?nulls_in_row@Item_func_in@@QAE_NXZ 004ac000 f   item_cmpfunc.obj
 0001:000ab090       ?fix_fields@Item_func_in@@UAE_NPAVTHD@@PAPAVItem@@@Z 004ac090 f   item_cmpfunc.obj
 0001:000ab1b0       ?fix_length_and_dec@Item_func_in@@UAEXXZ 004ac1b0 f   item_cmpfunc.obj
 0001:000abb00       ?print@Item_func_in@@UAEXPAVString@@@Z 004acb00 f   item_cmpfunc.obj
 0001:000abba0       ?val_int@Item_func_in@@UAE_JXZ 004acba0 f   item_cmpfunc.obj
 0001:000abe00       ?val_int@Item_func_bit_or@@UAE_JXZ 004ace00 f   item_cmpfunc.obj
 0001:000abef0       ?val_int@Item_func_bit_and@@UAE_JXZ 004acef0 f   item_cmpfunc.obj
 0001:000abfe0       ??0Item_cond@@QAE@PAVTHD@@PAV0@@Z 004acfe0 f   item_cmpfunc.obj
 0001:000ac060       ?copy_andor_arguments@Item_cond@@QAEXPAVTHD@@PAV1@@Z 004ad060 f   item_cmpfunc.obj
 0001:000ac110       ?fix_fields@Item_cond@@UAE_NPAVTHD@@PAPAVItem@@@Z 004ad110 f   item_cmpfunc.obj
 0001:000ac4b0       ?walk@Item_cond@@UAE_NP8Item@@AE_NPAE@Z0@Z 004ad4b0 f   item_cmpfunc.obj
 0001:000ac570       ?transform@Item_cond@@UAEPAVItem@@P82@AEPAV2@PAE@Z0@Z 004ad570 f   item_cmpfunc.obj
 0001:000ac690       ?compile@Item_cond@@UAEPAVItem@@P82@AE_NPAPAE@Z0P82@AEPAV2@PAE@Z2@Z 004ad690 f   item_cmpfunc.obj
 0001:000ac7a0       ?traverse_cond@Item_cond@@UAEXP6AXPBVItem@@PAX@Z1W4traverse_order@2@@Z 004ad7a0 f   item_cmpfunc.obj
 0001:000ac8e0       ?split_sum_func@Item_cond@@UAEXPAVTHD@@PAPAVItem@@AAV?$List@VItem@@@@@Z 004ad8e0 f   item_cmpfunc.obj
 0001:000ac990       ?used_tables@Item_cond@@UBE_KXZ 004ad990 f   item_cmpfunc.obj
 0001:000ac9b0       ?update_used_tables@Item_cond@@UAEXXZ 004ad9b0 f   item_cmpfunc.obj
 0001:000acac0       ?print@Item_cond@@UAEXPAVString@@@Z 004adac0 f   item_cmpfunc.obj
 0001:000acbe0       ?neg_arguments@Item_cond@@QAEXPAVTHD@@@Z 004adbe0 f   item_cmpfunc.obj
 0001:000accd0       ?val_int@Item_cond_and@@UAE_JXZ 004adcd0 f   item_cmpfunc.obj
 0001:000acde0       ?val_int@Item_cond_or@@UAE_JXZ 004adde0 f   item_cmpfunc.obj
 0001:000aced0       ?and_expressions@@YAPAVItem@@PAV1@0PAPAV1@@Z 004aded0 f   item_cmpfunc.obj
 0001:000ad040       ?val_int@Item_func_isnull@@UAE_JXZ 004ae040 f   item_cmpfunc.obj
 0001:000ad0f0       ?val_int@Item_is_not_null_test@@UAE_JXZ 004ae0f0 f   item_cmpfunc.obj
 0001:000ad360       ?update_used_tables@Item_is_not_null_test@@UAEXXZ 004ae360 f   item_cmpfunc.obj
 0001:000ad490       ?val_int@Item_func_isnotnull@@UAE_JXZ 004ae490 f   item_cmpfunc.obj
 0001:000ad500       ?print@Item_func_isnotnull@@UAEXPAVString@@@Z 004ae500 f   item_cmpfunc.obj
 0001:000ad560       ?val_int@Item_func_like@@UAE_JXZ 004ae560 f   item_cmpfunc.obj
 0001:000ad710       ?select_optimize@Item_func_like@@UBE?AW4optimize_type@Item_func@@XZ 004ae710 f   item_cmpfunc.obj
 0001:000ad800       ?fix_fields@Item_func_like@@UAE_NPAVTHD@@PAPAVItem@@@Z 004ae800 f   item_cmpfunc.obj
 0001:000add80       ?cleanup@Item_func_like@@UAEXXZ 004aed80 f   item_cmpfunc.obj
 0001:000addb0       ?regcomp@Item_func_regex@@AAE_N_N@Z 004aedb0 f   item_cmpfunc.obj
 0001:000ae090       ?fix_fields@Item_func_regex@@UAE_NPAVTHD@@PAPAVItem@@@Z 004af090 f   item_cmpfunc.obj
 0001:000ae440       ?val_int@Item_func_regex@@UAE_JXZ 004af440 f   item_cmpfunc.obj
 0001:000ae6c0       ?cleanup@Item_func_regex@@UAEXXZ 004af6c0 f   item_cmpfunc.obj
 0001:000ae7d0       ?turboBM_compute_suffixes@Item_func_like@@AAEXPAH@Z 004af7d0 f   item_cmpfunc.obj
 0001:000ae9e0       ?turboBM_compute_good_suffix_shifts@Item_func_like@@AAEXPAH@Z 004af9e0 f   item_cmpfunc.obj
 0001:000aeb90       ?turboBM_compute_bad_character_shifts@Item_func_like@@AAEXXZ 004afb90 f   item_cmpfunc.obj
 0001:000aecb0       ?turboBM_matches@Item_func_like@@ABE_NPBDH@Z 004afcb0 f   item_cmpfunc.obj
 0001:000af030       ?val_int@Item_cond_xor@@UAE_JXZ 004b0030 f   item_cmpfunc.obj
 0001:000af140       ?neg_transformer@Item_func_not@@UAEPAVItem@@PAVTHD@@@Z 004b0140 f   item_cmpfunc.obj
 0001:000af160       ?neg_transformer@Item_bool_rowready_func2@@UAEPAVItem@@PAVTHD@@@Z 004b0160 f   item_cmpfunc.obj
 0001:000af1b0       ?neg_transformer@Item_func_isnull@@UAEPAVItem@@PAVTHD@@@Z 004b01b0 f   item_cmpfunc.obj
 0001:000af220       ?neg_transformer@Item_func_isnotnull@@UAEPAVItem@@PAVTHD@@@Z 004b0220 f   item_cmpfunc.obj
 0001:000af290       ?neg_transformer@Item_cond_and@@UAEPAVItem@@PAVTHD@@@Z 004b0290 f   item_cmpfunc.obj
 0001:000af310       ?neg_transformer@Item_cond_or@@UAEPAVItem@@PAVTHD@@@Z 004b0310 f   item_cmpfunc.obj
 0001:000af390       ?neg_transformer@Item_func_nop_all@@UAEPAVItem@@PAVTHD@@@Z 004b0390 f   item_cmpfunc.obj
 0001:000af450       ?neg_transformer@Item_func_not_all@@UAEPAVItem@@PAVTHD@@@Z 004b0450 f   item_cmpfunc.obj
 0001:000af510       ?negated_item@Item_func_eq@@UAEPAVItem@@XZ 004b0510 f   item_cmpfunc.obj
 0001:000af580       ?negated_item@Item_func_ne@@UAEPAVItem@@XZ 004b0580 f   item_cmpfunc.obj
 0001:000af5f0       ?negated_item@Item_func_lt@@UAEPAVItem@@XZ 004b05f0 f   item_cmpfunc.obj
 0001:000af660       ?negated_item@Item_func_ge@@UAEPAVItem@@XZ 004b0660 f   item_cmpfunc.obj
 0001:000af6d0       ?negated_item@Item_func_gt@@UAEPAVItem@@XZ 004b06d0 f   item_cmpfunc.obj
 0001:000af740       ?negated_item@Item_func_le@@UAEPAVItem@@XZ 004b0740 f   item_cmpfunc.obj
 0001:000af7b0       ?negated_item@Item_bool_rowready_func2@@UAEPAVItem@@XZ 004b07b0 f   item_cmpfunc.obj
 0001:000af7f0       ??0Item_equal@@QAE@PAVItem_field@@0@Z 004b07f0 f   item_cmpfunc.obj
 0001:000af880       ??0Item_equal@@QAE@PAVItem@@PAVItem_field@@@Z 004b0880 f   item_cmpfunc.obj
 0001:000af900       ??0Item_equal@@QAE@PAV0@@Z 004b0900 f   item_cmpfunc.obj
 0001:000afa00       ?add@Item_equal@@QAEXPAVItem@@@Z 004b0a00 f   item_cmpfunc.obj
 0001:000afb00       ?add@Item_equal@@QAEXPAVItem_field@@@Z 004b0b00 f   item_cmpfunc.obj
 0001:000afb30       ?members@Item_equal@@QAEIXZ 004b0b30 f   item_cmpfunc.obj
 0001:000afb50       ?contains@Item_equal@@QAE_NPAVField@@@Z 004b0b50 f   item_cmpfunc.obj
 0001:000afc00       ?merge@Item_equal@@QAEXPAV1@@Z 004b0c00 f   item_cmpfunc.obj
 0001:000afc80       ?sort@Item_equal@@QAEXP6AHPAVItem_field@@0PAX@Z1@Z 004b0c80 f   item_cmpfunc.obj
 0001:000afd90       ?update_const@Item_equal@@QAEXXZ 004b0d90 f   item_cmpfunc.obj
 0001:000afe50       ?fix_fields@Item_equal@@UAE_NPAVTHD@@PAPAVItem@@@Z 004b0e50 f   item_cmpfunc.obj
 0001:000aff80       ?update_used_tables@Item_equal@@UAEXXZ 004b0f80 f   item_cmpfunc.obj
 0001:000b00b0       ?val_int@Item_equal@@UAE_JXZ 004b10b0 f   item_cmpfunc.obj
 0001:000b0220       ?fix_length_and_dec@Item_equal@@UAEXXZ 004b1220 f   item_cmpfunc.obj
 0001:000b0280       ?walk@Item_equal@@UAE_NP8Item@@AE_NPAE@Z0@Z 004b1280 f   item_cmpfunc.obj
 0001:000b0340       ?transform@Item_equal@@UAEPAVItem@@P82@AEPAV2@PAE@Z0@Z 004b1340 f   item_cmpfunc.obj
 0001:000b0460       ?print@Item_equal@@UAEXPAVString@@@Z 004b1460 f   item_cmpfunc.obj
 0001:000b4590       ??0Item_func_eq@@QAE@PAVItem@@0@Z 004b5590 f i item_cmpfunc.obj
 0001:000b45e0       ?result_type@Item_int_func@@UBE?AW4Item_result@@XZ 004b55e0 f i item_cmpfunc.obj
 0001:000b4600       ?select_optimize@Item_bool_func2@@UBE?AW4optimize_type@Item_func@@XZ 004b5600 f i item_cmpfunc.obj
 0001:000b4620       ?have_rev_func@Item_bool_func2@@UBE_NXZ 004b5620 f i item_cmpfunc.obj
 0001:000b4670       ?print@Item_bool_func2@@UAEXPAVString@@@Z 004b5670 f i item_cmpfunc.obj
 0001:000b46b0       ?is_null@Item_bool_func2@@UAE_NXZ 004b56b0 f i item_cmpfunc.obj
 0001:000b4760       ?is_bool_func@Item_bool_func2@@UAE_NXZ 004b5760 f i item_cmpfunc.obj
 0001:000b4780       ?compare_collation@Item_bool_func2@@UAEPAUcharset_info_st@@XZ 004b5780 f i item_cmpfunc.obj
 0001:000b47b0       ?decimal_precision@Item_bool_func2@@UBEIXZ 004b57b0 f i item_cmpfunc.obj
 0001:000b47d0       ?top_level_item@Item_bool_func2@@UAEXXZ 004b57d0 f i item_cmpfunc.obj
 0001:000b4800       ??0Item_bool_rowready_func2@@QAE@PAVItem@@0@Z 004b5800 f i item_cmpfunc.obj
 0001:000b4860       ??0Item_bool_func2@@QAE@PAVItem@@0@Z 004b5860 f i item_cmpfunc.obj
 0001:000b4900       ??0Item_int_func@@QAE@PAVItem@@0@Z 004b5900 f i item_cmpfunc.obj
 0001:000b4960       ??0Item_func@@QAE@PAVItem@@0@Z 004b5960 f i item_cmpfunc.obj
 0001:000b4a30       ?fix_length_and_dec@Item_int_func@@UAEXXZ 004b5a30 f i item_cmpfunc.obj
 0001:000b4a50       ??_EItem_int_func@@UAEPAXI@Z 004b5a50 f i item_cmpfunc.obj
 0001:000b4a50       ??_GItem_int_func@@UAEPAXI@Z 004b5a50 f i item_cmpfunc.obj
 0001:000b4ab0       ??1Item_int_func@@UAE@XZ   004b5ab0 f i item_cmpfunc.obj
 0001:000b4ae0       ??0Arg_comparator@@QAE@PAPAVItem@@0@Z 004b5ae0 f i item_cmpfunc.obj
 0001:000b4b60       ??0DTCollation@@QAE@XZ     004b5b60 f i item_cmpfunc.obj
 0001:000b4ba0       ?rev_functype@Item_bool_func2@@UBE?AW4Functype@Item_func@@XZ 004b5ba0 f i item_cmpfunc.obj
 0001:000b4bc0       ??_GItem_bool_func2@@UAEPAXI@Z 004b5bc0 f i item_cmpfunc.obj
 0001:000b4bc0       ??_EItem_bool_func2@@UAEPAXI@Z 004b5bc0 f i item_cmpfunc.obj
 0001:000b4c20       ??1Item_bool_func2@@UAE@XZ 004b5c20 f i item_cmpfunc.obj
 0001:000b4c90       ??1Arg_comparator@@QAE@XZ  004b5c90 f i item_cmpfunc.obj
 0001:000b4cc0       ?subst_argument_checker@Item_bool_rowready_func2@@UAE_NPAPAE@Z 004b5cc0 f i item_cmpfunc.obj
 0001:000b4ce0       ??_GItem_bool_rowready_func2@@UAEPAXI@Z 004b5ce0 f i item_cmpfunc.obj
 0001:000b4ce0       ??_EItem_bool_rowready_func2@@UAEPAXI@Z 004b5ce0 f i item_cmpfunc.obj
 0001:000b4d40       ??1Item_bool_rowready_func2@@UAE@XZ 004b5d40 f i item_cmpfunc.obj
 0001:000b4d70       ?functype@Item_func_eq@@UBE?AW4Functype@Item_func@@XZ 004b5d70 f i item_cmpfunc.obj
 0001:000b4d90       ?rev_functype@Item_func_eq@@UBE?AW4Functype@Item_func@@XZ 004b5d90 f i item_cmpfunc.obj
 0001:000b4db0       ?eq_cmp_result@Item_func_eq@@UBE?AW4cond_result@Item@@XZ 004b5db0 f i item_cmpfunc.obj
 0001:000b4dd0       ?func_name@Item_func_eq@@UBEPBDXZ 004b5dd0 f i item_cmpfunc.obj
 0001:000b4df0       ??_EItem_func_eq@@UAEPAXI@Z 004b5df0 f i item_cmpfunc.obj
 0001:000b4df0       ??_GItem_func_eq@@UAEPAXI@Z 004b5df0 f i item_cmpfunc.obj
 0001:000b4e50       ??1Item_func_eq@@UAE@XZ    004b5e50 f i item_cmpfunc.obj
 0001:000b4e80       ??0Item_func_ne@@QAE@PAVItem@@0@Z 004b5e80 f i item_cmpfunc.obj
 0001:000b4ed0       ?functype@Item_func_ne@@UBE?AW4Functype@Item_func@@XZ 004b5ed0 f i item_cmpfunc.obj
 0001:000b4ef0       ?eq_cmp_result@Item_func_ne@@UBE?AW4cond_result@Item@@XZ 004b5ef0 f i item_cmpfunc.obj
 0001:000b4f10       ?select_optimize@Item_func_ne@@UBE?AW4optimize_type@Item_func@@XZ 004b5f10 f i item_cmpfunc.obj
 0001:000b4f30       ?func_name@Item_func_ne@@UBEPBDXZ 004b5f30 f i item_cmpfunc.obj
 0001:000b4f50       ??_EItem_func_ne@@UAEPAXI@Z 004b5f50 f i item_cmpfunc.obj
 0001:000b4f50       ??_GItem_func_ne@@UAEPAXI@Z 004b5f50 f i item_cmpfunc.obj
 0001:000b4fb0       ??1Item_func_ne@@UAE@XZ    004b5fb0 f i item_cmpfunc.obj
 0001:000b4fe0       ??0Item_func_gt@@QAE@PAVItem@@0@Z 004b5fe0 f i item_cmpfunc.obj
 0001:000b5030       ?functype@Item_func_gt@@UBE?AW4Functype@Item_func@@XZ 004b6030 f i item_cmpfunc.obj
 0001:000b5050       ?rev_functype@Item_func_gt@@UBE?AW4Functype@Item_func@@XZ 004b6050 f i item_cmpfunc.obj
 0001:000b5070       ?eq_cmp_result@Item_func_gt@@UBE?AW4cond_result@Item@@XZ 004b6070 f i item_cmpfunc.obj
 0001:000b5090       ?func_name@Item_func_gt@@UBEPBDXZ 004b6090 f i item_cmpfunc.obj
 0001:000b50b0       ??_EItem_func_gt@@UAEPAXI@Z 004b60b0 f i item_cmpfunc.obj
 0001:000b50b0       ??_GItem_func_gt@@UAEPAXI@Z 004b60b0 f i item_cmpfunc.obj
 0001:000b5110       ??1Item_func_gt@@UAE@XZ    004b6110 f i item_cmpfunc.obj
 0001:000b5140       ??0Item_func_lt@@QAE@PAVItem@@0@Z 004b6140 f i item_cmpfunc.obj
 0001:000b5190       ?functype@Item_func_lt@@UBE?AW4Functype@Item_func@@XZ 004b6190 f i item_cmpfunc.obj
 0001:000b51b0       ?rev_functype@Item_func_lt@@UBE?AW4Functype@Item_func@@XZ 004b61b0 f i item_cmpfunc.obj
 0001:000b51d0       ?eq_cmp_result@Item_func_lt@@UBE?AW4cond_result@Item@@XZ 004b61d0 f i item_cmpfunc.obj
 0001:000b51f0       ?func_name@Item_func_lt@@UBEPBDXZ 004b61f0 f i item_cmpfunc.obj
 0001:000b5210       ??_EItem_func_lt@@UAEPAXI@Z 004b6210 f i item_cmpfunc.obj
 0001:000b5210       ??_GItem_func_lt@@UAEPAXI@Z 004b6210 f i item_cmpfunc.obj
 0001:000b5270       ??1Item_func_lt@@UAE@XZ    004b6270 f i item_cmpfunc.obj
 0001:000b52a0       ??0Item_func_ge@@QAE@PAVItem@@0@Z 004b62a0 f i item_cmpfunc.obj
 0001:000b52f0       ?functype@Item_func_ge@@UBE?AW4Functype@Item_func@@XZ 004b62f0 f i item_cmpfunc.obj
 0001:000b5310       ?rev_functype@Item_func_ge@@UBE?AW4Functype@Item_func@@XZ 004b6310 f i item_cmpfunc.obj
 0001:000b5330       ?eq_cmp_result@Item_func_ge@@UBE?AW4cond_result@Item@@XZ 004b6330 f i item_cmpfunc.obj
 0001:000b5350       ?func_name@Item_func_ge@@UBEPBDXZ 004b6350 f i item_cmpfunc.obj
 0001:000b5370       ??_GItem_func_ge@@UAEPAXI@Z 004b6370 f i item_cmpfunc.obj
 0001:000b5370       ??_EItem_func_ge@@UAEPAXI@Z 004b6370 f i item_cmpfunc.obj
 0001:000b53d0       ??1Item_func_ge@@UAE@XZ    004b63d0 f i item_cmpfunc.obj
 0001:000b5400       ??0Item_func_le@@QAE@PAVItem@@0@Z 004b6400 f i item_cmpfunc.obj
 0001:000b5450       ?functype@Item_func_le@@UBE?AW4Functype@Item_func@@XZ 004b6450 f i item_cmpfunc.obj
 0001:000b5470       ?rev_functype@Item_func_le@@UBE?AW4Functype@Item_func@@XZ 004b6470 f i item_cmpfunc.obj
 0001:000b5490       ?eq_cmp_result@Item_func_le@@UBE?AW4cond_result@Item@@XZ 004b6490 f i item_cmpfunc.obj
 0001:000b54b0       ?func_name@Item_func_le@@UBEPBDXZ 004b64b0 f i item_cmpfunc.obj
 0001:000b54d0       ??_GItem_func_le@@UAEPAXI@Z 004b64d0 f i item_cmpfunc.obj
 0001:000b54d0       ??_EItem_func_le@@UAEPAXI@Z 004b64d0 f i item_cmpfunc.obj
 0001:000b5530       ??1Item_func_le@@UAE@XZ    004b6530 f i item_cmpfunc.obj
 0001:000b5560       ?any_value@Item_sum_hybrid@@QAE_NXZ 004b6560 f i item_cmpfunc.obj
 0001:000b5590       ?any_value@Item_maxmin_subselect@@QAE_NXZ 004b6590 f i item_cmpfunc.obj
 0001:000b55c0       ?agg_arg_charsets@Item_func@@QAE_NAAVDTCollation@@PAPAVItem@@IIH@Z 004b65c0 f i item_cmpfunc.obj
 0001:000b5630       ?set_cmp_func@Item_bool_func2@@QAEXXZ 004b6630 f i item_cmpfunc.obj
 0001:000b5680       ?set_cmp_func@Arg_comparator@@QAEHPAVItem_bool_func2@@PAPAVItem@@1@Z 004b6680 f i item_cmpfunc.obj
 0001:000b5710       ?is_context_analysis_only@THD@@QAE_NXZ 004b6710 f i item_cmpfunc.obj
 0001:000b5790       ??0Item_int_with_ref@@QAE@_JPAVItem@@D@Z 004b6790 f i item_cmpfunc.obj
 0001:000b5800       ??0Item_int@@QAE@_JI@Z     004b6800 f i item_cmpfunc.obj
 0001:000b5870       ?save_in_field@Item_int_with_ref@@UAEHPAVField@@_N@Z 004b6870 f i item_cmpfunc.obj
 0001:000b58d0       ?real_item@Item_int_with_ref@@UAEPAVItem@@XZ 004b68d0 f i item_cmpfunc.obj
 0001:000b58f0       ??_GItem_int_with_ref@@UAEPAXI@Z 004b68f0 f i item_cmpfunc.obj
 0001:000b58f0       ??_EItem_int_with_ref@@UAEPAXI@Z 004b68f0 f i item_cmpfunc.obj
 0001:000b5940       ??1Item_int_with_ref@@UAE@XZ 004b6940 f i item_cmpfunc.obj
 0001:000b5970       ??_USql_alloc@@SAPAXI@Z    004b6970 f i item_cmpfunc.obj
 0001:000b5990       ?set@DTCollation@@QAE_NAAV1@0I@Z 004b6990 f i item_cmpfunc.obj
 0001:000b59e0       ??0Arg_comparator@@QAE@XZ  004b69e0 f i item_cmpfunc.obj
 0001:000b5a50       ??_EArg_comparator@@QAEPAXI@Z 004b6a50 f i item_cmpfunc.obj
 0001:000b5af0       ??_VSql_alloc@@SAXPAXI@Z   004b6af0 f i item_cmpfunc.obj
 0001:000b5b20       ?set_used_tables@Item_cache@@QAEX_K@Z 004b6b20 f i item_cmpfunc.obj
 0001:000b5b50       ?compare@Arg_comparator@@QAEHXZ 004b6b50 f i item_cmpfunc.obj
 0001:000b5b90       ?set_cond_guard_var@Item_in_subselect@@QAEXH_N@Z 004b6b90 f i item_cmpfunc.obj
 0001:000b5bd0       ?is_top_level_item@Item_in_subselect@@QAE_NXZ 004b6bd0 f i item_cmpfunc.obj
 0001:000b5c00       ?arguments@Item_func@@QBEPAPAVItem@@XZ 004b6c00 f i item_cmpfunc.obj
 0001:000b5c20       ??0in_vector@@QAE@IIP6AHPBX00@ZPAUcharset_info_st@@@Z 004b6c20 f i item_cmpfunc.obj
 0001:000b5cc0       ?create_item@in_vector@@UAEPAVItem@@XZ 004b6cc0 f i item_cmpfunc.obj
 0001:000b5ce0       ?value_to_item@in_vector@@UAEXIPAVItem@@@Z 004b6ce0 f i item_cmpfunc.obj
 0001:000b5d00       ??_Gin_vector@@UAEPAXI@Z   004b6d00 f i item_cmpfunc.obj
 0001:000b5d00       ??_Ein_vector@@UAEPAXI@Z   004b6d00 f i item_cmpfunc.obj
 0001:000b5d50       ??1in_vector@@UAE@XZ       004b6d50 f i item_cmpfunc.obj
 0001:000b5dc0       ?create_item@in_string@@UAEPAVItem@@XZ 004b6dc0 f i item_cmpfunc.obj
 0001:000b5e40       ??0Item_string@@QAE@PAUcharset_info_st@@W4Derivation@@@Z 004b6e40 f i item_cmpfunc.obj
 0001:000b5ed0       ?value_to_item@in_string@@UAEXIPAVItem@@@Z 004b6ed0 f i item_cmpfunc.obj
 0001:000b5f40       ??4String@@QAEAAV0@ABV0@@Z 004b6f40 f i item_cmpfunc.obj
 0001:000b5ff0       ?uses_buffer_owned_by@String@@QBE_NPBV1@@Z 004b6ff0 f i item_cmpfunc.obj
 0001:000b6060       ??_Gin_string@@UAEPAXI@Z   004b7060 f i item_cmpfunc.obj
 0001:000b6060       ??_Ein_string@@UAEPAXI@Z   004b7060 f i item_cmpfunc.obj
 0001:000b60c0       ??0in_vector@@QAE@XZ       004b70c0 f i item_cmpfunc.obj
 0001:000b6100       ??0cmp_item_row@@QAE@XZ    004b7100 f i item_cmpfunc.obj
 0001:000b6160       ??0cmp_item@@QAE@XZ        004b7160 f i item_cmpfunc.obj
 0001:000b61b0       ?store_value_by_template@cmp_item@@UAEXPAV1@PAVItem@@@Z 004b71b0 f i item_cmpfunc.obj
 0001:000b6200       ??_Gcmp_item@@UAEPAXI@Z    004b7200 f i item_cmpfunc.obj
 0001:000b6200       ??_Ecmp_item@@UAEPAXI@Z    004b7200 f i item_cmpfunc.obj
 0001:000b6250       ??1cmp_item@@UAE@XZ        004b7250 f i item_cmpfunc.obj
 0001:000b62c0       ??_Ein_row@@UAEPAXI@Z      004b72c0 f i item_cmpfunc.obj
 0001:000b62c0       ??_Gin_row@@UAEPAXI@Z      004b72c0 f i item_cmpfunc.obj
 0001:000b6310       ??_Ecmp_item_row@@UAEPAXI@Z 004b7310 f i item_cmpfunc.obj
 0001:000b63b0       ?create_item@in_longlong@@UAEPAVItem@@XZ 004b73b0 f i item_cmpfunc.obj
 0001:000b6430       ?value_to_item@in_longlong@@UAEXIPAVItem@@@Z 004b7430 f i item_cmpfunc.obj
 0001:000b6490       ??_Gin_longlong@@UAEPAXI@Z 004b7490 f i item_cmpfunc.obj
 0001:000b6490       ??_Ein_longlong@@UAEPAXI@Z 004b7490 f i item_cmpfunc.obj
 0001:000b64e0       ??1in_longlong@@UAE@XZ     004b74e0 f i item_cmpfunc.obj
 0001:000b6510       ?create_item@in_double@@UAEPAVItem@@XZ 004b7510 f i item_cmpfunc.obj
 0001:000b6590       ??0Item_float@@QAE@N@Z     004b7590 f i item_cmpfunc.obj
 0001:000b65f0       ?value_to_item@in_double@@UAEXIPAVItem@@@Z 004b75f0 f i item_cmpfunc.obj
 0001:000b6620       ??_Gin_double@@UAEPAXI@Z   004b7620 f i item_cmpfunc.obj
 0001:000b6620       ??_Ein_double@@UAEPAXI@Z   004b7620 f i item_cmpfunc.obj
 0001:000b6670       ??1in_double@@UAE@XZ       004b7670 f i item_cmpfunc.obj
 0001:000b66a0       ?create_item@in_decimal@@UAEPAVItem@@XZ 004b76a0 f i item_cmpfunc.obj
 0001:000b6720       ?value_to_item@in_decimal@@UAEXIPAVItem@@@Z 004b7720 f i item_cmpfunc.obj
 0001:000b6790       ??_Gin_decimal@@UAEPAXI@Z  004b7790 f i item_cmpfunc.obj
 0001:000b6790       ??_Ein_decimal@@UAEPAXI@Z  004b7790 f i item_cmpfunc.obj
 0001:000b67e0       ??1in_decimal@@UAE@XZ      004b77e0 f i item_cmpfunc.obj
 0001:000b6810       ??0cmp_item_sort_string@@QAE@PAUcharset_info_st@@@Z 004b7810 f i item_cmpfunc.obj
 0001:000b6880       ??0cmp_item_string@@QAE@PAUcharset_info_st@@@Z 004b7880 f i item_cmpfunc.obj
 0001:000b68d0       ??_Ecmp_item_string@@UAEPAXI@Z 004b78d0 f i item_cmpfunc.obj
 0001:000b68d0       ??_Gcmp_item_string@@UAEPAXI@Z 004b78d0 f i item_cmpfunc.obj
 0001:000b6920       ??1cmp_item_string@@UAE@XZ 004b7920 f i item_cmpfunc.obj
 0001:000b6950       ?store_value@cmp_item_sort_string@@UAEXPAVItem@@@Z 004b7950 f i item_cmpfunc.obj
 0001:000b69b0       ?cmp@cmp_item_sort_string@@UAEHPAVItem@@@Z 004b79b0 f i item_cmpfunc.obj
 0001:000b6b20       ?compare@cmp_item_sort_string@@UAEHPAVcmp_item@@@Z 004b7b20 f i item_cmpfunc.obj
 0001:000b6b80       ??_Gcmp_item_sort_string@@UAEPAXI@Z 004b7b80 f i item_cmpfunc.obj
 0001:000b6b80       ??_Ecmp_item_sort_string@@UAEPAXI@Z 004b7b80 f i item_cmpfunc.obj
 0001:000b6bd0       ??1cmp_item_sort_string@@UAE@XZ 004b7bd0 f i item_cmpfunc.obj
 0001:000b6c10       ??0cmp_item_int@@QAE@XZ    004b7c10 f i item_cmpfunc.obj
 0001:000b6c50       ?store_value@cmp_item_int@@UAEXPAVItem@@@Z 004b7c50 f i item_cmpfunc.obj
 0001:000b6ca0       ?cmp@cmp_item_int@@UAEHPAVItem@@@Z 004b7ca0 f i item_cmpfunc.obj
 0001:000b6d40       ?compare@cmp_item_int@@UAEHPAVcmp_item@@@Z 004b7d40 f i item_cmpfunc.obj
 0001:000b6e10       ??_Gcmp_item_int@@UAEPAXI@Z 004b7e10 f i item_cmpfunc.obj
 0001:000b6e10       ??_Ecmp_item_int@@UAEPAXI@Z 004b7e10 f i item_cmpfunc.obj
 0001:000b6e60       ??1cmp_item_int@@UAE@XZ    004b7e60 f i item_cmpfunc.obj
 0001:000b6e90       ??0cmp_item_real@@QAE@XZ   004b7e90 f i item_cmpfunc.obj
 0001:000b6ed0       ?store_value@cmp_item_real@@UAEXPAVItem@@@Z 004b7ed0 f i item_cmpfunc.obj
 0001:000b6f20       ?cmp@cmp_item_real@@UAEHPAVItem@@@Z 004b7f20 f i item_cmpfunc.obj
 0001:000b6fa0       ?compare@cmp_item_real@@UAEHPAVcmp_item@@@Z 004b7fa0 f i item_cmpfunc.obj
 0001:000b7030       ??_Ecmp_item_real@@UAEPAXI@Z 004b8030 f i item_cmpfunc.obj
 0001:000b7030       ??_Gcmp_item_real@@UAEPAXI@Z 004b8030 f i item_cmpfunc.obj
 0001:000b7080       ??1cmp_item_real@@UAE@XZ   004b8080 f i item_cmpfunc.obj
 0001:000b70b0       ??0cmp_item_decimal@@QAE@XZ 004b80b0 f i item_cmpfunc.obj
 0001:000b7100       ??_Gcmp_item_decimal@@UAEPAXI@Z 004b8100 f i item_cmpfunc.obj
 0001:000b7100       ??_Ecmp_item_decimal@@UAEPAXI@Z 004b8100 f i item_cmpfunc.obj
 0001:000b7150       ??1cmp_item_decimal@@UAE@XZ 004b8150 f i item_cmpfunc.obj
 0001:000b7180       ??0cmp_item_sort_string_in_static@@QAE@PAUcharset_info_st@@@Z 004b8180 f i item_cmpfunc.obj
 0001:000b71e0       ?store_value@cmp_item_sort_string_in_static@@UAEXPAVItem@@@Z 004b81e0 f i item_cmpfunc.obj
 0001:000b7240       ?cmp@cmp_item_sort_string_in_static@@UAEHPAVItem@@@Z 004b8240 f i item_cmpfunc.obj
 0001:000b7290       ?compare@cmp_item_sort_string_in_static@@UAEHPAVcmp_item@@@Z 004b8290 f i item_cmpfunc.obj
 0001:000b72f0       ?make_same@cmp_item_sort_string_in_static@@UAEPAVcmp_item@@XZ 004b82f0 f i item_cmpfunc.obj
 0001:000b7370       ??_Ecmp_item_sort_string_in_static@@UAEPAXI@Z 004b8370 f i item_cmpfunc.obj
 0001:000b7370       ??_Gcmp_item_sort_string_in_static@@UAEPAXI@Z 004b8370 f i item_cmpfunc.obj
 0001:000b73c0       ??1cmp_item_sort_string_in_static@@UAE@XZ 004b83c0 f i item_cmpfunc.obj
 0001:000b7400       ?alloc_comparators@cmp_item_row@@QAEXXZ 004b8400 f i item_cmpfunc.obj
 0001:000b7460       ??0cmp_item_datetime@@QAE@PAVItem@@@Z 004b8460 f i item_cmpfunc.obj
 0001:000b74d0       ??_Gcmp_item_datetime@@UAEPAXI@Z 004b84d0 f i item_cmpfunc.obj
 0001:000b74d0       ??_Ecmp_item_datetime@@UAEPAXI@Z 004b84d0 f i item_cmpfunc.obj
 0001:000b7520       ??1cmp_item_datetime@@UAE@XZ 004b8520 f i item_cmpfunc.obj
 0001:000b7550       ?sort@in_vector@@QAEXXZ    004b8550 f i item_cmpfunc.obj
 0001:000b75b0       ??0in_datetime@@QAE@PAVItem@@I@Z 004b85b0 f i item_cmpfunc.obj
 0001:000b7620       ??_Gin_datetime@@UAEPAXI@Z 004b8620 f i item_cmpfunc.obj
 0001:000b7620       ??_Ein_datetime@@UAEPAXI@Z 004b8620 f i item_cmpfunc.obj
 0001:000b7670       ??1in_datetime@@UAE@XZ     004b8670 f i item_cmpfunc.obj
 0001:000b76a0       ??0Item_bool_func@@QAE@PAVTHD@@PAV0@@Z 004b86a0 f i item_cmpfunc.obj
 0001:000b76f0       ??0Item_int_func@@QAE@PAVTHD@@PAV0@@Z 004b86f0 f i item_cmpfunc.obj
 0001:000b7740       ?is_bool_func@Item_bool_func@@UAE_NXZ 004b8740 f i item_cmpfunc.obj
 0001:000b7760       ?fix_length_and_dec@Item_bool_func@@UAEXXZ 004b8760 f i item_cmpfunc.obj
 0001:000b7790       ?decimal_precision@Item_bool_func@@UBEIXZ 004b8790 f i item_cmpfunc.obj
 0001:000b77b0       ??_EItem_bool_func@@UAEPAXI@Z 004b87b0 f i item_cmpfunc.obj
 0001:000b77b0       ??_GItem_bool_func@@UAEPAXI@Z 004b87b0 f i item_cmpfunc.obj
 0001:000b7810       ??1Item_bool_func@@UAE@XZ  004b8810 f i item_cmpfunc.obj
 0001:000b7840       ?type@Item_cond@@UBE?AW4Type@Item@@XZ 004b8840 f i item_cmpfunc.obj
 0001:000b7860       ?top_level_item@Item_cond@@UAEXXZ 004b8860 f i item_cmpfunc.obj
 0001:000b7890       ?subst_argument_checker@Item_cond@@UAE_NPAPAE@Z 004b8890 f i item_cmpfunc.obj
 0001:000b78b0       ?field_type@Item_cond@@UBE?AW4enum_field_types@@XZ 004b88b0 f i item_cmpfunc.obj
 0001:000b78d0       ??_EItem_cond@@UAEPAXI@Z   004b88d0 f i item_cmpfunc.obj
 0001:000b78d0       ??_GItem_cond@@UAEPAXI@Z   004b88d0 f i item_cmpfunc.obj
 0001:000b7930       ??1Item_cond@@UAE@XZ       004b8930 f i item_cmpfunc.obj
 0001:000b7970       ?is_empty@base_list@@QAE_NXZ 004b8970 f i item_cmpfunc.obj
 0001:000b79a0       ??0Item_func_not@@QAE@PAVItem@@@Z 004b89a0 f i item_cmpfunc.obj
 0001:000b79f0       ??0Item_bool_func@@QAE@PAVItem@@@Z 004b89f0 f i item_cmpfunc.obj
 0001:000b7a40       ??0Item_int_func@@QAE@PAVItem@@@Z 004b8a40 f i item_cmpfunc.obj
 0001:000b7a90       ?functype@Item_func_not@@UBE?AW4Functype@Item_func@@XZ 004b8a90 f i item_cmpfunc.obj
 0001:000b7ab0       ?func_name@Item_func_not@@UBEPBDXZ 004b8ab0 f i item_cmpfunc.obj
 0001:000b7ad0       ??_GItem_func_not@@UAEPAXI@Z 004b8ad0 f i item_cmpfunc.obj
 0001:000b7ad0       ??_EItem_func_not@@UAEPAXI@Z 004b8ad0 f i item_cmpfunc.obj
 0001:000b7b30       ??1Item_func_not@@UAE@XZ   004b8b30 f i item_cmpfunc.obj
 0001:000b7b60       ?add@Item_cond@@QAE_NPAVItem@@@Z 004b8b60 f i item_cmpfunc.obj
 0001:000b7ba0       ??0Item_cond_and@@QAE@PAVItem@@0@Z 004b8ba0 f i item_cmpfunc.obj
 0001:000b7c00       ??0Item_cond@@QAE@PAVItem@@0@Z 004b8c00 f i item_cmpfunc.obj
 0001:000b7c90       ??0Item_bool_func@@QAE@XZ  004b8c90 f i item_cmpfunc.obj
 0001:000b7cd0       ??0Item_int_func@@QAE@XZ   004b8cd0 f i item_cmpfunc.obj
 0001:000b7d20       ??0Item_func@@QAE@XZ       004b8d20 f i item_cmpfunc.obj
 0001:000b7d80       ??0COND_EQUAL@@QAE@XZ      004b8d80 f i item_cmpfunc.obj
 0001:000b7dd0       ?functype@Item_cond_and@@UBE?AW4Functype@Item_func@@XZ 004b8dd0 f i item_cmpfunc.obj
 0001:000b7df0       ?func_name@Item_cond_and@@UBEPBDXZ 004b8df0 f i item_cmpfunc.obj
 0001:000b7e10       ?not_null_tables@Item_cond_and@@UBE_KXZ 004b8e10 f i item_cmpfunc.obj
 0001:000b7e90       ?copy_andor_structure@Item_cond_and@@UAEPAVItem@@PAVTHD@@@Z 004b8e90 f i item_cmpfunc.obj
 0001:000b7f30       ??0Item_cond_and@@QAE@PAVTHD@@PAV0@@Z 004b8f30 f i item_cmpfunc.obj
 0001:000b7f90       ??_EItem_cond_and@@UAEPAXI@Z 004b8f90 f i item_cmpfunc.obj
 0001:000b7f90       ??_GItem_cond_and@@UAEPAXI@Z 004b8f90 f i item_cmpfunc.obj
 0001:000b7ff0       ??1Item_cond_and@@UAE@XZ   004b8ff0 f i item_cmpfunc.obj
 0001:000b8030       ??1COND_EQUAL@@QAE@XZ      004b9030 f i item_cmpfunc.obj
 0001:000b8070       ??1?$List@VItem_equal@@@@QAE@XZ 004b9070 f i item_cmpfunc.obj
 0001:000b80a0       ??0Item_func_isnotnull@@QAE@PAVItem@@@Z 004b90a0 f i item_cmpfunc.obj
 0001:000b80f0       ?functype@Item_func_isnotnull@@UBE?AW4Functype@Item_func@@XZ 004b90f0 f i item_cmpfunc.obj
 0001:000b8110       ?fix_length_and_dec@Item_func_isnotnull@@UAEXXZ 004b9110 f i item_cmpfunc.obj
 0001:000b8150       ?func_name@Item_func_isnotnull@@UBEPBDXZ 004b9150 f i item_cmpfunc.obj
 0001:000b8170       ?select_optimize@Item_func_isnotnull@@UBE?AW4optimize_type@Item_func@@XZ 004b9170 f i item_cmpfunc.obj
 0001:000b8190       ?not_null_tables@Item_func_isnotnull@@UBE_KXZ 004b9190 f i item_cmpfunc.obj
 0001:000b8200       ?compare_collation@Item_func_isnotnull@@UAEPAUcharset_info_st@@XZ 004b9200 f i item_cmpfunc.obj
 0001:000b8230       ?top_level_item@Item_func_isnotnull@@UAEXXZ 004b9230 f i item_cmpfunc.obj
 0001:000b8260       ??_EItem_func_isnotnull@@UAEPAXI@Z 004b9260 f i item_cmpfunc.obj
 0001:000b8260       ??_GItem_func_isnotnull@@UAEPAXI@Z 004b9260 f i item_cmpfunc.obj
 0001:000b82c0       ??1Item_func_isnotnull@@UAE@XZ 004b92c0 f i item_cmpfunc.obj
 0001:000b82f0       ??0Item_func_isnull@@QAE@PAVItem@@@Z 004b92f0 f i item_cmpfunc.obj
 0001:000b8340       ?functype@Item_func_isnull@@UBE?AW4Functype@Item_func@@XZ 004b9340 f i item_cmpfunc.obj
 0001:000b8360       ?fix_length_and_dec@Item_func_isnull@@UAEXXZ 004b9360 f i item_cmpfunc.obj
 0001:000b83c0       ?func_name@Item_func_isnull@@UBEPBDXZ 004b93c0 f i item_cmpfunc.obj
 0001:000b83e0       ?update_used_tables@Item_func_isnull@@UAEXXZ 004b93e0 f i item_cmpfunc.obj
 0001:000b8560       ?not_null_tables@Item_func_isnull@@UBE_KXZ 004b9560 f i item_cmpfunc.obj
 0001:000b8580       ?select_optimize@Item_func_isnull@@UBE?AW4optimize_type@Item_func@@XZ 004b9580 f i item_cmpfunc.obj
 0001:000b85a0       ?compare_collation@Item_func_isnull@@UAEPAUcharset_info_st@@XZ 004b95a0 f i item_cmpfunc.obj
 0001:000b85d0       ??_GItem_func_isnull@@UAEPAXI@Z 004b95d0 f i item_cmpfunc.obj
 0001:000b85d0       ??_EItem_func_isnull@@UAEPAXI@Z 004b95d0 f i item_cmpfunc.obj
 0001:000b8630       ??1Item_func_isnull@@UAE@XZ 004b9630 f i item_cmpfunc.obj
 0001:000b8660       ??0Item_cond_or@@QAE@AAV?$List@VItem@@@@@Z 004b9660 f i item_cmpfunc.obj
 0001:000b86b0       ??0Item_cond@@QAE@AAV?$List@VItem@@@@@Z 004b96b0 f i item_cmpfunc.obj
 0001:000b8720       ?functype@Item_cond_or@@UBE?AW4Functype@Item_func@@XZ 004b9720 f i item_cmpfunc.obj
 0001:000b8740       ?func_name@Item_cond_or@@UBEPBDXZ 004b9740 f i item_cmpfunc.obj
 0001:000b8760       ?not_null_tables@Item_cond_or@@UBE_KXZ 004b9760 f i item_cmpfunc.obj
 0001:000b8790       ?copy_andor_structure@Item_cond_or@@UAEPAVItem@@PAVTHD@@@Z 004b9790 f i item_cmpfunc.obj
 0001:000b8830       ??0Item_cond_or@@QAE@PAVTHD@@PAV0@@Z 004b9830 f i item_cmpfunc.obj
 0001:000b8880       ??_EItem_cond_or@@UAEPAXI@Z 004b9880 f i item_cmpfunc.obj
 0001:000b8880       ??_GItem_cond_or@@UAEPAXI@Z 004b9880 f i item_cmpfunc.obj
 0001:000b88e0       ??1Item_cond_or@@UAE@XZ    004b98e0 f i item_cmpfunc.obj
 0001:000b8910       ??0Item_cond_and@@QAE@AAV?$List@VItem@@@@@Z 004b9910 f i item_cmpfunc.obj
 0001:000b8970       ??0Item_func_not_all@@QAE@PAVItem@@@Z 004b9970 f i item_cmpfunc.obj
 0001:000b89f0       ?top_level_item@Item_func_not_all@@UAEXXZ 004b99f0 f i item_cmpfunc.obj
 0001:000b8a20       ?functype@Item_func_not_all@@UBE?AW4Functype@Item_func@@XZ 004b9a20 f i item_cmpfunc.obj
 0001:000b8a40       ?func_name@Item_func_not_all@@UBEPBDXZ 004b9a40 f i item_cmpfunc.obj
 0001:000b8a60       ??_EItem_func_not_all@@UAEPAXI@Z 004b9a60 f i item_cmpfunc.obj
 0001:000b8a60       ??_GItem_func_not_all@@UAEPAXI@Z 004b9a60 f i item_cmpfunc.obj
 0001:000b8ac0       ??1Item_func_not_all@@UAE@XZ 004b9ac0 f i item_cmpfunc.obj
 0001:000b8af0       ??0Item_func_nop_all@@QAE@PAVItem@@@Z 004b9af0 f i item_cmpfunc.obj
 0001:000b8b40       ?func_name@Item_func_nop_all@@UBEPBDXZ 004b9b40 f i item_cmpfunc.obj
 0001:000b8b60       ??_EItem_func_nop_all@@UAEPAXI@Z 004b9b60 f i item_cmpfunc.obj
 0001:000b8b60       ??_GItem_func_nop_all@@UAEPAXI@Z 004b9b60 f i item_cmpfunc.obj
 0001:000b8bc0       ??1Item_func_nop_all@@UAE@XZ 004b9bc0 f i item_cmpfunc.obj
 0001:000b8bf0       ?functype@Item_equal@@UBE?AW4Functype@Item_func@@XZ 004b9bf0 f i item_cmpfunc.obj
 0001:000b8c10       ?func_name@Item_equal@@UBEPBDXZ 004b9c10 f i item_cmpfunc.obj
 0001:000b8c30       ?select_optimize@Item_equal@@UBE?AW4optimize_type@Item_func@@XZ 004b9c30 f i item_cmpfunc.obj
 0001:000b8c50       ?compare_collation@Item_equal@@UAEPAUcharset_info_st@@XZ 004b9c50 f i item_cmpfunc.obj
 0001:000b8c90       ??_GItem_equal@@UAEPAXI@Z  004b9c90 f i item_cmpfunc.obj
 0001:000b8c90       ??_EItem_equal@@UAEPAXI@Z  004b9c90 f i item_cmpfunc.obj
 0001:000b8cf0       ??1Item_equal@@UAE@XZ      004b9cf0 f i item_cmpfunc.obj
 0001:000b8d30       ??1?$List@VItem_field@@@@QAE@XZ 004b9d30 f i item_cmpfunc.obj
 0001:000b8d60       ?quick_fix_field@Item@@QAEXXZ 004b9d60 f i item_cmpfunc.obj
 0001:000b8d80       ??0?$List@VItem@@@@QAE@ABV0@@Z 004b9d80 f i item_cmpfunc.obj
 0001:000b8dc0       ??0base_list@@QAE@ABV0@@Z  004b9dc0 f i item_cmpfunc.obj
 0001:000b8e50       ??0?$List@VItem_field@@@@QAE@XZ 004b9e50 f i item_cmpfunc.obj
 0001:000b8e80       ?concat@?$List@VItem_field@@@@QAEXPAV1@@Z 004b9e80 f i item_cmpfunc.obj
 0001:000b8ec0       ?concat@base_list@@QAEXPAV1@@Z 004b9ec0 f i item_cmpfunc.obj
 0001:000b8f30       ??0?$List@VItem_equal@@@@QAE@XZ 004b9f30 f i item_cmpfunc.obj
 0001:000b8f60       ??0?$List_iterator_fast@VItem_field@@@@QAE@AAV?$List@VItem_field@@@@@Z 004b9f60 f i item_cmpfunc.obj
 0001:000b8fa0       ??E?$List_iterator_fast@VItem_field@@@@QAEPAVItem_field@@H@Z 004b9fa0 f i item_cmpfunc.obj
 0001:000b8fd0       ??0?$List_iterator_fast@VItem@@@@QAE@AAV?$List@VItem@@@@@Z 004b9fd0 f i item_cmpfunc.obj
 0001:000b9010       ??E?$List_iterator_fast@VItem@@@@QAEPAVItem@@H@Z 004ba010 f i item_cmpfunc.obj
 0001:000b9040       ??0?$List_iterator@VItem@@@@QAE@AAV?$List@VItem@@@@@Z 004ba040 f i item_cmpfunc.obj
 0001:000b9080       ??E?$List_iterator@VItem@@@@QAEPAVItem@@H@Z 004ba080 f i item_cmpfunc.obj
 0001:000b90b0       ?replace@?$List_iterator@VItem@@@@QAEPAVItem@@PAV2@@Z 004ba0b0 f i item_cmpfunc.obj
 0001:000b90f0       ?replace@base_list_iterator@@QAEPAXPAX@Z 004ba0f0 f i item_cmpfunc.obj
 0001:000b9170       ?replace@?$List_iterator@VItem@@@@QAEPAVItem@@AAV?$List@VItem@@@@@Z 004ba170 f i item_cmpfunc.obj
 0001:000b91b0       ?replace@base_list_iterator@@QAEPAXAAVbase_list@@@Z 004ba1b0 f i item_cmpfunc.obj
 0001:000b92a0       ?ref@?$List_iterator@VItem@@@@QAEPAPAVItem@@XZ 004ba2a0 f i item_cmpfunc.obj
 0001:000b92d0       ?ref@base_list_iterator@@QAEPAPAXXZ 004ba2d0 f i item_cmpfunc.obj
 0001:000b9300       ?rewind@?$List_iterator@VItem_field@@@@QAEXXZ 004ba300 f i item_cmpfunc.obj
 0001:000b9330       ?remove@?$List_iterator@VItem_field@@@@QAEXXZ 004ba330 f i item_cmpfunc.obj
 0001:000b9360       ?remove@base_list_iterator@@QAEXXZ 004ba360 f i item_cmpfunc.obj
 0001:000b93c0       ?remove@base_list@@QAEXPAPAUlist_node@@@Z 004ba3c0 f i item_cmpfunc.obj
 0001:000b9490       ??_Glist_node@@QAEPAXI@Z   004ba490 f i item_cmpfunc.obj
 0001:000b94e0       ??1list_node@@QAE@XZ       004ba4e0 f i item_cmpfunc.obj
 0001:000b9510       ?ref@?$List_iterator@VItem_field@@@@QAEPAPAVItem_field@@XZ 004ba510 f i item_cmpfunc.obj
 0001:000b9540       ??_9@$BBAM@AE              004ba540 f i item_cmpfunc.obj
 0001:000b9550       ?create_func_abs@@YAPAVItem@@PAV1@@Z 004ba550 f   item_create.obj
 0001:000b95b0       ?create_func_acos@@YAPAVItem@@PAV1@@Z 004ba5b0 f   item_create.obj
 0001:000b9610       ?create_func_aes_encrypt@@YAPAVItem@@PAV1@0@Z 004ba610 f   item_create.obj
 0001:000b9670       ?create_func_aes_decrypt@@YAPAVItem@@PAV1@0@Z 004ba670 f   item_create.obj
 0001:000b96d0       ?create_func_ascii@@YAPAVItem@@PAV1@@Z 004ba6d0 f   item_create.obj
 0001:000b9730       ?create_func_ord@@YAPAVItem@@PAV1@@Z 004ba730 f   item_create.obj
 0001:000b9790       ?create_func_asin@@YAPAVItem@@PAV1@@Z 004ba790 f   item_create.obj
 0001:000b97f0       ?create_func_bin@@YAPAVItem@@PAV1@@Z 004ba7f0 f   item_create.obj
 0001:000b98b0       ?create_func_bit_count@@YAPAVItem@@PAV1@@Z 004ba8b0 f   item_create.obj
 0001:000b9910       ?create_func_ceiling@@YAPAVItem@@PAV1@@Z 004ba910 f   item_create.obj
 0001:000b9970       ?create_func_connection_id@@YAPAVItem@@XZ 004ba970 f   item_create.obj
 0001:000b99e0       ?create_func_conv@@YAPAVItem@@PAV1@00@Z 004ba9e0 f   item_create.obj
 0001:000b9a40       ?create_func_cos@@YAPAVItem@@PAV1@@Z 004baa40 f   item_create.obj
 0001:000b9aa0       ?create_func_cot@@YAPAVItem@@PAV1@@Z 004baaa0 f   item_create.obj
 0001:000b9b60       ?create_func_date_format@@YAPAVItem@@PAV1@0@Z 004bab60 f   item_create.obj
 0001:000b9bc0       ?create_func_dayofmonth@@YAPAVItem@@PAV1@@Z 004babc0 f   item_create.obj
 0001:000b9c20       ?create_func_dayofweek@@YAPAVItem@@PAV1@@Z 004bac20 f   item_create.obj
 0001:000b9c80       ?create_func_dayofyear@@YAPAVItem@@PAV1@@Z 004bac80 f   item_create.obj
 0001:000b9ce0       ?create_func_dayname@@YAPAVItem@@PAV1@@Z 004bace0 f   item_create.obj
 0001:000b9d40       ?create_func_degrees@@YAPAVItem@@PAV1@@Z 004bad40 f   item_create.obj
 0001:000b9db0       ?create_func_exp@@YAPAVItem@@PAV1@@Z 004badb0 f   item_create.obj
 0001:000b9e10       ?create_func_find_in_set@@YAPAVItem@@PAV1@0@Z 004bae10 f   item_create.obj
 0001:000b9e70       ?create_func_floor@@YAPAVItem@@PAV1@@Z 004bae70 f   item_create.obj
 0001:000b9ed0       ?create_func_found_rows@@YAPAVItem@@XZ 004baed0 f   item_create.obj
 0001:000b9f40       ?create_func_from_days@@YAPAVItem@@PAV1@@Z 004baf40 f   item_create.obj
 0001:000b9fa0       ?create_func_get_lock@@YAPAVItem@@PAV1@0@Z 004bafa0 f   item_create.obj
 0001:000ba010       ?create_func_hex@@YAPAVItem@@PAV1@@Z 004bb010 f   item_create.obj
 0001:000ba070       ?create_func_inet_ntoa@@YAPAVItem@@PAV1@@Z 004bb070 f   item_create.obj
 0001:000ba0d0       ?create_func_inet_aton@@YAPAVItem@@PAV1@@Z 004bb0d0 f   item_create.obj
 0001:000ba130       ?create_func_ifnull@@YAPAVItem@@PAV1@0@Z 004bb130 f   item_create.obj
 0001:000ba190       ?create_func_nullif@@YAPAVItem@@PAV1@0@Z 004bb190 f   item_create.obj
 0001:000ba1f0       ?create_func_locate@@YAPAVItem@@PAV1@0@Z 004bb1f0 f   item_create.obj
 0001:000ba250       ?create_func_instr@@YAPAVItem@@PAV1@0@Z 004bb250 f   item_create.obj
 0001:000ba2b0       ?create_func_isnull@@YAPAVItem@@PAV1@@Z 004bb2b0 f   item_create.obj
 0001:000ba310       ?create_func_lcase@@YAPAVItem@@PAV1@@Z 004bb310 f   item_create.obj
 0001:000ba370       ?create_func_length@@YAPAVItem@@PAV1@@Z 004bb370 f   item_create.obj
 0001:000ba3d0       ?create_func_bit_length@@YAPAVItem@@PAV1@@Z 004bb3d0 f   item_create.obj
 0001:000ba430       ?create_func_coercibility@@YAPAVItem@@PAV1@@Z 004bb430 f   item_create.obj
 0001:000ba490       ?create_func_char_length@@YAPAVItem@@PAV1@@Z 004bb490 f   item_create.obj
 0001:000ba4f0       ?create_func_ln@@YAPAVItem@@PAV1@@Z 004bb4f0 f   item_create.obj
 0001:000ba550       ?create_func_log2@@YAPAVItem@@PAV1@@Z 004bb550 f   item_create.obj
 0001:000ba5b0       ?create_func_log10@@YAPAVItem@@PAV1@@Z 004bb5b0 f   item_create.obj
 0001:000ba610       ?create_func_lpad@@YAPAVItem@@PAV1@00@Z 004bb610 f   item_create.obj
 0001:000ba670       ?create_func_ltrim@@YAPAVItem@@PAV1@@Z 004bb670 f   item_create.obj
 0001:000ba6d0       ?create_func_md5@@YAPAVItem@@PAV1@@Z 004bb6d0 f   item_create.obj
 0001:000ba730       ?create_func_mod@@YAPAVItem@@PAV1@0@Z 004bb730 f   item_create.obj
 0001:000ba790       ?create_func_name_const@@YAPAVItem@@PAV1@0@Z 004bb790 f   item_create.obj
 0001:000ba7f0       ?create_func_monthname@@YAPAVItem@@PAV1@@Z 004bb7f0 f   item_create.obj
 0001:000ba850       ?create_func_month@@YAPAVItem@@PAV1@@Z 004bb850 f   item_create.obj
 0001:000ba8b0       ?create_func_oct@@YAPAVItem@@PAV1@@Z 004bb8b0 f   item_create.obj
 0001:000ba970       ?create_func_period_add@@YAPAVItem@@PAV1@0@Z 004bb970 f   item_create.obj
 0001:000ba9d0       ?create_func_period_diff@@YAPAVItem@@PAV1@0@Z 004bb9d0 f   item_create.obj
 0001:000baa30       ?create_func_pi@@YAPAVItem@@XZ 004bba30 f   item_create.obj
 0001:000baaa0       ?create_func_pow@@YAPAVItem@@PAV1@0@Z 004bbaa0 f   item_create.obj
 0001:000bab00       ?create_func_radians@@YAPAVItem@@PAV1@@Z 004bbb00 f   item_create.obj
 0001:000bab70       ?create_func_release_lock@@YAPAVItem@@PAV1@@Z 004bbb70 f   item_create.obj
 0001:000babe0       ?create_func_repeat@@YAPAVItem@@PAV1@0@Z 004bbbe0 f   item_create.obj
 0001:000bac40       ?create_func_reverse@@YAPAVItem@@PAV1@@Z 004bbc40 f   item_create.obj
 0001:000baca0       ?create_func_rpad@@YAPAVItem@@PAV1@00@Z 004bbca0 f   item_create.obj
 0001:000bad00       ?create_func_rtrim@@YAPAVItem@@PAV1@@Z 004bbd00 f   item_create.obj
 0001:000bad60       ?create_func_sec_to_time@@YAPAVItem@@PAV1@@Z 004bbd60 f   item_create.obj
 0001:000badc0       ?create_func_sign@@YAPAVItem@@PAV1@@Z 004bbdc0 f   item_create.obj
 0001:000bae20       ?create_func_sin@@YAPAVItem@@PAV1@@Z 004bbe20 f   item_create.obj
 0001:000bae80       ?create_func_sha@@YAPAVItem@@PAV1@@Z 004bbe80 f   item_create.obj
 0001:000baee0       ?create_func_sleep@@YAPAVItem@@PAV1@@Z 004bbee0 f   item_create.obj
 0001:000baf50       ?create_func_space@@YAPAVItem@@PAV1@@Z 004bbf50 f   item_create.obj
 0001:000bb0b0       ?create_func_soundex@@YAPAVItem@@PAV1@@Z 004bc0b0 f   item_create.obj
 0001:000bb110       ?create_func_sqrt@@YAPAVItem@@PAV1@@Z 004bc110 f   item_create.obj
 0001:000bb170       ?create_func_strcmp@@YAPAVItem@@PAV1@0@Z 004bc170 f   item_create.obj
 0001:000bb1d0       ?create_func_tan@@YAPAVItem@@PAV1@@Z 004bc1d0 f   item_create.obj
 0001:000bb230       ?create_func_time_format@@YAPAVItem@@PAV1@0@Z 004bc230 f   item_create.obj
 0001:000bb290       ?create_func_time_to_sec@@YAPAVItem@@PAV1@@Z 004bc290 f   item_create.obj
 0001:000bb2f0       ?create_func_to_days@@YAPAVItem@@PAV1@@Z 004bc2f0 f   item_create.obj
 0001:000bb350       ?create_func_ucase@@YAPAVItem@@PAV1@@Z 004bc350 f   item_create.obj
 0001:000bb3b0       ?create_func_unhex@@YAPAVItem@@PAV1@@Z 004bc3b0 f   item_create.obj
 0001:000bb410       ?create_func_uuid@@YAPAVItem@@XZ 004bc410 f   item_create.obj
 0001:000bb470       ?create_func_version@@YAPAVItem@@XZ 004bc470 f   item_create.obj
 0001:000bb4e0       ?create_func_weekday@@YAPAVItem@@PAV1@@Z 004bc4e0 f   item_create.obj
 0001:000bb540       ?create_func_year@@YAPAVItem@@PAV1@@Z 004bc540 f   item_create.obj
 0001:000bb5a0       ?create_load_file@@YAPAVItem@@PAV1@@Z 004bc5a0 f   item_create.obj
 0001:000bb610       ?create_func_cast@@YAPAVItem@@PAV1@W4Cast_target@@PBD2PAUcharset_info_st@@@Z 004bc610 f   item_create.obj
 0001:000bba50       ?create_func_is_free_lock@@YAPAVItem@@PAV1@@Z 004bca50 f   item_create.obj
 0001:000bbac0       ?create_func_is_used_lock@@YAPAVItem@@PAV1@@Z 004bcac0 f   item_create.obj
 0001:000bbb30       ?create_func_quote@@YAPAVItem@@PAV1@@Z 004bcb30 f   item_create.obj
 0001:000bbb90       ?create_func_as_wkt@@YAPAVItem@@PAV1@@Z 004bcb90 f   item_create.obj
 0001:000bbbf0       ?create_func_as_wkb@@YAPAVItem@@PAV1@@Z 004bcbf0 f   item_create.obj
 0001:000bbc50       ?create_func_srid@@YAPAVItem@@PAV1@@Z 004bcc50 f   item_create.obj
 0001:000bbcb0       ?create_func_startpoint@@YAPAVItem@@PAV1@@Z 004bccb0 f   item_create.obj
 0001:000bbd10       ?create_func_endpoint@@YAPAVItem@@PAV1@@Z 004bcd10 f   item_create.obj
 0001:000bbd70       ?create_func_exteriorring@@YAPAVItem@@PAV1@@Z 004bcd70 f   item_create.obj
 0001:000bbdd0       ?create_func_pointn@@YAPAVItem@@PAV1@0@Z 004bcdd0 f   item_create.obj
 0001:000bbe30       ?create_func_interiorringn@@YAPAVItem@@PAV1@0@Z 004bce30 f   item_create.obj
 0001:000bbe90       ?create_func_geometryn@@YAPAVItem@@PAV1@0@Z 004bce90 f   item_create.obj
 0001:000bbef0       ?create_func_centroid@@YAPAVItem@@PAV1@@Z 004bcef0 f   item_create.obj
 0001:000bbf50       ?create_func_envelope@@YAPAVItem@@PAV1@@Z 004bcf50 f   item_create.obj
 0001:000bbfb0       ?create_func_equals@@YAPAVItem@@PAV1@0@Z 004bcfb0 f   item_create.obj
 0001:000bc010       ?create_func_disjoint@@YAPAVItem@@PAV1@0@Z 004bd010 f   item_create.obj
 0001:000bc070       ?create_func_intersects@@YAPAVItem@@PAV1@0@Z 004bd070 f   item_create.obj
 0001:000bc0d0       ?create_func_touches@@YAPAVItem@@PAV1@0@Z 004bd0d0 f   item_create.obj
 0001:000bc130       ?create_func_crosses@@YAPAVItem@@PAV1@0@Z 004bd130 f   item_create.obj
 0001:000bc190       ?create_func_within@@YAPAVItem@@PAV1@0@Z 004bd190 f   item_create.obj
 0001:000bc1f0       ?create_func_contains@@YAPAVItem@@PAV1@0@Z 004bd1f0 f   item_create.obj
 0001:000bc250       ?create_func_overlaps@@YAPAVItem@@PAV1@0@Z 004bd250 f   item_create.obj
 0001:000bc2b0       ?create_func_isempty@@YAPAVItem@@PAV1@@Z 004bd2b0 f   item_create.obj
 0001:000bc310       ?create_func_issimple@@YAPAVItem@@PAV1@@Z 004bd310 f   item_create.obj
 0001:000bc370       ?create_func_isclosed@@YAPAVItem@@PAV1@@Z 004bd370 f   item_create.obj
 0001:000bc3d0       ?create_func_geometry_type@@YAPAVItem@@PAV1@@Z 004bd3d0 f   item_create.obj
 0001:000bc430       ?create_func_dimension@@YAPAVItem@@PAV1@@Z 004bd430 f   item_create.obj
 0001:000bc490       ?create_func_x@@YAPAVItem@@PAV1@@Z 004bd490 f   item_create.obj
 0001:000bc4f0       ?create_func_y@@YAPAVItem@@PAV1@@Z 004bd4f0 f   item_create.obj
 0001:000bc550       ?create_func_numpoints@@YAPAVItem@@PAV1@@Z 004bd550 f   item_create.obj
 0001:000bc5b0       ?create_func_numinteriorring@@YAPAVItem@@PAV1@@Z 004bd5b0 f   item_create.obj
 0001:000bc610       ?create_func_numgeometries@@YAPAVItem@@PAV1@@Z 004bd610 f   item_create.obj
 0001:000bc670       ?create_func_area@@YAPAVItem@@PAV1@@Z 004bd670 f   item_create.obj
 0001:000bc6d0       ?create_func_glength@@YAPAVItem@@PAV1@@Z 004bd6d0 f   item_create.obj
 0001:000bc730       ?create_func_point@@YAPAVItem@@PAV1@0@Z 004bd730 f   item_create.obj
 0001:000bc790       ?create_func_crc32@@YAPAVItem@@PAV1@@Z 004bd790 f   item_create.obj
 0001:000bc7f0       ?create_func_compress@@YAPAVItem@@PAV1@@Z 004bd7f0 f   item_create.obj
 0001:000bc850       ?create_func_uncompress@@YAPAVItem@@PAV1@@Z 004bd850 f   item_create.obj
 0001:000bc8b0       ?create_func_uncompressed_length@@YAPAVItem@@PAV1@@Z 004bd8b0 f   item_create.obj
 0001:000bc910       ?create_func_datediff@@YAPAVItem@@PAV1@0@Z 004bd910 f   item_create.obj
 0001:000bc9d0       ?create_func_weekofyear@@YAPAVItem@@PAV1@@Z 004bd9d0 f   item_create.obj
 0001:000bca60       ?create_func_makedate@@YAPAVItem@@PAV1@0@Z 004bda60 f   item_create.obj
 0001:000bcac0       ?create_func_addtime@@YAPAVItem@@PAV1@0@Z 004bdac0 f   item_create.obj
 0001:000bcb20       ?create_func_subtime@@YAPAVItem@@PAV1@0@Z 004bdb20 f   item_create.obj
 0001:000bcb80       ?create_func_timediff@@YAPAVItem@@PAV1@0@Z 004bdb80 f   item_create.obj
 0001:000bcbe0       ?create_func_maketime@@YAPAVItem@@PAV1@00@Z 004bdbe0 f   item_create.obj
 0001:000bcc40       ?create_func_str_to_date@@YAPAVItem@@PAV1@0@Z 004bdc40 f   item_create.obj
 0001:000bcca0       ?create_func_last_day@@YAPAVItem@@PAV1@@Z 004bdca0 f   item_create.obj
 0001:000bdae0       ??0Item_func_abs@@QAE@PAVItem@@@Z 004beae0 f i item_create.obj
 0001:000bdb30       ?result_type@Item_func_numhybrid@@UBE?AW4Item_result@@XZ 004beb30 f i item_create.obj
 0001:000bdb60       ?is_null@Item_func_numhybrid@@UAE_NXZ 004beb60 f i item_create.obj
 0001:000bdbb0       ??0Item_func_num1@@QAE@PAVItem@@@Z 004bebb0 f i item_create.obj
 0001:000bdc00       ??0Item_func_numhybrid@@QAE@PAVItem@@@Z 004bec00 f i item_create.obj
 0001:000bdc60       ??_EItem_func_numhybrid@@UAEPAXI@Z 004bec60 f i item_create.obj
 0001:000bdc60       ??_GItem_func_numhybrid@@UAEPAXI@Z 004bec60 f i item_create.obj
 0001:000bdcc0       ??1Item_func_numhybrid@@UAE@XZ 004becc0 f i item_create.obj
 0001:000bdcf0       ?str_op@Item_func_num1@@UAEPAVString@@PAV2@@Z 004becf0 f i item_create.obj
 0001:000bdd40       ??_GItem_func_num1@@UAEPAXI@Z 004bed40 f i item_create.obj
 0001:000bdd40       ??_EItem_func_num1@@UAEPAXI@Z 004bed40 f i item_create.obj
 0001:000bdda0       ??1Item_func_num1@@UAE@XZ  004beda0 f i item_create.obj
 0001:000bddd0       ?func_name@Item_func_abs@@UBEPBDXZ 004bedd0 f i item_create.obj
 0001:000bddf0       ??_EItem_func_abs@@UAEPAXI@Z 004bedf0 f i item_create.obj
 0001:000bddf0       ??_GItem_func_abs@@UAEPAXI@Z 004bedf0 f i item_create.obj
 0001:000bde50       ??1Item_func_abs@@UAE@XZ   004bee50 f i item_create.obj
 0001:000bde80       ??0Item_func_acos@@QAE@PAVItem@@@Z 004bee80 f i item_create.obj
 0001:000bded0       ?val_int@Item_real_func@@UAE_JXZ 004beed0 f i item_create.obj
 0001:000bdf60       ?result_type@Item_real_func@@UBE?AW4Item_result@@XZ 004bef60 f i item_create.obj
 0001:000bdf80       ??0Item_dec_func@@QAE@PAVItem@@@Z 004bef80 f i item_create.obj
 0001:000bdfd0       ??0Item_real_func@@QAE@PAVItem@@@Z 004befd0 f i item_create.obj
 0001:000be020       ?fix_length_and_dec@Item_real_func@@UAEXXZ 004bf020 f i item_create.obj
 0001:000be070       ??_GItem_real_func@@UAEPAXI@Z 004bf070 f i item_create.obj
 0001:000be070       ??_EItem_real_func@@UAEPAXI@Z 004bf070 f i item_create.obj
 0001:000be0d0       ??1Item_real_func@@UAE@XZ  004bf0d0 f i item_create.obj
 0001:000be100       ?fix_length_and_dec@Item_dec_func@@UAEXXZ 004bf100 f i item_create.obj
 0001:000be150       ??_EItem_dec_func@@UAEPAXI@Z 004bf150 f i item_create.obj
 0001:000be150       ??_GItem_dec_func@@UAEPAXI@Z 004bf150 f i item_create.obj
 0001:000be1b0       ??1Item_dec_func@@UAE@XZ   004bf1b0 f i item_create.obj
 0001:000be1e0       ?func_name@Item_func_acos@@UBEPBDXZ 004bf1e0 f i item_create.obj
 0001:000be200       ??_EItem_func_acos@@UAEPAXI@Z 004bf200 f i item_create.obj
 0001:000be200       ??_GItem_func_acos@@UAEPAXI@Z 004bf200 f i item_create.obj
 0001:000be260       ??1Item_func_acos@@UAE@XZ  004bf260 f i item_create.obj
 0001:000be290       ??0Item_func_aes_encrypt@@QAE@PAVItem@@0@Z 004bf290 f i item_create.obj
 0001:000be2e0       ??0Item_str_func@@QAE@PAVItem@@0@Z 004bf2e0 f i item_create.obj
 0001:000be340       ?func_name@Item_func_aes_encrypt@@UBEPBDXZ 004bf340 f i item_create.obj
 0001:000be360       ??_EItem_func_aes_encrypt@@UAEPAXI@Z 004bf360 f i item_create.obj
 0001:000be360       ??_GItem_func_aes_encrypt@@UAEPAXI@Z 004bf360 f i item_create.obj
 0001:000be3c0       ??1Item_func_aes_encrypt@@UAE@XZ 004bf3c0 f i item_create.obj
 0001:000be3f0       ??0Item_func_aes_decrypt@@QAE@PAVItem@@0@Z 004bf3f0 f i item_create.obj
 0001:000be440       ?func_name@Item_func_aes_decrypt@@UBEPBDXZ 004bf440 f i item_create.obj
 0001:000be460       ??_EItem_func_aes_decrypt@@UAEPAXI@Z 004bf460 f i item_create.obj
 0001:000be460       ??_GItem_func_aes_decrypt@@UAEPAXI@Z 004bf460 f i item_create.obj
 0001:000be4c0       ??1Item_func_aes_decrypt@@UAE@XZ 004bf4c0 f i item_create.obj
 0001:000be4f0       ??0Item_func_ascii@@QAE@PAVItem@@@Z 004bf4f0 f i item_create.obj
 0001:000be550       ?func_name@Item_func_ascii@@UBEPBDXZ 004bf550 f i item_create.obj
 0001:000be570       ?fix_length_and_dec@Item_func_ascii@@UAEXXZ 004bf570 f i item_create.obj
 0001:000be5a0       ??_EItem_func_ascii@@UAEPAXI@Z 004bf5a0 f i item_create.obj
 0001:000be5a0       ??_GItem_func_ascii@@UAEPAXI@Z 004bf5a0 f i item_create.obj
 0001:000be600       ??1Item_func_ascii@@UAE@XZ 004bf600 f i item_create.obj
 0001:000be640       ??0Item_func_ord@@QAE@PAVItem@@@Z 004bf640 f i item_create.obj
 0001:000be6a0       ?func_name@Item_func_ord@@UBEPBDXZ 004bf6a0 f i item_create.obj
 0001:000be6c0       ??_EItem_func_ord@@UAEPAXI@Z 004bf6c0 f i item_create.obj
 0001:000be6c0       ??_GItem_func_ord@@UAEPAXI@Z 004bf6c0 f i item_create.obj
 0001:000be720       ??1Item_func_ord@@UAE@XZ   004bf720 f i item_create.obj
 0001:000be760       ??0Item_func_asin@@QAE@PAVItem@@@Z 004bf760 f i item_create.obj
 0001:000be7b0       ?func_name@Item_func_asin@@UBEPBDXZ 004bf7b0 f i item_create.obj
 0001:000be7d0       ??_EItem_func_asin@@UAEPAXI@Z 004bf7d0 f i item_create.obj
 0001:000be7d0       ??_GItem_func_asin@@UAEPAXI@Z 004bf7d0 f i item_create.obj
 0001:000be830       ??1Item_func_asin@@UAE@XZ  004bf830 f i item_create.obj
 0001:000be860       ??0Item_int@@QAE@JI@Z      004bf860 f i item_create.obj
 0001:000be8d0       ??0Item_func_conv@@QAE@PAVItem@@00@Z 004bf8d0 f i item_create.obj
 0001:000be920       ??0Item_str_func@@QAE@PAVItem@@00@Z 004bf920 f i item_create.obj
 0001:000be980       ??0Item_func@@QAE@PAVItem@@00@Z 004bf980 f i item_create.obj
 0001:000bea80       ?func_name@Item_func_conv@@UBEPBDXZ 004bfa80 f i item_create.obj
 0001:000beaa0       ?fix_length_and_dec@Item_func_conv@@UAEXXZ 004bfaa0 f i item_create.obj
 0001:000beaf0       ??_EItem_func_conv@@UAEPAXI@Z 004bfaf0 f i item_create.obj
 0001:000beaf0       ??_GItem_func_conv@@UAEPAXI@Z 004bfaf0 f i item_create.obj
 0001:000beb50       ??1Item_func_conv@@UAE@XZ  004bfb50 f i item_create.obj
 0001:000beb80       ??0Item_func_bit_count@@QAE@PAVItem@@@Z 004bfb80 f i item_create.obj
 0001:000bebd0       ?func_name@Item_func_bit_count@@UBEPBDXZ 004bfbd0 f i item_create.obj
 0001:000bebf0       ?fix_length_and_dec@Item_func_bit_count@@UAEXXZ 004bfbf0 f i item_create.obj
 0001:000bec20       ??_EItem_func_bit_count@@UAEPAXI@Z 004bfc20 f i item_create.obj
 0001:000bec20       ??_GItem_func_bit_count@@UAEPAXI@Z 004bfc20 f i item_create.obj
 0001:000bec80       ??1Item_func_bit_count@@UAE@XZ 004bfc80 f i item_create.obj
 0001:000becb0       ??0Item_func_ceiling@@QAE@PAVItem@@@Z 004bfcb0 f i item_create.obj
 0001:000bed00       ??0Item_func_int_val@@QAE@PAVItem@@@Z 004bfd00 f i item_create.obj
 0001:000bed50       ??_EItem_func_int_val@@UAEPAXI@Z 004bfd50 f i item_create.obj
 0001:000bed50       ??_GItem_func_int_val@@UAEPAXI@Z 004bfd50 f i item_create.obj
 0001:000bedb0       ??1Item_func_int_val@@UAE@XZ 004bfdb0 f i item_create.obj
 0001:000bede0       ?func_name@Item_func_ceiling@@UBEPBDXZ 004bfde0 f i item_create.obj
 0001:000bee00       ??_GItem_func_ceiling@@UAEPAXI@Z 004bfe00 f i item_create.obj
 0001:000bee00       ??_EItem_func_ceiling@@UAEPAXI@Z 004bfe00 f i item_create.obj
 0001:000bee60       ??1Item_func_ceiling@@UAE@XZ 004bfe60 f i item_create.obj
 0001:000bee90       ??0Item_func_connection_id@@QAE@XZ 004bfe90 f i item_create.obj
 0001:000beed0       ?func_name@Item_func_connection_id@@UBEPBDXZ 004bfed0 f i item_create.obj
 0001:000beef0       ?val_int@Item_func_connection_id@@UAE_JXZ 004bfef0 f i item_create.obj
 0001:000bef60       ??_EItem_func_connection_id@@UAEPAXI@Z 004bff60 f i item_create.obj
 0001:000bef60       ??_GItem_func_connection_id@@UAEPAXI@Z 004bff60 f i item_create.obj
 0001:000befc0       ??1Item_func_connection_id@@UAE@XZ 004bffc0 f i item_create.obj
 0001:000beff0       ??0Item_func_cos@@QAE@PAVItem@@@Z 004bfff0 f i item_create.obj
 0001:000bf040       ?func_name@Item_func_cos@@UBEPBDXZ 004c0040 f i item_create.obj
 0001:000bf060       ??_GItem_func_cos@@UAEPAXI@Z 004c0060 f i item_create.obj
 0001:000bf060       ??_EItem_func_cos@@UAEPAXI@Z 004c0060 f i item_create.obj
 0001:000bf0c0       ??1Item_func_cos@@UAE@XZ   004c00c0 f i item_create.obj
 0001:000bf0f0       ??0Item_func_div@@QAE@PAVItem@@0@Z 004c00f0 f i item_create.obj
 0001:000bf140       ??0Item_num_op@@QAE@PAVItem@@0@Z 004c0140 f i item_create.obj
 0001:000bf190       ??0Item_func_numhybrid@@QAE@PAVItem@@0@Z 004c0190 f i item_create.obj
 0001:000bf1f0       ?print@Item_num_op@@UAEXPAVString@@@Z 004c01f0 f i item_create.obj
 0001:000bf230       ?str_op@Item_num_op@@UAEPAVString@@PAV2@@Z 004c0230 f i item_create.obj
 0001:000bf280       ??_GItem_num_op@@UAEPAXI@Z 004c0280 f i item_create.obj
 0001:000bf280       ??_EItem_num_op@@UAEPAXI@Z 004c0280 f i item_create.obj
 0001:000bf2e0       ??1Item_num_op@@UAE@XZ     004c02e0 f i item_create.obj
 0001:000bf310       ?int_op@Item_func_div@@UAE_JXZ 004c0310 f i item_create.obj
 0001:000bf360       ?func_name@Item_func_div@@UBEPBDXZ 004c0360 f i item_create.obj
 0001:000bf380       ??_GItem_func_div@@UAEPAXI@Z 004c0380 f i item_create.obj
 0001:000bf380       ??_EItem_func_div@@UAEPAXI@Z 004c0380 f i item_create.obj
 0001:000bf3e0       ??1Item_func_div@@UAE@XZ   004c03e0 f i item_create.obj
 0001:000bf410       ??0Item_func_tan@@QAE@PAVItem@@@Z 004c0410 f i item_create.obj
 0001:000bf460       ?func_name@Item_func_tan@@UBEPBDXZ 004c0460 f i item_create.obj
 0001:000bf480       ??_EItem_func_tan@@UAEPAXI@Z 004c0480 f i item_create.obj
 0001:000bf480       ??_GItem_func_tan@@UAEPAXI@Z 004c0480 f i item_create.obj
 0001:000bf4e0       ??1Item_func_tan@@UAE@XZ   004c04e0 f i item_create.obj
 0001:000bf510       ??0Item_func_date_format@@QAE@PAVItem@@0_N@Z 004c0510 f i item_create.obj
 0001:000bf580       ?func_name@Item_func_date_format@@UBEPBDXZ 004c0580 f i item_create.obj
 0001:000bf5d0       ??_GItem_func_date_format@@UAEPAXI@Z 004c05d0 f i item_create.obj
 0001:000bf5d0       ??_EItem_func_date_format@@UAEPAXI@Z 004c05d0 f i item_create.obj
 0001:000bf630       ??1Item_func_date_format@@UAE@XZ 004c0630 f i item_create.obj
 0001:000bf670       ??0Item_func_dayofmonth@@QAE@PAVItem@@@Z 004c0670 f i item_create.obj
 0001:000bf6c0       ?func_name@Item_func_dayofmonth@@UBEPBDXZ 004c06c0 f i item_create.obj
 0001:000bf6e0       ?fix_length_and_dec@Item_func_dayofmonth@@UAEXXZ 004c06e0 f i item_create.obj
 0001:000bf720       ??_EItem_func_dayofmonth@@UAEPAXI@Z 004c0720 f i item_create.obj
 0001:000bf720       ??_GItem_func_dayofmonth@@UAEPAXI@Z 004c0720 f i item_create.obj
 0001:000bf780       ??1Item_func_dayofmonth@@UAE@XZ 004c0780 f i item_create.obj
 0001:000bf7b0       ??0Item_func_weekday@@QAE@PAVItem@@_N@Z 004c07b0 f i item_create.obj
 0001:000bf810       ?val_real@Item_func_weekday@@UAENXZ 004c0810 f i item_create.obj
 0001:000bf8a0       ?val_str@Item_func_weekday@@UAEPAVString@@PAV2@@Z 004c08a0 f i item_create.obj
 0001:000bf940       ?func_name@Item_func_weekday@@UBEPBDXZ 004c0940 f i item_create.obj
 0001:000bf990       ?result_type@Item_func_weekday@@UBE?AW4Item_result@@XZ 004c0990 f i item_create.obj
 0001:000bf9b0       ?fix_length_and_dec@Item_func_weekday@@UAEXXZ 004c09b0 f i item_create.obj
 0001:000bfa10       ??_EItem_func_weekday@@UAEPAXI@Z 004c0a10 f i item_create.obj
 0001:000bfa10       ??_GItem_func_weekday@@UAEPAXI@Z 004c0a10 f i item_create.obj
 0001:000bfa70       ??1Item_func_weekday@@UAE@XZ 004c0a70 f i item_create.obj
 0001:000bfaa0       ??0Item_func_dayofyear@@QAE@PAVItem@@@Z 004c0aa0 f i item_create.obj
 0001:000bfaf0       ?func_name@Item_func_dayofyear@@UBEPBDXZ 004c0af0 f i item_create.obj
 0001:000bfb10       ?fix_length_and_dec@Item_func_dayofyear@@UAEXXZ 004c0b10 f i item_create.obj
 0001:000bfb50       ??_GItem_func_dayofyear@@UAEPAXI@Z 004c0b50 f i item_create.obj
 0001:000bfb50       ??_EItem_func_dayofyear@@UAEPAXI@Z 004c0b50 f i item_create.obj
 0001:000bfbb0       ??1Item_func_dayofyear@@UAE@XZ 004c0bb0 f i item_create.obj
 0001:000bfbe0       ??0Item_func_dayname@@QAE@PAVItem@@@Z 004c0be0 f i item_create.obj
 0001:000bfc30       ?func_name@Item_func_dayname@@UBEPBDXZ 004c0c30 f i item_create.obj
 0001:000bfc50       ?result_type@Item_func_dayname@@UBE?AW4Item_result@@XZ 004c0c50 f i item_create.obj
 0001:000bfc70       ?fix_length_and_dec@Item_func_dayname@@UAEXXZ 004c0c70 f i item_create.obj
 0001:000bfcd0       ??_GItem_func_dayname@@UAEPAXI@Z 004c0cd0 f i item_create.obj
 0001:000bfcd0       ??_EItem_func_dayname@@UAEPAXI@Z 004c0cd0 f i item_create.obj
 0001:000bfd30       ??1Item_func_dayname@@UAE@XZ 004c0d30 f i item_create.obj
 0001:000bfd60       ??0Item_func_units@@QAE@PADPAVItem@@NN@Z 004c0d60 f i item_create.obj
 0001:000bfdd0       ?func_name@Item_func_units@@UBEPBDXZ 004c0dd0 f i item_create.obj
 0001:000bfe00       ?fix_length_and_dec@Item_func_units@@UAEXXZ 004c0e00 f i item_create.obj
 0001:000bfe50       ??_GItem_func_units@@UAEPAXI@Z 004c0e50 f i item_create.obj
 0001:000bfe50       ??_EItem_func_units@@UAEPAXI@Z 004c0e50 f i item_create.obj
 0001:000bfeb0       ??1Item_func_units@@UAE@XZ 004c0eb0 f i item_create.obj
 0001:000bfee0       ??0Item_func_exp@@QAE@PAVItem@@@Z 004c0ee0 f i item_create.obj
 0001:000bff30       ?func_name@Item_func_exp@@UBEPBDXZ 004c0f30 f i item_create.obj
 0001:000bff50       ??_GItem_func_exp@@UAEPAXI@Z 004c0f50 f i item_create.obj
 0001:000bff50       ??_EItem_func_exp@@UAEPAXI@Z 004c0f50 f i item_create.obj
 0001:000bffb0       ??1Item_func_exp@@UAE@XZ   004c0fb0 f i item_create.obj
 0001:000bffe0       ??0Item_func_find_in_set@@QAE@PAVItem@@0@Z 004c0fe0 f i item_create.obj
 0001:000c0070       ?func_name@Item_func_find_in_set@@UBEPBDXZ 004c1070 f i item_create.obj
 0001:000c0090       ??_EItem_func_find_in_set@@UAEPAXI@Z 004c1090 f i item_create.obj
 0001:000c0090       ??_GItem_func_find_in_set@@UAEPAXI@Z 004c1090 f i item_create.obj
 0001:000c00f0       ??1Item_func_find_in_set@@UAE@XZ 004c10f0 f i item_create.obj
 0001:000c0140       ??0Item_func_floor@@QAE@PAVItem@@@Z 004c1140 f i item_create.obj
 0001:000c0190       ?func_name@Item_func_floor@@UBEPBDXZ 004c1190 f i item_create.obj
 0001:000c01b0       ??_EItem_func_floor@@UAEPAXI@Z 004c11b0 f i item_create.obj
 0001:000c01b0       ??_GItem_func_floor@@UAEPAXI@Z 004c11b0 f i item_create.obj
 0001:000c0210       ??1Item_func_floor@@UAE@XZ 004c1210 f i item_create.obj
 0001:000c0240       ??0Item_func_found_rows@@QAE@XZ 004c1240 f i item_create.obj
 0001:000c0280       ?func_name@Item_func_found_rows@@UBEPBDXZ 004c1280 f i item_create.obj
 0001:000c02a0       ?fix_length_and_dec@Item_func_found_rows@@UAEXXZ 004c12a0 f i item_create.obj
 0001:000c02d0       ??_GItem_func_found_rows@@UAEPAXI@Z 004c12d0 f i item_create.obj
 0001:000c02d0       ??_EItem_func_found_rows@@UAEPAXI@Z 004c12d0 f i item_create.obj
 0001:000c0330       ??1Item_func_found_rows@@UAE@XZ 004c1330 f i item_create.obj
 0001:000c0360       ??0Item_func_from_days@@QAE@PAVItem@@@Z 004c1360 f i item_create.obj
 0001:000c03b0       ??0Item_date@@QAE@PAVItem@@@Z 004c13b0 f i item_create.obj
 0001:000c0400       ?result_type@Item_date@@UBE?AW4Item_result@@XZ 004c1400 f i item_create.obj
 0001:000c0420       ?field_type@Item_date@@UBE?AW4enum_field_types@@XZ 004c1420 f i item_create.obj
 0001:000c0440       ?val_real@Item_date@@UAENXZ 004c1440 f i item_create.obj
 0001:000c0470       ?func_name@Item_date@@UBEPBDXZ 004c1470 f i item_create.obj
 0001:000c0490       ?fix_length_and_dec@Item_date@@UAEXXZ 004c1490 f i item_create.obj
 0001:000c04e0       ?tmp_table_field@Item_date@@UAEPAVField@@PAUst_table@@@Z 004c14e0 f i item_create.obj
 0001:000c0570       ?result_as_longlong@Item_date@@UAE_NXZ 004c1570 f i item_create.obj
 0001:000c0590       ?val_decimal@Item_date@@UAEPAVmy_decimal@@PAV2@@Z 004c1590 f i item_create.obj
 0001:000c05f0       ?save_in_field@Item_date@@UAEHPAVField@@_N@Z 004c15f0 f i item_create.obj
 0001:000c0630       ??_EItem_date@@UAEPAXI@Z   004c1630 f i item_create.obj
 0001:000c0630       ??_GItem_date@@UAEPAXI@Z   004c1630 f i item_create.obj
 0001:000c0690       ??1Item_date@@UAE@XZ       004c1690 f i item_create.obj
 0001:000c06c0       ?func_name@Item_func_from_days@@UBEPBDXZ 004c16c0 f i item_create.obj
 0001:000c06e0       ??_EItem_func_from_days@@UAEPAXI@Z 004c16e0 f i item_create.obj
 0001:000c06e0       ??_GItem_func_from_days@@UAEPAXI@Z 004c16e0 f i item_create.obj
 0001:000c0740       ??1Item_func_from_days@@UAE@XZ 004c1740 f i item_create.obj
 0001:000c0770       ??0Item_func_get_lock@@QAE@PAVItem@@0@Z 004c1770 f i item_create.obj
 0001:000c07d0       ?func_name@Item_func_get_lock@@UBEPBDXZ 004c17d0 f i item_create.obj
 0001:000c07f0       ?fix_length_and_dec@Item_func_get_lock@@UAEXXZ 004c17f0 f i item_create.obj
 0001:000c0820       ??_EItem_func_get_lock@@UAEPAXI@Z 004c1820 f i item_create.obj
 0001:000c0820       ??_GItem_func_get_lock@@UAEPAXI@Z 004c1820 f i item_create.obj
 0001:000c0880       ??1Item_func_get_lock@@UAE@XZ 004c1880 f i item_create.obj
 0001:000c08c0       ?uncacheable@st_lex@@QAEXE@Z 004c18c0 f i item_create.obj
 0001:000c09b0       ??0Item_func_hex@@QAE@PAVItem@@@Z 004c19b0 f i item_create.obj
 0001:000c0a10       ?func_name@Item_func_hex@@UBEPBDXZ 004c1a10 f i item_create.obj
 0001:000c0a30       ?fix_length_and_dec@Item_func_hex@@UAEXXZ 004c1a30 f i item_create.obj
 0001:000c0aa0       ??_GItem_func_hex@@UAEPAXI@Z 004c1aa0 f i item_create.obj
 0001:000c0aa0       ??_EItem_func_hex@@UAEPAXI@Z 004c1aa0 f i item_create.obj
 0001:000c0b00       ??1Item_func_hex@@UAE@XZ   004c1b00 f i item_create.obj
 0001:000c0b40       ??0Item_func_inet_ntoa@@QAE@PAVItem@@@Z 004c1b40 f i item_create.obj
 0001:000c0b90       ?func_name@Item_func_inet_ntoa@@UBEPBDXZ 004c1b90 f i item_create.obj
 0001:000c0bb0       ?fix_length_and_dec@Item_func_inet_ntoa@@UAEXXZ 004c1bb0 f i item_create.obj
 0001:000c0bf0       ??_EItem_func_inet_ntoa@@UAEPAXI@Z 004c1bf0 f i item_create.obj
 0001:000c0bf0       ??_GItem_func_inet_ntoa@@UAEPAXI@Z 004c1bf0 f i item_create.obj
 0001:000c0c50       ??1Item_func_inet_ntoa@@UAE@XZ 004c1c50 f i item_create.obj
 0001:000c0c80       ??0Item_func_inet_aton@@QAE@PAVItem@@@Z 004c1c80 f i item_create.obj
 0001:000c0cd0       ?func_name@Item_func_inet_aton@@UBEPBDXZ 004c1cd0 f i item_create.obj
 0001:000c0cf0       ?fix_length_and_dec@Item_func_inet_aton@@UAEXXZ 004c1cf0 f i item_create.obj
 0001:000c0d30       ??_GItem_func_inet_aton@@UAEPAXI@Z 004c1d30 f i item_create.obj
 0001:000c0d30       ??_EItem_func_inet_aton@@UAEPAXI@Z 004c1d30 f i item_create.obj
 0001:000c0d90       ??1Item_func_inet_aton@@UAE@XZ 004c1d90 f i item_create.obj
 0001:000c0dc0       ??0Item_func_ifnull@@QAE@PAVItem@@0@Z 004c1dc0 f i item_create.obj
 0001:000c0e10       ??0Item_func_coalesce@@IAE@PAVItem@@0@Z 004c1e10 f i item_create.obj
 0001:000c0e60       ?find_num_type@Item_func_coalesce@@UAEXXZ 004c1e60 f i item_create.obj
 0001:000c0e80       ?result_type@Item_func_coalesce@@UBE?AW4Item_result@@XZ 004c1e80 f i item_create.obj
 0001:000c0eb0       ?func_name@Item_func_coalesce@@UBEPBDXZ 004c1eb0 f i item_create.obj
 0001:000c0ed0       ?not_null_tables@Item_func_coalesce@@UBE_KXZ 004c1ed0 f i item_create.obj
 0001:000c0ef0       ?field_type@Item_func_coalesce@@UBE?AW4enum_field_types@@XZ 004c1ef0 f i item_create.obj
 0001:000c0f20       ??_GItem_func_coalesce@@UAEPAXI@Z 004c1f20 f i item_create.obj
 0001:000c0f20       ??_EItem_func_coalesce@@UAEPAXI@Z 004c1f20 f i item_create.obj
 0001:000c0f80       ??1Item_func_coalesce@@UAE@XZ 004c1f80 f i item_create.obj
 0001:000c0fb0       ?func_name@Item_func_ifnull@@UBEPBDXZ 004c1fb0 f i item_create.obj
 0001:000c0fd0       ??_EItem_func_ifnull@@UAEPAXI@Z 004c1fd0 f i item_create.obj
 0001:000c0fd0       ??_GItem_func_ifnull@@UAEPAXI@Z 004c1fd0 f i item_create.obj
 0001:000c1030       ??1Item_func_ifnull@@UAE@XZ 004c2030 f i item_create.obj
 0001:000c1060       ??0Item_func_nullif@@QAE@PAVItem@@0@Z 004c2060 f i item_create.obj
 0001:000c10c0       ?result_type@Item_func_nullif@@UBE?AW4Item_result@@XZ 004c20c0 f i item_create.obj
 0001:000c10f0       ?decimal_precision@Item_func_nullif@@UBEIXZ 004c20f0 f i item_create.obj
 0001:000c1140       ?func_name@Item_func_nullif@@UBEPBDXZ 004c2140 f i item_create.obj
 0001:000c1160       ?print@Item_func_nullif@@UAEXPAVString@@@Z 004c2160 f i item_create.obj
 0001:000c11a0       ?not_null_tables@Item_func_nullif@@UBE_KXZ 004c21a0 f i item_create.obj
 0001:000c11c0       ??_GItem_func_nullif@@UAEPAXI@Z 004c21c0 f i item_create.obj
 0001:000c11c0       ??_EItem_func_nullif@@UAEPAXI@Z 004c21c0 f i item_create.obj
 0001:000c1220       ??1Item_func_nullif@@UAE@XZ 004c2220 f i item_create.obj
 0001:000c1250       ??0Item_func_locate@@QAE@PAVItem@@0@Z 004c2250 f i item_create.obj
 0001:000c12d0       ?func_name@Item_func_locate@@UBEPBDXZ 004c22d0 f i item_create.obj
 0001:000c12f0       ??_EItem_func_locate@@UAEPAXI@Z 004c22f0 f i item_create.obj
 0001:000c12f0       ??_GItem_func_locate@@UAEPAXI@Z 004c22f0 f i item_create.obj
 0001:000c1350       ??1Item_func_locate@@UAE@XZ 004c2350 f i item_create.obj
 0001:000c13a0       ??0Item_func_lcase@@QAE@PAVItem@@@Z 004c23a0 f i item_create.obj
 0001:000c13f0       ??0Item_str_conv@@QAE@PAVItem@@@Z 004c23f0 f i item_create.obj
 0001:000c1450       ??_GItem_str_conv@@UAEPAXI@Z 004c2450 f i item_create.obj
 0001:000c1450       ??_EItem_str_conv@@UAEPAXI@Z 004c2450 f i item_create.obj
 0001:000c14b0       ??1Item_str_conv@@UAE@XZ   004c24b0 f i item_create.obj
 0001:000c14f0       ?func_name@Item_func_lcase@@UBEPBDXZ 004c24f0 f i item_create.obj
 0001:000c1510       ?fix_length_and_dec@Item_func_lcase@@UAEXXZ 004c2510 f i item_create.obj
 0001:000c15b0       ??_GItem_func_lcase@@UAEPAXI@Z 004c25b0 f i item_create.obj
 0001:000c15b0       ??_EItem_func_lcase@@UAEPAXI@Z 004c25b0 f i item_create.obj
 0001:000c1610       ??1Item_func_lcase@@UAE@XZ 004c2610 f i item_create.obj
 0001:000c1640       ??0Item_func_length@@QAE@PAVItem@@@Z 004c2640 f i item_create.obj
 0001:000c16a0       ?func_name@Item_func_length@@UBEPBDXZ 004c26a0 f i item_create.obj
 0001:000c16c0       ?fix_length_and_dec@Item_func_length@@UAEXXZ 004c26c0 f i item_create.obj
 0001:000c16f0       ??_GItem_func_length@@UAEPAXI@Z 004c26f0 f i item_create.obj
 0001:000c16f0       ??_EItem_func_length@@UAEPAXI@Z 004c26f0 f i item_create.obj
 0001:000c1750       ??1Item_func_length@@UAE@XZ 004c2750 f i item_create.obj
 0001:000c1790       ??0Item_func_bit_length@@QAE@PAVItem@@@Z 004c2790 f i item_create.obj
 0001:000c17e0       ?val_int@Item_func_bit_length@@UAE_JXZ 004c27e0 f i item_create.obj
 0001:000c1850       ?func_name@Item_func_bit_length@@UBEPBDXZ 004c2850 f i item_create.obj
 0001:000c1870       ??_GItem_func_bit_length@@UAEPAXI@Z 004c2870 f i item_create.obj
 0001:000c1870       ??_EItem_func_bit_length@@UAEPAXI@Z 004c2870 f i item_create.obj
 0001:000c18d0       ??1Item_func_bit_length@@UAE@XZ 004c28d0 f i item_create.obj
 0001:000c1900       ??0Item_func_coercibility@@QAE@PAVItem@@@Z 004c2900 f i item_create.obj
 0001:000c1950       ?func_name@Item_func_coercibility@@UBEPBDXZ 004c2950 f i item_create.obj
 0001:000c1970       ?fix_length_and_dec@Item_func_coercibility@@UAEXXZ 004c2970 f i item_create.obj
 0001:000c19a0       ?not_null_tables@Item_func_coercibility@@UBE_KXZ 004c29a0 f i item_create.obj
 0001:000c19c0       ??_GItem_func_coercibility@@UAEPAXI@Z 004c29c0 f i item_create.obj
 0001:000c19c0       ??_EItem_func_coercibility@@UAEPAXI@Z 004c29c0 f i item_create.obj
 0001:000c1a20       ??1Item_func_coercibility@@UAE@XZ 004c2a20 f i item_create.obj
 0001:000c1a50       ??0Item_func_char_length@@QAE@PAVItem@@@Z 004c2a50 f i item_create.obj
 0001:000c1ab0       ?func_name@Item_func_char_length@@UBEPBDXZ 004c2ab0 f i item_create.obj
 0001:000c1ad0       ?fix_length_and_dec@Item_func_char_length@@UAEXXZ 004c2ad0 f i item_create.obj
 0001:000c1b00       ??_EItem_func_char_length@@UAEPAXI@Z 004c2b00 f i item_create.obj
 0001:000c1b00       ??_GItem_func_char_length@@UAEPAXI@Z 004c2b00 f i item_create.obj
 0001:000c1b60       ??1Item_func_char_length@@UAE@XZ 004c2b60 f i item_create.obj
 0001:000c1ba0       ??0Item_func_ln@@QAE@PAVItem@@@Z 004c2ba0 f i item_create.obj
 0001:000c1bf0       ?func_name@Item_func_ln@@UBEPBDXZ 004c2bf0 f i item_create.obj
 0001:000c1c10       ??_EItem_func_ln@@UAEPAXI@Z 004c2c10 f i item_create.obj
 0001:000c1c10       ??_GItem_func_ln@@UAEPAXI@Z 004c2c10 f i item_create.obj
 0001:000c1c70       ??1Item_func_ln@@UAE@XZ    004c2c70 f i item_create.obj
 0001:000c1ca0       ??0Item_func_log2@@QAE@PAVItem@@@Z 004c2ca0 f i item_create.obj
 0001:000c1cf0       ?func_name@Item_func_log2@@UBEPBDXZ 004c2cf0 f i item_create.obj
 0001:000c1d10       ??_EItem_func_log2@@UAEPAXI@Z 004c2d10 f i item_create.obj
 0001:000c1d10       ??_GItem_func_log2@@UAEPAXI@Z 004c2d10 f i item_create.obj
 0001:000c1d70       ??1Item_func_log2@@UAE@XZ  004c2d70 f i item_create.obj
 0001:000c1da0       ??0Item_func_log10@@QAE@PAVItem@@@Z 004c2da0 f i item_create.obj
 0001:000c1df0       ?func_name@Item_func_log10@@UBEPBDXZ 004c2df0 f i item_create.obj
 0001:000c1e10       ??_EItem_func_log10@@UAEPAXI@Z 004c2e10 f i item_create.obj
 0001:000c1e10       ??_GItem_func_log10@@UAEPAXI@Z 004c2e10 f i item_create.obj
 0001:000c1e70       ??1Item_func_log10@@UAE@XZ 004c2e70 f i item_create.obj
 0001:000c1ea0       ??0Item_func_lpad@@QAE@PAVItem@@00@Z 004c2ea0 f i item_create.obj
 0001:000c1f10       ?func_name@Item_func_lpad@@UBEPBDXZ 004c2f10 f i item_create.obj
 0001:000c1f30       ??_EItem_func_lpad@@UAEPAXI@Z 004c2f30 f i item_create.obj
 0001:000c1f30       ??_GItem_func_lpad@@UAEPAXI@Z 004c2f30 f i item_create.obj
 0001:000c1f90       ??1Item_func_lpad@@UAE@XZ  004c2f90 f i item_create.obj
 0001:000c1fe0       ??0Item_func_ltrim@@QAE@PAVItem@@@Z 004c2fe0 f i item_create.obj
 0001:000c2030       ??0Item_func_trim@@QAE@PAVItem@@@Z 004c3030 f i item_create.obj
 0001:000c20a0       ?func_name@Item_func_trim@@UBEPBDXZ 004c30a0 f i item_create.obj
 0001:000c20c0       ?mode_name@Item_func_trim@@UBEPBDXZ 004c30c0 f i item_create.obj
 0001:000c20e0       ??_GItem_func_trim@@UAEPAXI@Z 004c30e0 f i item_create.obj
 0001:000c20e0       ??_EItem_func_trim@@UAEPAXI@Z 004c30e0 f i item_create.obj
 0001:000c2140       ??1Item_func_trim@@UAE@XZ  004c3140 f i item_create.obj
 0001:000c2190       ?func_name@Item_func_ltrim@@UBEPBDXZ 004c3190 f i item_create.obj
 0001:000c21b0       ?mode_name@Item_func_ltrim@@UBEPBDXZ 004c31b0 f i item_create.obj
 0001:000c21d0       ??_EItem_func_ltrim@@UAEPAXI@Z 004c31d0 f i item_create.obj
 0001:000c21d0       ??_GItem_func_ltrim@@UAEPAXI@Z 004c31d0 f i item_create.obj
 0001:000c2230       ??1Item_func_ltrim@@UAE@XZ 004c3230 f i item_create.obj
 0001:000c2260       ??0Item_func_md5@@QAE@PAVItem@@@Z 004c3260 f i item_create.obj
 0001:000c22d0       ?func_name@Item_func_md5@@UBEPBDXZ 004c32d0 f i item_create.obj
 0001:000c22f0       ??_GItem_func_md5@@UAEPAXI@Z 004c32f0 f i item_create.obj
 0001:000c22f0       ??_EItem_func_md5@@UAEPAXI@Z 004c32f0 f i item_create.obj
 0001:000c2350       ??1Item_func_md5@@UAE@XZ   004c3350 f i item_create.obj
 0001:000c2390       ??0Item_func_mod@@QAE@PAVItem@@0@Z 004c3390 f i item_create.obj
 0001:000c23e0       ?func_name@Item_func_mod@@UBEPBDXZ 004c33e0 f i item_create.obj
 0001:000c2400       ??_EItem_func_mod@@UAEPAXI@Z 004c3400 f i item_create.obj
 0001:000c2400       ??_GItem_func_mod@@UAEPAXI@Z 004c3400 f i item_create.obj
 0001:000c2460       ??1Item_func_mod@@UAE@XZ   004c3460 f i item_create.obj
 0001:000c2490       ??0Item_func_monthname@@QAE@PAVItem@@@Z 004c3490 f i item_create.obj
 0001:000c24e0       ??0Item_func_month@@QAE@PAVItem@@@Z 004c34e0 f i item_create.obj
 0001:000c2530       ?val_real@Item_func_month@@UAENXZ 004c3530 f i item_create.obj
 0001:000c25b0       ?val_str@Item_func_month@@UAEPAVString@@PAV2@@Z 004c35b0 f i item_create.obj
 0001:000c2620       ?func_name@Item_func_month@@UBEPBDXZ 004c3620 f i item_create.obj
 0001:000c2640       ?result_type@Item_func_month@@UBE?AW4Item_result@@XZ 004c3640 f i item_create.obj
 0001:000c2660       ?fix_length_and_dec@Item_func_month@@UAEXXZ 004c3660 f i item_create.obj
 0001:000c26c0       ??_GItem_func_month@@UAEPAXI@Z 004c36c0 f i item_create.obj
 0001:000c26c0       ??_EItem_func_month@@UAEPAXI@Z 004c36c0 f i item_create.obj
 0001:000c2720       ??1Item_func_month@@UAE@XZ 004c3720 f i item_create.obj
 0001:000c2750       ?func_name@Item_func_monthname@@UBEPBDXZ 004c3750 f i item_create.obj
 0001:000c2770       ?result_type@Item_func_monthname@@UBE?AW4Item_result@@XZ 004c3770 f i item_create.obj
 0001:000c2790       ?fix_length_and_dec@Item_func_monthname@@UAEXXZ 004c3790 f i item_create.obj
 0001:000c27f0       ??_GItem_func_monthname@@UAEPAXI@Z 004c37f0 f i item_create.obj
 0001:000c27f0       ??_EItem_func_monthname@@UAEPAXI@Z 004c37f0 f i item_create.obj
 0001:000c2850       ??1Item_func_monthname@@UAE@XZ 004c3850 f i item_create.obj
 0001:000c2880       ??0Item_func_period_add@@QAE@PAVItem@@0@Z 004c3880 f i item_create.obj
 0001:000c28d0       ?func_name@Item_func_period_add@@UBEPBDXZ 004c38d0 f i item_create.obj
 0001:000c28f0       ?fix_length_and_dec@Item_func_period_add@@UAEXXZ 004c38f0 f i item_create.obj
 0001:000c2920       ??_GItem_func_period_add@@UAEPAXI@Z 004c3920 f i item_create.obj
 0001:000c2920       ??_EItem_func_period_add@@UAEPAXI@Z 004c3920 f i item_create.obj
 0001:000c2980       ??1Item_func_period_add@@UAE@XZ 004c3980 f i item_create.obj
 0001:000c29b0       ??0Item_func_period_diff@@QAE@PAVItem@@0@Z 004c39b0 f i item_create.obj
 0001:000c2a00       ?func_name@Item_func_period_diff@@UBEPBDXZ 004c3a00 f i item_create.obj
 0001:000c2a20       ?fix_length_and_dec@Item_func_period_diff@@UAEXXZ 004c3a20 f i item_create.obj
 0001:000c2a50       ??_GItem_func_period_diff@@UAEPAXI@Z 004c3a50 f i item_create.obj
 0001:000c2a50       ??_EItem_func_period_diff@@UAEPAXI@Z 004c3a50 f i item_create.obj
 0001:000c2ab0       ??1Item_func_period_diff@@UAE@XZ 004c3ab0 f i item_create.obj
 0001:000c2ae0       ??0Item_static_float_func@@QAE@PBDNII@Z 004c3ae0 f i item_create.obj
 0001:000c2b50       ?print@Item_static_float_func@@UAEXPAVString@@@Z 004c3b50 f i item_create.obj
 0001:000c2b90       ??_GItem_static_float_func@@UAEPAXI@Z 004c3b90 f i item_create.obj
 0001:000c2b90       ??_EItem_static_float_func@@UAEPAXI@Z 004c3b90 f i item_create.obj
 0001:000c2be0       ??1Item_static_float_func@@UAE@XZ 004c3be0 f i item_create.obj
 0001:000c2c10       ??0Item_func_pow@@QAE@PAVItem@@0@Z 004c3c10 f i item_create.obj
 0001:000c2c60       ??0Item_dec_func@@QAE@PAVItem@@0@Z 004c3c60 f i item_create.obj
 0001:000c2cb0       ??0Item_real_func@@QAE@PAVItem@@0@Z 004c3cb0 f i item_create.obj
 0001:000c2d00       ?func_name@Item_func_pow@@UBEPBDXZ 004c3d00 f i item_create.obj
 0001:000c2d20       ??_GItem_func_pow@@UAEPAXI@Z 004c3d20 f i item_create.obj
 0001:000c2d20       ??_EItem_func_pow@@UAEPAXI@Z 004c3d20 f i item_create.obj
 0001:000c2d80       ??1Item_func_pow@@UAE@XZ   004c3d80 f i item_create.obj
 0001:000c2db0       ??0Item_func_release_lock@@QAE@PAVItem@@@Z 004c3db0 f i item_create.obj
 0001:000c2e10       ?func_name@Item_func_release_lock@@UBEPBDXZ 004c3e10 f i item_create.obj
 0001:000c2e30       ?fix_length_and_dec@Item_func_release_lock@@UAEXXZ 004c3e30 f i item_create.obj
 0001:000c2e60       ??_EItem_func_release_lock@@UAEPAXI@Z 004c3e60 f i item_create.obj
 0001:000c2e60       ??_GItem_func_release_lock@@UAEPAXI@Z 004c3e60 f i item_create.obj
 0001:000c2ec0       ??1Item_func_release_lock@@UAE@XZ 004c3ec0 f i item_create.obj
 0001:000c2f00       ??0Item_func_repeat@@QAE@PAVItem@@0@Z 004c3f00 f i item_create.obj
 0001:000c2f60       ?func_name@Item_func_repeat@@UBEPBDXZ 004c3f60 f i item_create.obj
 0001:000c2f80       ??_GItem_func_repeat@@UAEPAXI@Z 004c3f80 f i item_create.obj
 0001:000c2f80       ??_EItem_func_repeat@@UAEPAXI@Z 004c3f80 f i item_create.obj
 0001:000c2fe0       ??1Item_func_repeat@@UAE@XZ 004c3fe0 f i item_create.obj
 0001:000c3020       ??0Item_func_reverse@@QAE@PAVItem@@@Z 004c4020 f i item_create.obj
 0001:000c3080       ?func_name@Item_func_reverse@@UBEPBDXZ 004c4080 f i item_create.obj
 0001:000c30a0       ??_GItem_func_reverse@@UAEPAXI@Z 004c40a0 f i item_create.obj
 0001:000c30a0       ??_EItem_func_reverse@@UAEPAXI@Z 004c40a0 f i item_create.obj
 0001:000c3100       ??1Item_func_reverse@@UAE@XZ 004c4100 f i item_create.obj
 0001:000c3140       ??0Item_func_rpad@@QAE@PAVItem@@00@Z 004c4140 f i item_create.obj
 0001:000c31b0       ?func_name@Item_func_rpad@@UBEPBDXZ 004c41b0 f i item_create.obj
 0001:000c31d0       ??_GItem_func_rpad@@UAEPAXI@Z 004c41d0 f i item_create.obj
 0001:000c31d0       ??_EItem_func_rpad@@UAEPAXI@Z 004c41d0 f i item_create.obj
 0001:000c3230       ??1Item_func_rpad@@UAE@XZ  004c4230 f i item_create.obj
 0001:000c3280       ??0Item_func_rtrim@@QAE@PAVItem@@@Z 004c4280 f i item_create.obj
 0001:000c32d0       ?func_name@Item_func_rtrim@@UBEPBDXZ 004c42d0 f i item_create.obj
 0001:000c32f0       ?mode_name@Item_func_rtrim@@UBEPBDXZ 004c42f0 f i item_create.obj
 0001:000c3310       ??_GItem_func_rtrim@@UAEPAXI@Z 004c4310 f i item_create.obj
 0001:000c3310       ??_EItem_func_rtrim@@UAEPAXI@Z 004c4310 f i item_create.obj
 0001:000c3370       ??1Item_func_rtrim@@UAE@XZ 004c4370 f i item_create.obj
 0001:000c33a0       ??0Item_func_sec_to_time@@QAE@PAVItem@@@Z 004c43a0 f i item_create.obj
 0001:000c33f0       ??0Item_str_timefunc@@QAE@PAVItem@@@Z 004c43f0 f i item_create.obj
 0001:000c3440       ?field_type@Item_str_timefunc@@UBE?AW4enum_field_types@@XZ 004c4440 f i item_create.obj
 0001:000c3460       ?fix_length_and_dec@Item_str_timefunc@@UAEXXZ 004c4460 f i item_create.obj
 0001:000c3490       ?tmp_table_field@Item_str_timefunc@@UAEPAVField@@PAUst_table@@@Z 004c4490 f i item_create.obj
 0001:000c3520       ?val_real@Item_str_timefunc@@UAENXZ 004c4520 f i item_create.obj
 0001:000c3550       ?val_decimal@Item_str_timefunc@@UAEPAVmy_decimal@@PAV2@@Z 004c4550 f i item_create.obj
 0001:000c35b0       ?save_in_field@Item_str_timefunc@@UAEHPAVField@@_N@Z 004c45b0 f i item_create.obj
 0001:000c35f0       ??_EItem_str_timefunc@@UAEPAXI@Z 004c45f0 f i item_create.obj
 0001:000c35f0       ??_GItem_str_timefunc@@UAEPAXI@Z 004c45f0 f i item_create.obj
 0001:000c3650       ??1Item_str_timefunc@@UAE@XZ 004c4650 f i item_create.obj
 0001:000c3680       ?val_real@Item_func_sec_to_time@@UAENXZ 004c4680 f i item_create.obj
 0001:000c3700       ?fix_length_and_dec@Item_func_sec_to_time@@UAEXXZ 004c4700 f i item_create.obj
 0001:000c3750       ?func_name@Item_func_sec_to_time@@UBEPBDXZ 004c4750 f i item_create.obj
 0001:000c3770       ?result_as_longlong@Item_func_sec_to_time@@UAE_NXZ 004c4770 f i item_create.obj
 0001:000c3790       ??_GItem_func_sec_to_time@@UAEPAXI@Z 004c4790 f i item_create.obj
 0001:000c3790       ??_EItem_func_sec_to_time@@UAEPAXI@Z 004c4790 f i item_create.obj
 0001:000c37f0       ??1Item_func_sec_to_time@@UAE@XZ 004c47f0 f i item_create.obj
 0001:000c3820       ??0Item_func_sign@@QAE@PAVItem@@@Z 004c4820 f i item_create.obj
 0001:000c3870       ?func_name@Item_func_sign@@UBEPBDXZ 004c4870 f i item_create.obj
 0001:000c3890       ??_GItem_func_sign@@UAEPAXI@Z 004c4890 f i item_create.obj
 0001:000c3890       ??_EItem_func_sign@@UAEPAXI@Z 004c4890 f i item_create.obj
 0001:000c38f0       ??1Item_func_sign@@UAE@XZ  004c48f0 f i item_create.obj
 0001:000c3920       ??0Item_func_sin@@QAE@PAVItem@@@Z 004c4920 f i item_create.obj
 0001:000c3970       ?func_name@Item_func_sin@@UBEPBDXZ 004c4970 f i item_create.obj
 0001:000c3990       ??_GItem_func_sin@@UAEPAXI@Z 004c4990 f i item_create.obj
 0001:000c3990       ??_EItem_func_sin@@UAEPAXI@Z 004c4990 f i item_create.obj
 0001:000c39f0       ??1Item_func_sin@@UAE@XZ   004c49f0 f i item_create.obj
 0001:000c3a20       ??0Item_func_sha@@QAE@PAVItem@@@Z 004c4a20 f i item_create.obj
 0001:000c3a80       ?func_name@Item_func_sha@@UBEPBDXZ 004c4a80 f i item_create.obj
 0001:000c3aa0       ??_EItem_func_sha@@UAEPAXI@Z 004c4aa0 f i item_create.obj
 0001:000c3aa0       ??_GItem_func_sha@@UAEPAXI@Z 004c4aa0 f i item_create.obj
 0001:000c3b00       ??1Item_func_sha@@UAE@XZ   004c4b00 f i item_create.obj
 0001:000c3b30       ??0Item_func_sleep@@QAE@PAVItem@@@Z 004c4b30 f i item_create.obj
 0001:000c3b80       ?const_item@Item_func_sleep@@UBE_NXZ 004c4b80 f i item_create.obj
 0001:000c3ba0       ?func_name@Item_func_sleep@@UBEPBDXZ 004c4ba0 f i item_create.obj
 0001:000c3bc0       ?update_used_tables@Item_func_sleep@@UAEXXZ 004c4bc0 f i item_create.obj
 0001:000c3c10       ??_GItem_func_sleep@@UAEPAXI@Z 004c4c10 f i item_create.obj
 0001:000c3c10       ??_EItem_func_sleep@@UAEPAXI@Z 004c4c10 f i item_create.obj
 0001:000c3c70       ??1Item_func_sleep@@UAE@XZ 004c4c70 f i item_create.obj
 0001:000c3ca0       ??0Item_func_soundex@@QAE@PAVItem@@@Z 004c4ca0 f i item_create.obj
 0001:000c3d00       ?func_name@Item_func_soundex@@UBEPBDXZ 004c4d00 f i item_create.obj
 0001:000c3d20       ??_GItem_func_soundex@@UAEPAXI@Z 004c4d20 f i item_create.obj
 0001:000c3d20       ??_EItem_func_soundex@@UAEPAXI@Z 004c4d20 f i item_create.obj
 0001:000c3d80       ??1Item_func_soundex@@UAE@XZ 004c4d80 f i item_create.obj
 0001:000c3dc0       ??0Item_func_sqrt@@QAE@PAVItem@@@Z 004c4dc0 f i item_create.obj
 0001:000c3e10       ?func_name@Item_func_sqrt@@UBEPBDXZ 004c4e10 f i item_create.obj
 0001:000c3e30       ??_EItem_func_sqrt@@UAEPAXI@Z 004c4e30 f i item_create.obj
 0001:000c3e30       ??_GItem_func_sqrt@@UAEPAXI@Z 004c4e30 f i item_create.obj
 0001:000c3e90       ??1Item_func_sqrt@@UAE@XZ  004c4e90 f i item_create.obj
 0001:000c3ec0       ??0Item_func_strcmp@@QAE@PAVItem@@0@Z 004c4ec0 f i item_create.obj
 0001:000c3f10       ?select_optimize@Item_func_strcmp@@UBE?AW4optimize_type@Item_func@@XZ 004c4f10 f i item_create.obj
 0001:000c3f30       ?func_name@Item_func_strcmp@@UBEPBDXZ 004c4f30 f i item_create.obj
 0001:000c3f50       ?print@Item_func_strcmp@@UAEXPAVString@@@Z 004c4f50 f i item_create.obj
 0001:000c3f90       ??_EItem_func_strcmp@@UAEPAXI@Z 004c4f90 f i item_create.obj
 0001:000c3f90       ??_GItem_func_strcmp@@UAEPAXI@Z 004c4f90 f i item_create.obj
 0001:000c3ff0       ??1Item_func_strcmp@@UAE@XZ 004c4ff0 f i item_create.obj
 0001:000c4020       ??0Item_func_time_to_sec@@QAE@PAVItem@@@Z 004c5020 f i item_create.obj
 0001:000c4070       ?func_name@Item_func_time_to_sec@@UBEPBDXZ 004c5070 f i item_create.obj
 0001:000c4090       ?fix_length_and_dec@Item_func_time_to_sec@@UAEXXZ 004c5090 f i item_create.obj
 0001:000c40c0       ??_GItem_func_time_to_sec@@UAEPAXI@Z 004c50c0 f i item_create.obj
 0001:000c40c0       ??_EItem_func_time_to_sec@@UAEPAXI@Z 004c50c0 f i item_create.obj
 0001:000c4120       ??1Item_func_time_to_sec@@UAE@XZ 004c5120 f i item_create.obj
 0001:000c4150       ??0Item_func_to_days@@QAE@PAVItem@@@Z 004c5150 f i item_create.obj
 0001:000c41a0       ?func_name@Item_func_to_days@@UBEPBDXZ 004c51a0 f i item_create.obj
 0001:000c41c0       ?fix_length_and_dec@Item_func_to_days@@UAEXXZ 004c51c0 f i item_create.obj
 0001:000c4200       ??_GItem_func_to_days@@UAEPAXI@Z 004c5200 f i item_create.obj
 0001:000c4200       ??_EItem_func_to_days@@UAEPAXI@Z 004c5200 f i item_create.obj
 0001:000c4260       ??1Item_func_to_days@@UAE@XZ 004c5260 f i item_create.obj
 0001:000c4290       ??0Item_func_ucase@@QAE@PAVItem@@@Z 004c5290 f i item_create.obj
 0001:000c42e0       ?func_name@Item_func_ucase@@UBEPBDXZ 004c52e0 f i item_create.obj
 0001:000c4300       ?fix_length_and_dec@Item_func_ucase@@UAEXXZ 004c5300 f i item_create.obj
 0001:000c43a0       ??_EItem_func_ucase@@UAEPAXI@Z 004c53a0 f i item_create.obj
 0001:000c43a0       ??_GItem_func_ucase@@UAEPAXI@Z 004c53a0 f i item_create.obj
 0001:000c4400       ??1Item_func_ucase@@UAE@XZ 004c5400 f i item_create.obj
 0001:000c4430       ??0Item_func_unhex@@QAE@PAVItem@@@Z 004c5430 f i item_create.obj
 0001:000c4490       ?func_name@Item_func_unhex@@UBEPBDXZ 004c5490 f i item_create.obj
 0001:000c44b0       ?fix_length_and_dec@Item_func_unhex@@UAEXXZ 004c54b0 f i item_create.obj
 0001:000c4510       ??_GItem_func_unhex@@UAEPAXI@Z 004c5510 f i item_create.obj
 0001:000c4510       ??_EItem_func_unhex@@UAEPAXI@Z 004c5510 f i item_create.obj
 0001:000c4570       ??1Item_func_unhex@@UAE@XZ 004c5570 f i item_create.obj
 0001:000c45b0       ??0Item_func_uuid@@QAE@XZ  004c55b0 f i item_create.obj
 0001:000c45f0       ??0Item_str_func@@QAE@XZ   004c55f0 f i item_create.obj
 0001:000c4640       ?fix_length_and_dec@Item_func_uuid@@UAEXXZ 004c5640 f i item_create.obj
 0001:000c4690       ?func_name@Item_func_uuid@@UBEPBDXZ 004c5690 f i item_create.obj
 0001:000c46b0       ??_EItem_func_uuid@@UAEPAXI@Z 004c56b0 f i item_create.obj
 0001:000c46b0       ??_GItem_func_uuid@@UAEPAXI@Z 004c56b0 f i item_create.obj
 0001:000c4710       ??1Item_func_uuid@@UAE@XZ  004c5710 f i item_create.obj
 0001:000c4740       ??0Item_func_year@@QAE@PAVItem@@@Z 004c5740 f i item_create.obj
 0001:000c4790       ?func_name@Item_func_year@@UBEPBDXZ 004c5790 f i item_create.obj
 0001:000c47b0       ?fix_length_and_dec@Item_func_year@@UAEXXZ 004c57b0 f i item_create.obj
 0001:000c47f0       ??_GItem_func_year@@UAEPAXI@Z 004c57f0 f i item_create.obj
 0001:000c47f0       ??_EItem_func_year@@UAEPAXI@Z 004c57f0 f i item_create.obj
 0001:000c4850       ??1Item_func_year@@UAE@XZ  004c5850 f i item_create.obj
 0001:000c4880       ??0Item_load_file@@QAE@PAVItem@@@Z 004c5880 f i item_create.obj
 0001:000c48e0       ?func_name@Item_load_file@@UBEPBDXZ 004c58e0 f i item_create.obj
 0001:000c4900       ?fix_length_and_dec@Item_load_file@@UAEXXZ 004c5900 f i item_create.obj
 0001:000c4950       ??_GItem_load_file@@UAEPAXI@Z 004c5950 f i item_create.obj
 0001:000c4950       ??_EItem_load_file@@UAEPAXI@Z 004c5950 f i item_create.obj
 0001:000c49b0       ??1Item_load_file@@UAE@XZ  004c59b0 f i item_create.obj
 0001:000c49f0       ??0Item_func_signed@@QAE@PAVItem@@@Z 004c59f0 f i item_create.obj
 0001:000c4a40       ?func_name@Item_func_signed@@UBEPBDXZ 004c5a40 f i item_create.obj
 0001:000c4a60       ?fix_length_and_dec@Item_func_signed@@UAEXXZ 004c5a60 f i item_create.obj
 0001:000c4aa0       ?decimal_precision@Item_func_signed@@UBEIXZ 004c5aa0 f i item_create.obj
 0001:000c4af0       ??_EItem_func_signed@@UAEPAXI@Z 004c5af0 f i item_create.obj
 0001:000c4af0       ??_GItem_func_signed@@UAEPAXI@Z 004c5af0 f i item_create.obj
 0001:000c4b50       ??1Item_func_signed@@UAE@XZ 004c5b50 f i item_create.obj
 0001:000c4b80       ??0Item_func_unsigned@@QAE@PAVItem@@@Z 004c5b80 f i item_create.obj
 0001:000c4bd0       ?func_name@Item_func_unsigned@@UBEPBDXZ 004c5bd0 f i item_create.obj
 0001:000c4bf0       ?fix_length_and_dec@Item_func_unsigned@@UAEXXZ 004c5bf0 f i item_create.obj
 0001:000c4c30       ??_EItem_func_unsigned@@UAEPAXI@Z 004c5c30 f i item_create.obj
 0001:000c4c30       ??_GItem_func_unsigned@@UAEPAXI@Z 004c5c30 f i item_create.obj
 0001:000c4c90       ??1Item_func_unsigned@@UAE@XZ 004c5c90 f i item_create.obj
 0001:000c4cc0       ??0Item_decimal_typecast@@QAE@PAVItem@@HH@Z 004c5cc0 f i item_create.obj
 0001:000c4d50       ?result_type@Item_decimal_typecast@@UBE?AW4Item_result@@XZ 004c5d50 f i item_create.obj
 0001:000c4d70       ?field_type@Item_decimal_typecast@@UBE?AW4enum_field_types@@XZ 004c5d70 f i item_create.obj
 0001:000c4d90       ?fix_length_and_dec@Item_decimal_typecast@@UAEXXZ 004c5d90 f i item_create.obj
 0001:000c4db0       ?func_name@Item_decimal_typecast@@UBEPBDXZ 004c5db0 f i item_create.obj
 0001:000c4dd0       ??_GItem_decimal_typecast@@UAEPAXI@Z 004c5dd0 f i item_create.obj
 0001:000c4dd0       ??_EItem_decimal_typecast@@UAEPAXI@Z 004c5dd0 f i item_create.obj
 0001:000c4e30       ??1Item_decimal_typecast@@UAE@XZ 004c5e30 f i item_create.obj
 0001:000c4e60       ??0Item_func_binary@@QAE@PAVItem@@@Z 004c5e60 f i item_create.obj
 0001:000c4eb0       ?val_str@Item_func_binary@@UAEPAVString@@PAV2@@Z 004c5eb0 f i item_create.obj
 0001:000c4f70       ?fix_length_and_dec@Item_func_binary@@UAEXXZ 004c5f70 f i item_create.obj
 0001:000c4fc0       ?func_name@Item_func_binary@@UBEPBDXZ 004c5fc0 f i item_create.obj
 0001:000c4fe0       ??_GItem_func_binary@@UAEPAXI@Z 004c5fe0 f i item_create.obj
 0001:000c4fe0       ??_EItem_func_binary@@UAEPAXI@Z 004c5fe0 f i item_create.obj
 0001:000c5040       ??1Item_func_binary@@UAE@XZ 004c6040 f i item_create.obj
 0001:000c5070       ??0Item_char_typecast@@QAE@PAVItem@@HPAUcharset_info_st@@@Z 004c6070 f i item_create.obj
 0001:000c50f0       ??0Item_typecast@@QAE@PAVItem@@@Z 004c60f0 f i item_create.obj
 0001:000c5140       ?val_str@Item_typecast@@UAEPAVString@@PAV2@@Z 004c6140 f i item_create.obj
 0001:000c5200       ?fix_length_and_dec@Item_typecast@@UAEXXZ 004c6200 f i item_create.obj
 0001:000c5250       ??_EItem_typecast@@UAEPAXI@Z 004c6250 f i item_create.obj
 0001:000c5250       ??_GItem_typecast@@UAEPAXI@Z 004c6250 f i item_create.obj
 0001:000c52b0       ??1Item_typecast@@UAE@XZ   004c62b0 f i item_create.obj
 0001:000c52e0       ?functype@Item_char_typecast@@UBE?AW4Functype@Item_func@@XZ 004c62e0 f i item_create.obj
 0001:000c5300       ?func_name@Item_char_typecast@@UBEPBDXZ 004c6300 f i item_create.obj
 0001:000c5320       ?cast_type@Item_char_typecast@@UBEPBDXZ 004c6320 f i item_create.obj
 0001:000c5340       ??_EItem_char_typecast@@UAEPAXI@Z 004c6340 f i item_create.obj
 0001:000c5340       ??_GItem_char_typecast@@UAEPAXI@Z 004c6340 f i item_create.obj
 0001:000c53a0       ??1Item_char_typecast@@UAE@XZ 004c63a0 f i item_create.obj
 0001:000c53e0       ??0Item_date_typecast@@QAE@PAVItem@@@Z 004c63e0 f i item_create.obj
 0001:000c5430       ??0Item_typecast_maybe_null@@QAE@PAVItem@@@Z 004c6430 f i item_create.obj
 0001:000c5480       ?fix_length_and_dec@Item_typecast_maybe_null@@UAEXXZ 004c6480 f i item_create.obj
 0001:000c54e0       ??_GItem_typecast_maybe_null@@UAEPAXI@Z 004c64e0 f i item_create.obj
 0001:000c54e0       ??_EItem_typecast_maybe_null@@UAEPAXI@Z 004c64e0 f i item_create.obj
 0001:000c5540       ??1Item_typecast_maybe_null@@UAE@XZ 004c6540 f i item_create.obj
 0001:000c5570       ?func_name@Item_date_typecast@@UBEPBDXZ 004c6570 f i item_create.obj
 0001:000c5590       ?cast_type@Item_date_typecast@@UBEPBDXZ 004c6590 f i item_create.obj
 0001:000c55b0       ?field_type@Item_date_typecast@@UBE?AW4enum_field_types@@XZ 004c65b0 f i item_create.obj
 0001:000c55d0       ?tmp_table_field@Item_date_typecast@@UAEPAVField@@PAUst_table@@@Z 004c65d0 f i item_create.obj
 0001:000c5660       ?fix_length_and_dec@Item_date_typecast@@UAEXXZ 004c6660 f i item_create.obj
 0001:000c56b0       ?result_as_longlong@Item_date_typecast@@UAE_NXZ 004c66b0 f i item_create.obj
 0001:000c56d0       ?val_real@Item_date_typecast@@UAENXZ 004c66d0 f i item_create.obj
 0001:000c5730       ?val_decimal@Item_date_typecast@@UAEPAVmy_decimal@@PAV2@@Z 004c6730 f i item_create.obj
 0001:000c5790       ?save_in_field@Item_date_typecast@@UAEHPAVField@@_N@Z 004c6790 f i item_create.obj
 0001:000c57d0       ??_EItem_date_typecast@@UAEPAXI@Z 004c67d0 f i item_create.obj
 0001:000c57d0       ??_GItem_date_typecast@@UAEPAXI@Z 004c67d0 f i item_create.obj
 0001:000c5830       ??1Item_date_typecast@@UAE@XZ 004c6830 f i item_create.obj
 0001:000c5860       ??0Item_time_typecast@@QAE@PAVItem@@@Z 004c6860 f i item_create.obj
 0001:000c58b0       ?func_name@Item_time_typecast@@UBEPBDXZ 004c68b0 f i item_create.obj
 0001:000c58d0       ?cast_type@Item_time_typecast@@UBEPBDXZ 004c68d0 f i item_create.obj
 0001:000c58f0       ?field_type@Item_time_typecast@@UBE?AW4enum_field_types@@XZ 004c68f0 f i item_create.obj
 0001:000c5910       ?tmp_table_field@Item_time_typecast@@UAEPAVField@@PAUst_table@@@Z 004c6910 f i item_create.obj
 0001:000c59a0       ?result_as_longlong@Item_time_typecast@@UAE_NXZ 004c69a0 f i item_create.obj
 0001:000c59c0       ?val_real@Item_time_typecast@@UAENXZ 004c69c0 f i item_create.obj
 0001:000c59f0       ?val_decimal@Item_time_typecast@@UAEPAVmy_decimal@@PAV2@@Z 004c69f0 f i item_create.obj
 0001:000c5a50       ?save_in_field@Item_time_typecast@@UAEHPAVField@@_N@Z 004c6a50 f i item_create.obj
 0001:000c5a90       ??_EItem_time_typecast@@UAEPAXI@Z 004c6a90 f i item_create.obj
 0001:000c5a90       ??_GItem_time_typecast@@UAEPAXI@Z 004c6a90 f i item_create.obj
 0001:000c5af0       ??1Item_time_typecast@@UAE@XZ 004c6af0 f i item_create.obj
 0001:000c5b20       ??0Item_datetime_typecast@@QAE@PAVItem@@@Z 004c6b20 f i item_create.obj
 0001:000c5b70       ?func_name@Item_datetime_typecast@@UBEPBDXZ 004c6b70 f i item_create.obj
 0001:000c5b90       ?cast_type@Item_datetime_typecast@@UBEPBDXZ 004c6b90 f i item_create.obj
 0001:000c5bb0       ?field_type@Item_datetime_typecast@@UBE?AW4enum_field_types@@XZ 004c6bb0 f i item_create.obj
 0001:000c5bd0       ?fix_length_and_dec@Item_datetime_typecast@@UAEXXZ 004c6bd0 f i item_create.obj
 0001:000c5c30       ?tmp_table_field@Item_datetime_typecast@@UAEPAVField@@PAUst_table@@@Z 004c6c30 f i item_create.obj
 0001:000c5cc0       ?result_as_longlong@Item_datetime_typecast@@UAE_NXZ 004c6cc0 f i item_create.obj
 0001:000c5ce0       ?val_real@Item_datetime_typecast@@UAENXZ 004c6ce0 f i item_create.obj
 0001:000c5d10       ?val_decimal@Item_datetime_typecast@@UAEPAVmy_decimal@@PAV2@@Z 004c6d10 f i item_create.obj
 0001:000c5d70       ?save_in_field@Item_datetime_typecast@@UAEHPAVField@@_N@Z 004c6d70 f i item_create.obj
 0001:000c5db0       ??_EItem_datetime_typecast@@UAEPAXI@Z 004c6db0 f i item_create.obj
 0001:000c5db0       ??_GItem_datetime_typecast@@UAEPAXI@Z 004c6db0 f i item_create.obj
 0001:000c5e10       ??1Item_datetime_typecast@@UAE@XZ 004c6e10 f i item_create.obj
 0001:000c5e40       ??0Item_func_is_free_lock@@QAE@PAVItem@@@Z 004c6e40 f i item_create.obj
 0001:000c5ea0       ?func_name@Item_func_is_free_lock@@UBEPBDXZ 004c6ea0 f i item_create.obj
 0001:000c5ec0       ?fix_length_and_dec@Item_func_is_free_lock@@UAEXXZ 004c6ec0 f i item_create.obj
 0001:000c5f00       ??_EItem_func_is_free_lock@@UAEPAXI@Z 004c6f00 f i item_create.obj
 0001:000c5f00       ??_GItem_func_is_free_lock@@UAEPAXI@Z 004c6f00 f i item_create.obj
 0001:000c5f60       ??1Item_func_is_free_lock@@UAE@XZ 004c6f60 f i item_create.obj
 0001:000c5fa0       ??0Item_func_is_used_lock@@QAE@PAVItem@@@Z 004c6fa0 f i item_create.obj
 0001:000c6000       ?func_name@Item_func_is_used_lock@@UBEPBDXZ 004c7000 f i item_create.obj
 0001:000c6020       ?fix_length_and_dec@Item_func_is_used_lock@@UAEXXZ 004c7020 f i item_create.obj
 0001:000c6060       ??_GItem_func_is_used_lock@@UAEPAXI@Z 004c7060 f i item_create.obj
 0001:000c6060       ??_EItem_func_is_used_lock@@UAEPAXI@Z 004c7060 f i item_create.obj
 0001:000c60c0       ??1Item_func_is_used_lock@@UAE@XZ 004c70c0 f i item_create.obj
 0001:000c6100       ??0Item_func_quote@@QAE@PAVItem@@@Z 004c7100 f i item_create.obj
 0001:000c6160       ?func_name@Item_func_quote@@UBEPBDXZ 004c7160 f i item_create.obj
 0001:000c6180       ?fix_length_and_dec@Item_func_quote@@UAEXXZ 004c7180 f i item_create.obj
 0001:000c61e0       ??_GItem_func_quote@@UAEPAXI@Z 004c71e0 f i item_create.obj
 0001:000c61e0       ??_EItem_func_quote@@UAEPAXI@Z 004c71e0 f i item_create.obj
 0001:000c6240       ??1Item_func_quote@@UAE@XZ 004c7240 f i item_create.obj
 0001:000c6280       ??0Item_func_as_wkt@@QAE@PAVItem@@@Z 004c7280 f i item_create.obj
 0001:000c62d0       ?func_name@Item_func_as_wkt@@UBEPBDXZ 004c72d0 f i item_create.obj
 0001:000c62f0       ??_EItem_func_as_wkt@@UAEPAXI@Z 004c72f0 f i item_create.obj
 0001:000c62f0       ??_GItem_func_as_wkt@@UAEPAXI@Z 004c72f0 f i item_create.obj
 0001:000c6350       ??1Item_func_as_wkt@@UAE@XZ 004c7350 f i item_create.obj
 0001:000c6380       ??0Item_func_as_wkb@@QAE@PAVItem@@@Z 004c7380 f i item_create.obj
 0001:000c63d0       ??0Item_geometry_func@@QAE@PAVItem@@@Z 004c73d0 f i item_create.obj
 0001:000c6420       ?field_type@Item_geometry_func@@UBE?AW4enum_field_types@@XZ 004c7420 f i item_create.obj
 0001:000c6440       ?is_null@Item_geometry_func@@UAE_NXZ 004c7440 f i item_create.obj
 0001:000c6490       ??_GItem_geometry_func@@UAEPAXI@Z 004c7490 f i item_create.obj
 0001:000c6490       ??_EItem_geometry_func@@UAEPAXI@Z 004c7490 f i item_create.obj
 0001:000c64f0       ??1Item_geometry_func@@UAE@XZ 004c74f0 f i item_create.obj
 0001:000c6520       ?func_name@Item_func_as_wkb@@UBEPBDXZ 004c7520 f i item_create.obj
 0001:000c6540       ?field_type@Item_func_as_wkb@@UBE?AW4enum_field_types@@XZ 004c7540 f i item_create.obj
 0001:000c6560       ??_GItem_func_as_wkb@@UAEPAXI@Z 004c7560 f i item_create.obj
 0001:000c6560       ??_EItem_func_as_wkb@@UAEPAXI@Z 004c7560 f i item_create.obj
 0001:000c65c0       ??1Item_func_as_wkb@@UAE@XZ 004c75c0 f i item_create.obj
 0001:000c65f0       ??0Item_func_srid@@QAE@PAVItem@@@Z 004c75f0 f i item_create.obj
 0001:000c6650       ?func_name@Item_func_srid@@UBEPBDXZ 004c7650 f i item_create.obj
 0001:000c6670       ?fix_length_and_dec@Item_func_srid@@UAEXXZ 004c7670 f i item_create.obj
 0001:000c66a0       ??_GItem_func_srid@@UAEPAXI@Z 004c76a0 f i item_create.obj
 0001:000c66a0       ??_EItem_func_srid@@UAEPAXI@Z 004c76a0 f i item_create.obj
 0001:000c6700       ??1Item_func_srid@@UAE@XZ  004c7700 f i item_create.obj
 0001:000c6740       ??0Item_func_spatial_decomp@@QAE@PAVItem@@W4Functype@Item_func@@@Z 004c7740 f i item_create.obj
 0001:000c67a0       ?func_name@Item_func_spatial_decomp@@UBEPBDXZ 004c77a0 f i item_create.obj
 0001:000c6840       ??_EItem_func_spatial_decomp@@UAEPAXI@Z 004c7840 f i item_create.obj
 0001:000c6840       ??_GItem_func_spatial_decomp@@UAEPAXI@Z 004c7840 f i item_create.obj
 0001:000c68a0       ??1Item_func_spatial_decomp@@UAE@XZ 004c78a0 f i item_create.obj
 0001:000c68d0       ??0Item_func_spatial_decomp_n@@QAE@PAVItem@@0W4Functype@Item_func@@@Z 004c78d0 f i item_create.obj
 0001:000c6930       ??0Item_geometry_func@@QAE@PAVItem@@0@Z 004c7930 f i item_create.obj
 0001:000c6980       ?func_name@Item_func_spatial_decomp_n@@UBEPBDXZ 004c7980 f i item_create.obj
 0001:000c6a20       ??_EItem_func_spatial_decomp_n@@UAEPAXI@Z 004c7a20 f i item_create.obj
 0001:000c6a20       ??_GItem_func_spatial_decomp_n@@UAEPAXI@Z 004c7a20 f i item_create.obj
 0001:000c6a80       ??1Item_func_spatial_decomp_n@@UAE@XZ 004c7a80 f i item_create.obj
 0001:000c6ab0       ??0Item_func_centroid@@QAE@PAVItem@@@Z 004c7ab0 f i item_create.obj
 0001:000c6b00       ?func_name@Item_func_centroid@@UBEPBDXZ 004c7b00 f i item_create.obj
 0001:000c6b20       ??_GItem_func_centroid@@UAEPAXI@Z 004c7b20 f i item_create.obj
 0001:000c6b20       ??_EItem_func_centroid@@UAEPAXI@Z 004c7b20 f i item_create.obj
 0001:000c6b80       ??1Item_func_centroid@@UAE@XZ 004c7b80 f i item_create.obj
 0001:000c6bb0       ??0Item_func_envelope@@QAE@PAVItem@@@Z 004c7bb0 f i item_create.obj
 0001:000c6c00       ?func_name@Item_func_envelope@@UBEPBDXZ 004c7c00 f i item_create.obj
 0001:000c6c20       ??_GItem_func_envelope@@UAEPAXI@Z 004c7c20 f i item_create.obj
 0001:000c6c20       ??_EItem_func_envelope@@UAEPAXI@Z 004c7c20 f i item_create.obj
 0001:000c6c80       ??1Item_func_envelope@@UAE@XZ 004c7c80 f i item_create.obj
 0001:000c6cb0       ??0Item_func_spatial_rel@@QAE@PAVItem@@0W4Functype@Item_func@@@Z 004c7cb0 f i item_create.obj
 0001:000c6d10       ?functype@Item_func_spatial_rel@@UBE?AW4Functype@Item_func@@XZ 004c7d10 f i item_create.obj
 0001:000c6d70       ?rev_functype@Item_func_spatial_rel@@UBE?AW4Functype@Item_func@@XZ 004c7d70 f i item_create.obj
 0001:000c6da0       ?func_name@Item_func_spatial_rel@@UBEPBDXZ 004c7da0 f i item_create.obj
 0001:000c6ea0       ?print@Item_func_spatial_rel@@UAEXPAVString@@@Z 004c7ea0 f i item_create.obj
 0001:000c6ee0       ?fix_length_and_dec@Item_func_spatial_rel@@UAEXXZ 004c7ee0 f i item_create.obj
 0001:000c6f00       ?is_null@Item_func_spatial_rel@@UAE_NXZ 004c7f00 f i item_create.obj
 0001:000c6f50       ??_EItem_func_spatial_rel@@UAEPAXI@Z 004c7f50 f i item_create.obj
 0001:000c6f50       ??_GItem_func_spatial_rel@@UAEPAXI@Z 004c7f50 f i item_create.obj
 0001:000c6fb0       ??1Item_func_spatial_rel@@UAE@XZ 004c7fb0 f i item_create.obj
 0001:000c6fe0       ??0Item_func_isempty@@QAE@PAVItem@@@Z 004c7fe0 f i item_create.obj
 0001:000c7030       ?select_optimize@Item_func_isempty@@UBE?AW4optimize_type@Item_func@@XZ 004c8030 f i item_create.obj
 0001:000c7050       ?func_name@Item_func_isempty@@UBEPBDXZ 004c8050 f i item_create.obj
 0001:000c7070       ?fix_length_and_dec@Item_func_isempty@@UAEXXZ 004c8070 f i item_create.obj
 0001:000c7090       ??_EItem_func_isempty@@UAEPAXI@Z 004c8090 f i item_create.obj
 0001:000c7090       ??_GItem_func_isempty@@UAEPAXI@Z 004c8090 f i item_create.obj
 0001:000c70f0       ??1Item_func_isempty@@UAE@XZ 004c80f0 f i item_create.obj
 0001:000c7120       ??0Item_func_issimple@@QAE@PAVItem@@@Z 004c8120 f i item_create.obj
 0001:000c7170       ?select_optimize@Item_func_issimple@@UBE?AW4optimize_type@Item_func@@XZ 004c8170 f i item_create.obj
 0001:000c7190       ?func_name@Item_func_issimple@@UBEPBDXZ 004c8190 f i item_create.obj
 0001:000c71b0       ?fix_length_and_dec@Item_func_issimple@@UAEXXZ 004c81b0 f i item_create.obj
 0001:000c71d0       ??_EItem_func_issimple@@UAEPAXI@Z 004c81d0 f i item_create.obj
 0001:000c71d0       ??_GItem_func_issimple@@UAEPAXI@Z 004c81d0 f i item_create.obj
 0001:000c7230       ??1Item_func_issimple@@UAE@XZ 004c8230 f i item_create.obj
 0001:000c7260       ??0Item_func_isclosed@@QAE@PAVItem@@@Z 004c8260 f i item_create.obj
 0001:000c72b0       ?select_optimize@Item_func_isclosed@@UBE?AW4optimize_type@Item_func@@XZ 004c82b0 f i item_create.obj
 0001:000c72d0       ?func_name@Item_func_isclosed@@UBEPBDXZ 004c82d0 f i item_create.obj
 0001:000c72f0       ?fix_length_and_dec@Item_func_isclosed@@UAEXXZ 004c82f0 f i item_create.obj
 0001:000c7310       ??_EItem_func_isclosed@@UAEPAXI@Z 004c8310 f i item_create.obj
 0001:000c7310       ??_GItem_func_isclosed@@UAEPAXI@Z 004c8310 f i item_create.obj
 0001:000c7370       ??1Item_func_isclosed@@UAE@XZ 004c8370 f i item_create.obj
 0001:000c73a0       ??0Item_func_geometry_type@@QAE@PAVItem@@@Z 004c83a0 f i item_create.obj
 0001:000c73f0       ?func_name@Item_func_geometry_type@@UBEPBDXZ 004c83f0 f i item_create.obj
 0001:000c7410       ?fix_length_and_dec@Item_func_geometry_type@@UAEXXZ 004c8410 f i item_create.obj
 0001:000c7440       ??_GItem_func_geometry_type@@UAEPAXI@Z 004c8440 f i item_create.obj
 0001:000c7440       ??_EItem_func_geometry_type@@UAEPAXI@Z 004c8440 f i item_create.obj
 0001:000c74a0       ??1Item_func_geometry_type@@UAE@XZ 004c84a0 f i item_create.obj
 0001:000c74d0       ??0Item_func_dimension@@QAE@PAVItem@@@Z 004c84d0 f i item_create.obj
 0001:000c7530       ?func_name@Item_func_dimension@@UBEPBDXZ 004c8530 f i item_create.obj
 0001:000c7550       ?fix_length_and_dec@Item_func_dimension@@UAEXXZ 004c8550 f i item_create.obj
 0001:000c7580       ??_EItem_func_dimension@@UAEPAXI@Z 004c8580 f i item_create.obj
 0001:000c7580       ??_GItem_func_dimension@@UAEPAXI@Z 004c8580 f i item_create.obj
 0001:000c75e0       ??1Item_func_dimension@@UAE@XZ 004c85e0 f i item_create.obj
 0001:000c7620       ??0Item_func_x@@QAE@PAVItem@@@Z 004c8620 f i item_create.obj
 0001:000c7680       ?func_name@Item_func_x@@UBEPBDXZ 004c8680 f i item_create.obj
 0001:000c76a0       ?fix_length_and_dec@Item_func_x@@UAEXXZ 004c86a0 f i item_create.obj
 0001:000c76e0       ??_GItem_func_x@@UAEPAXI@Z 004c86e0 f i item_create.obj
 0001:000c76e0       ??_EItem_func_x@@UAEPAXI@Z 004c86e0 f i item_create.obj
 0001:000c7740       ??1Item_func_x@@UAE@XZ     004c8740 f i item_create.obj
 0001:000c7780       ??0Item_func_y@@QAE@PAVItem@@@Z 004c8780 f i item_create.obj
 0001:000c77e0       ?func_name@Item_func_y@@UBEPBDXZ 004c87e0 f i item_create.obj
 0001:000c7800       ?fix_length_and_dec@Item_func_y@@UAEXXZ 004c8800 f i item_create.obj
 0001:000c7840       ??_GItem_func_y@@UAEPAXI@Z 004c8840 f i item_create.obj
 0001:000c7840       ??_EItem_func_y@@UAEPAXI@Z 004c8840 f i item_create.obj
 0001:000c78a0       ??1Item_func_y@@UAE@XZ     004c88a0 f i item_create.obj
 0001:000c78e0       ??0Item_func_numpoints@@QAE@PAVItem@@@Z 004c88e0 f i item_create.obj
 0001:000c7940       ?func_name@Item_func_numpoints@@UBEPBDXZ 004c8940 f i item_create.obj
 0001:000c7960       ?fix_length_and_dec@Item_func_numpoints@@UAEXXZ 004c8960 f i item_create.obj
 0001:000c7990       ??_GItem_func_numpoints@@UAEPAXI@Z 004c8990 f i item_create.obj
 0001:000c7990       ??_EItem_func_numpoints@@UAEPAXI@Z 004c8990 f i item_create.obj
 0001:000c79f0       ??1Item_func_numpoints@@UAE@XZ 004c89f0 f i item_create.obj
 0001:000c7a30       ??0Item_func_numinteriorring@@QAE@PAVItem@@@Z 004c8a30 f i item_create.obj
 0001:000c7a90       ?func_name@Item_func_numinteriorring@@UBEPBDXZ 004c8a90 f i item_create.obj
 0001:000c7ab0       ?fix_length_and_dec@Item_func_numinteriorring@@UAEXXZ 004c8ab0 f i item_create.obj
 0001:000c7ae0       ??_GItem_func_numinteriorring@@UAEPAXI@Z 004c8ae0 f i item_create.obj
 0001:000c7ae0       ??_EItem_func_numinteriorring@@UAEPAXI@Z 004c8ae0 f i item_create.obj
 0001:000c7b40       ??1Item_func_numinteriorring@@UAE@XZ 004c8b40 f i item_create.obj
 0001:000c7b80       ??0Item_func_numgeometries@@QAE@PAVItem@@@Z 004c8b80 f i item_create.obj
 0001:000c7be0       ?func_name@Item_func_numgeometries@@UBEPBDXZ 004c8be0 f i item_create.obj
 0001:000c7c00       ?fix_length_and_dec@Item_func_numgeometries@@UAEXXZ 004c8c00 f i item_create.obj
 0001:000c7c30       ??_GItem_func_numgeometries@@UAEPAXI@Z 004c8c30 f i item_create.obj
 0001:000c7c30       ??_EItem_func_numgeometries@@UAEPAXI@Z 004c8c30 f i item_create.obj
 0001:000c7c90       ??1Item_func_numgeometries@@UAE@XZ 004c8c90 f i item_create.obj
 0001:000c7cd0       ??0Item_func_area@@QAE@PAVItem@@@Z 004c8cd0 f i item_create.obj
 0001:000c7d30       ?func_name@Item_func_area@@UBEPBDXZ 004c8d30 f i item_create.obj
 0001:000c7d50       ?fix_length_and_dec@Item_func_area@@UAEXXZ 004c8d50 f i item_create.obj
 0001:000c7d90       ??_EItem_func_area@@UAEPAXI@Z 004c8d90 f i item_create.obj
 0001:000c7d90       ??_GItem_func_area@@UAEPAXI@Z 004c8d90 f i item_create.obj
 0001:000c7df0       ??1Item_func_area@@UAE@XZ  004c8df0 f i item_create.obj
 0001:000c7e30       ??0Item_func_glength@@QAE@PAVItem@@@Z 004c8e30 f i item_create.obj
 0001:000c7e90       ?func_name@Item_func_glength@@UBEPBDXZ 004c8e90 f i item_create.obj
 0001:000c7eb0       ?fix_length_and_dec@Item_func_glength@@UAEXXZ 004c8eb0 f i item_create.obj
 0001:000c7ef0       ??_EItem_func_glength@@UAEPAXI@Z 004c8ef0 f i item_create.obj
 0001:000c7ef0       ??_GItem_func_glength@@UAEPAXI@Z 004c8ef0 f i item_create.obj
 0001:000c7f50       ??1Item_func_glength@@UAE@XZ 004c8f50 f i item_create.obj
 0001:000c7f90       ??0Item_func_point@@QAE@PAVItem@@0@Z 004c8f90 f i item_create.obj
 0001:000c7fe0       ?func_name@Item_func_point@@UBEPBDXZ 004c8fe0 f i item_create.obj
 0001:000c8000       ??_EItem_func_point@@UAEPAXI@Z 004c9000 f i item_create.obj
 0001:000c8000       ??_GItem_func_point@@UAEPAXI@Z 004c9000 f i item_create.obj
 0001:000c8060       ??1Item_func_point@@UAE@XZ 004c9060 f i item_create.obj
 0001:000c8090       ??0Item_func_crc32@@QAE@PAVItem@@@Z 004c9090 f i item_create.obj
 0001:000c80f0       ?func_name@Item_func_crc32@@UBEPBDXZ 004c90f0 f i item_create.obj
 0001:000c8110       ?fix_length_and_dec@Item_func_crc32@@UAEXXZ 004c9110 f i item_create.obj
 0001:000c8140       ??_EItem_func_crc32@@UAEPAXI@Z 004c9140 f i item_create.obj
 0001:000c8140       ??_GItem_func_crc32@@UAEPAXI@Z 004c9140 f i item_create.obj
 0001:000c81a0       ??1Item_func_crc32@@UAE@XZ 004c91a0 f i item_create.obj
 0001:000c81e0       ??0Item_func_compress@@QAE@PAVItem@@@Z 004c91e0 f i item_create.obj
 0001:000c8240       ?fix_length_and_dec@Item_func_compress@@UAEXXZ 004c9240 f i item_create.obj
 0001:000c8280       ?func_name@Item_func_compress@@UBEPBDXZ 004c9280 f i item_create.obj
 0001:000c82a0       ??_GItem_func_compress@@UAEPAXI@Z 004c92a0 f i item_create.obj
 0001:000c82a0       ??_EItem_func_compress@@UAEPAXI@Z 004c92a0 f i item_create.obj
 0001:000c8300       ??1Item_func_compress@@UAE@XZ 004c9300 f i item_create.obj
 0001:000c8340       ??0Item_func_uncompress@@QAE@PAVItem@@@Z 004c9340 f i item_create.obj
 0001:000c83a0       ?fix_length_and_dec@Item_func_uncompress@@UAEXXZ 004c93a0 f i item_create.obj
 0001:000c83d0       ?func_name@Item_func_uncompress@@UBEPBDXZ 004c93d0 f i item_create.obj
 0001:000c83f0       ??_GItem_func_uncompress@@UAEPAXI@Z 004c93f0 f i item_create.obj
 0001:000c83f0       ??_EItem_func_uncompress@@UAEPAXI@Z 004c93f0 f i item_create.obj
 0001:000c8450       ??1Item_func_uncompress@@UAE@XZ 004c9450 f i item_create.obj
 0001:000c8490       ??0Item_func_uncompressed_length@@QAE@PAVItem@@@Z 004c9490 f i item_create.obj
 0001:000c84f0       ?func_name@Item_func_uncompressed_length@@UBEPBDXZ 004c94f0 f i item_create.obj
 0001:000c8510       ?fix_length_and_dec@Item_func_uncompressed_length@@UAEXXZ 004c9510 f i item_create.obj
 0001:000c8540       ??_GItem_func_uncompressed_length@@UAEPAXI@Z 004c9540 f i item_create.obj
 0001:000c8540       ??_EItem_func_uncompressed_length@@UAEPAXI@Z 004c9540 f i item_create.obj
 0001:000c85a0       ??1Item_func_uncompressed_length@@UAE@XZ 004c95a0 f i item_create.obj
 0001:000c85e0       ??0Item_func_minus@@QAE@PAVItem@@0@Z 004c95e0 f i item_create.obj
 0001:000c8630       ??0Item_func_additive_op@@QAE@PAVItem@@0@Z 004c9630 f i item_create.obj
 0001:000c8680       ??_GItem_func_additive_op@@UAEPAXI@Z 004c9680 f i item_create.obj
 0001:000c8680       ??_EItem_func_additive_op@@UAEPAXI@Z 004c9680 f i item_create.obj
 0001:000c86e0       ??1Item_func_additive_op@@UAE@XZ 004c96e0 f i item_create.obj
 0001:000c8710       ?func_name@Item_func_minus@@UBEPBDXZ 004c9710 f i item_create.obj
 0001:000c8730       ??_GItem_func_minus@@UAEPAXI@Z 004c9730 f i item_create.obj
 0001:000c8730       ??_EItem_func_minus@@UAEPAXI@Z 004c9730 f i item_create.obj
 0001:000c8790       ??1Item_func_minus@@UAE@XZ 004c9790 f i item_create.obj
 0001:000c87c0       ??0Item_func_week@@QAE@PAVItem@@0@Z 004c97c0 f i item_create.obj
 0001:000c8810       ?func_name@Item_func_week@@UBEPBDXZ 004c9810 f i item_create.obj
 0001:000c8830       ?fix_length_and_dec@Item_func_week@@UAEXXZ 004c9830 f i item_create.obj
 0001:000c8870       ??_EItem_func_week@@UAEPAXI@Z 004c9870 f i item_create.obj
 0001:000c8870       ??_GItem_func_week@@UAEPAXI@Z 004c9870 f i item_create.obj
 0001:000c88d0       ??1Item_func_week@@UAE@XZ  004c98d0 f i item_create.obj
 0001:000c8900       ??0Item_func_makedate@@QAE@PAVItem@@0@Z 004c9900 f i item_create.obj
 0001:000c8950       ??0Item_date_func@@QAE@PAVItem@@0@Z 004c9950 f i item_create.obj
 0001:000c89a0       ?field_type@Item_date_func@@UBE?AW4enum_field_types@@XZ 004c99a0 f i item_create.obj
 0001:000c89c0       ?tmp_table_field@Item_date_func@@UAEPAVField@@PAUst_table@@@Z 004c99c0 f i item_create.obj
 0001:000c8a50       ?result_as_longlong@Item_date_func@@UAE_NXZ 004c9a50 f i item_create.obj
 0001:000c8a70       ?val_real@Item_date_func@@UAENXZ 004c9a70 f i item_create.obj
 0001:000c8ad0       ?val_decimal@Item_date_func@@UAEPAVmy_decimal@@PAV2@@Z 004c9ad0 f i item_create.obj
 0001:000c8b30       ?save_in_field@Item_date_func@@UAEHPAVField@@_N@Z 004c9b30 f i item_create.obj
 0001:000c8b70       ??_GItem_date_func@@UAEPAXI@Z 004c9b70 f i item_create.obj
 0001:000c8b70       ??_EItem_date_func@@UAEPAXI@Z 004c9b70 f i item_create.obj
 0001:000c8bd0       ??1Item_date_func@@UAE@XZ  004c9bd0 f i item_create.obj
 0001:000c8c00       ?func_name@Item_func_makedate@@UBEPBDXZ 004c9c00 f i item_create.obj
 0001:000c8c20       ?field_type@Item_func_makedate@@UBE?AW4enum_field_types@@XZ 004c9c20 f i item_create.obj
 0001:000c8c40       ?fix_length_and_dec@Item_func_makedate@@UAEXXZ 004c9c40 f i item_create.obj
 0001:000c8c70       ?tmp_table_field@Item_func_makedate@@UAEPAVField@@PAUst_table@@@Z 004c9c70 f i item_create.obj
 0001:000c8d00       ?val_decimal@Item_func_makedate@@UAEPAVmy_decimal@@PAV2@@Z 004c9d00 f i item_create.obj
 0001:000c8d60       ?save_in_field@Item_func_makedate@@UAEHPAVField@@_N@Z 004c9d60 f i item_create.obj
 0001:000c8da0       ??_GItem_func_makedate@@UAEPAXI@Z 004c9da0 f i item_create.obj
 0001:000c8da0       ??_EItem_func_makedate@@UAEPAXI@Z 004c9da0 f i item_create.obj
 0001:000c8e00       ??1Item_func_makedate@@UAE@XZ 004c9e00 f i item_create.obj
 0001:000c8e30       ??0Item_func_add_time@@QAE@PAVItem@@0_N1@Z 004c9e30 f i item_create.obj
 0001:000c8eb0       ?field_type@Item_func_add_time@@UBE?AW4enum_field_types@@XZ 004c9eb0 f i item_create.obj
 0001:000c8ee0       ?tmp_table_field@Item_func_add_time@@UAEPAVField@@PAUst_table@@@Z 004c9ee0 f i item_create.obj
 0001:000c9060       ?func_name@Item_func_add_time@@UBEPBDXZ 004ca060 f i item_create.obj
 0001:000c9080       ?val_real@Item_func_add_time@@UAENXZ 004ca080 f i item_create.obj
 0001:000c90b0       ?val_decimal@Item_func_add_time@@UAEPAVmy_decimal@@PAV2@@Z 004ca0b0 f i item_create.obj
 0001:000c9160       ?save_in_field@Item_func_add_time@@UAEHPAVField@@_N@Z 004ca160 f i item_create.obj
 0001:000c91e0       ??_GItem_func_add_time@@UAEPAXI@Z 004ca1e0 f i item_create.obj
 0001:000c91e0       ??_EItem_func_add_time@@UAEPAXI@Z 004ca1e0 f i item_create.obj
 0001:000c9240       ??1Item_func_add_time@@UAE@XZ 004ca240 f i item_create.obj
 0001:000c9270       ??0Item_func_timediff@@QAE@PAVItem@@0@Z 004ca270 f i item_create.obj
 0001:000c92c0       ??0Item_str_timefunc@@QAE@PAVItem@@0@Z 004ca2c0 f i item_create.obj
 0001:000c9310       ?func_name@Item_func_timediff@@UBEPBDXZ 004ca310 f i item_create.obj
 0001:000c9330       ?fix_length_and_dec@Item_func_timediff@@UAEXXZ 004ca330 f i item_create.obj
 0001:000c9370       ??_GItem_func_timediff@@UAEPAXI@Z 004ca370 f i item_create.obj
 0001:000c9370       ??_EItem_func_timediff@@UAEPAXI@Z 004ca370 f i item_create.obj
 0001:000c93d0       ??1Item_func_timediff@@UAE@XZ 004ca3d0 f i item_create.obj
 0001:000c9400       ??0Item_func_maketime@@QAE@PAVItem@@00@Z 004ca400 f i item_create.obj
 0001:000c9460       ??0Item_str_timefunc@@QAE@PAVItem@@00@Z 004ca460 f i item_create.obj
 0001:000c94b0       ?func_name@Item_func_maketime@@UBEPBDXZ 004ca4b0 f i item_create.obj
 0001:000c94d0       ??_GItem_func_maketime@@UAEPAXI@Z 004ca4d0 f i item_create.obj
 0001:000c94d0       ??_EItem_func_maketime@@UAEPAXI@Z 004ca4d0 f i item_create.obj
 0001:000c9530       ??1Item_func_maketime@@UAE@XZ 004ca530 f i item_create.obj
 0001:000c9560       ??0Item_func_str_to_date@@QAE@PAVItem@@0@Z 004ca560 f i item_create.obj
 0001:000c95c0       ?func_name@Item_func_str_to_date@@UBEPBDXZ 004ca5c0 f i item_create.obj
 0001:000c95e0       ?field_type@Item_func_str_to_date@@UBE?AW4enum_field_types@@XZ 004ca5e0 f i item_create.obj
 0001:000c9610       ??_EItem_func_str_to_date@@UAEPAXI@Z 004ca610 f i item_create.obj
 0001:000c9610       ??_GItem_func_str_to_date@@UAEPAXI@Z 004ca610 f i item_create.obj
 0001:000c9670       ??1Item_func_str_to_date@@UAE@XZ 004ca670 f i item_create.obj
 0001:000c96a0       ??0Item_func_last_day@@QAE@PAVItem@@@Z 004ca6a0 f i item_create.obj
 0001:000c96f0       ?func_name@Item_func_last_day@@UBEPBDXZ 004ca6f0 f i item_create.obj
 0001:000c9710       ??_GItem_func_last_day@@UAEPAXI@Z 004ca710 f i item_create.obj
 0001:000c9710       ??_EItem_func_last_day@@UAEPAXI@Z 004ca710 f i item_create.obj
 0001:000c9770       ??1Item_func_last_day@@UAE@XZ 004ca770 f i item_create.obj
 0001:000c97a0       ?check_reserved_words@@YA_NPAUst_lex_string@@@Z 004ca7a0 f   item_func.obj
 0001:000c9840       ?eval_const_cond@@YA_NPAVItem@@@Z 004ca840 f   item_func.obj
 0001:000c98a0       ?set_arguments@Item_func@@QAEXAAV?$List@VItem@@@@@Z 004ca8a0 f   item_func.obj
 0001:000c99b0       ??0Item_func@@QAE@AAV?$List@VItem@@@@@Z 004ca9b0 f   item_func.obj
 0001:000c9a00       ??0Item_func@@QAE@PAVTHD@@PAV0@@Z 004caa00 f   item_func.obj
 0001:000c9af0       ?fix_fields@Item_func@@UAE_NPAVTHD@@PAPAVItem@@@Z 004caaf0 f   item_func.obj
 0001:000c9e20       ?walk@Item_func@@UAE_NP8Item@@AE_NPAE@Z0@Z 004cae20 f   item_func.obj
 0001:000c9ed0       ?traverse_cond@Item_func@@UAEXP6AXPBVItem@@PAX@Z1W4traverse_order@2@@Z 004caed0 f   item_func.obj
 0001:000ca020       ?transform@Item_func@@UAEPAVItem@@P82@AEPAV2@PAE@Z0@Z 004cb020 f   item_func.obj
 0001:000ca120       ?compile@Item_func@@UAEPAVItem@@P82@AE_NPAPAE@Z0P82@AEPAV2@PAE@Z2@Z 004cb120 f   item_func.obj
 0001:000ca250       ?split_sum_func@Item_func@@UAEXPAVTHD@@PAPAVItem@@AAV?$List@VItem@@@@@Z 004cb250 f   item_func.obj
 0001:000ca2d0       ?update_used_tables@Item_func@@UAEXXZ 004cb2d0 f   item_func.obj
 0001:000ca3e0       ?used_tables@Item_func@@UBE_KXZ 004cb3e0 f   item_func.obj
 0001:000ca400       ?not_null_tables@Item_func@@UBE_KXZ 004cb400 f   item_func.obj
 0001:000ca420       ?print@Item_func@@UAEXPAVString@@@Z 004cb420 f   item_func.obj
 0001:000ca490       ?print_args@Item_func@@QAEXPAVString@@I@Z 004cb490 f   item_func.obj
 0001:000ca520       ?print_op@Item_func@@QAEXPAVString@@@Z 004cb520 f   item_func.obj
 0001:000ca620       ?eq@Item_func@@UBE_NPBVItem@@_N@Z 004cb620 f   item_func.obj
 0001:000ca7d0       ?tmp_table_field@Item_func@@UAEPAVField@@PAUst_table@@@Z 004cb7d0 f   item_func.obj
 0001:000caa10       ?is_expensive_processor@Item_func@@UAE_NPAE@Z 004cba10 f   item_func.obj
 0001:000caa50       ?val_decimal@Item_func@@UAEPAVmy_decimal@@PAV2@@Z 004cba50 f   item_func.obj
 0001:000caac0       ?val_str@Item_real_func@@UAEPAVString@@PAV2@@Z 004cbac0 f   item_func.obj
 0001:000cab60       ?val_decimal@Item_real_func@@UAEPAVmy_decimal@@PAV2@@Z 004cbb60 f   item_func.obj
 0001:000cac00       ?fix_num_length_and_dec@Item_func@@UAEXXZ 004cbc00 f   item_func.obj
 0001:000cacf0       ?fix_num_length_and_dec@Item_func_numhybrid@@UAEXXZ 004cbcf0 f   item_func.obj
 0001:000cad10       ?count_decimal_length@Item_func@@QAEXXZ 004cbd10 f   item_func.obj
 0001:000cae60       ?count_only_length@Item_func@@QAEXXZ 004cbe60 f   item_func.obj
 0001:000caf10       ?count_real_length@Item_func@@QAEXXZ 004cbf10 f   item_func.obj
 0001:000cb080       ?signal_divide_by_null@Item_func@@QAEXXZ 004cc080 f   item_func.obj
 0001:000cb0f0       ?get_tmp_table_item@Item_func@@UAEPAVItem@@PAVTHD@@@Z 004cc0f0 f   item_func.obj
 0001:000cb1c0       ?val_real@Item_int_func@@UAENXZ 004cc1c0 f   item_func.obj
 0001:000cb290       ?val_str@Item_int_func@@UAEPAVString@@PAV2@@Z 004cc290 f   item_func.obj
 0001:000cb350       ?fix_length_and_dec@Item_func_connection_id@@UAEXXZ 004cc350 f   item_func.obj
 0001:000cb380       ?fix_fields@Item_func_connection_id@@UAE_NPAVTHD@@PAPAVItem@@@Z 004cc380 f   item_func.obj
 0001:000cb3e0       ?find_num_type@Item_num_op@@UAEXXZ 004cc3e0 f   item_func.obj
 0001:000cb6a0       ?find_num_type@Item_func_num1@@UAEXXZ 004cc6a0 f   item_func.obj
 0001:000cb8e0       ?fix_num_length_and_dec@Item_func_num1@@UAEXXZ 004cc8e0 f   item_func.obj
 0001:000cb920       ?fix_length_and_dec@Item_func_numhybrid@@UAEXXZ 004cc920 f   item_func.obj
 0001:000cb970       ?val_str@Item_func_numhybrid@@UAEPAVString@@PAV2@@Z 004cc970 f   item_func.obj
 0001:000cbb90       ?val_real@Item_func_numhybrid@@UAENXZ 004ccb90 f   item_func.obj
 0001:000cbe40       ?val_int@Item_func_numhybrid@@UAE_JXZ 004cce40 f   item_func.obj
 0001:000cc080       ?val_decimal@Item_func_numhybrid@@UAEPAVmy_decimal@@PAV2@@Z 004cd080 f   item_func.obj
 0001:000cc220       ?print@Item_func_signed@@UAEXPAVString@@@Z 004cd220 f   item_func.obj
 0001:000cc290       ?val_int_from_str@Item_func_signed@@QAE_JPAH@Z 004cd290 f   item_func.obj
 0001:000cc510       ?val_int@Item_func_signed@@UAE_JXZ 004cd510 f   item_func.obj
 0001:000cc640       ?print@Item_func_unsigned@@UAEXPAVString@@@Z 004cd640 f   item_func.obj
 0001:000cc6b0       ?val_int@Item_func_unsigned@@UAE_JXZ 004cd6b0 f   item_func.obj
 0001:000cc890       ?val_str@Item_decimal_typecast@@UAEPAVString@@PAV2@@Z 004cd890 f   item_func.obj
 0001:000cc940       ?val_real@Item_decimal_typecast@@UAENXZ 004cd940 f   item_func.obj
 0001:000cca00       ?val_int@Item_decimal_typecast@@UAE_JXZ 004cda00 f   item_func.obj
 0001:000ccac0       ?val_decimal@Item_decimal_typecast@@UAEPAVmy_decimal@@PAV2@@Z 004cdac0 f   item_func.obj
 0001:000ccc50       ?print@Item_decimal_typecast@@UAEXPAVString@@@Z 004cdc50 f   item_func.obj
 0001:000ccda0       ?real_op@Item_func_plus@@UAENXZ 004cdda0 f   item_func.obj
 0001:000cce60       ?int_op@Item_func_plus@@UAE_JXZ 004cde60 f   item_func.obj
 0001:000ccf30       ?decimal_op@Item_func_plus@@UAEPAVmy_decimal@@PAV2@@Z 004cdf30 f   item_func.obj
 0001:000cd090       ?result_precision@Item_func_additive_op@@UAEXXZ 004ce090 f   item_func.obj
 0001:000cd290       ?fix_length_and_dec@Item_func_minus@@UAEXXZ 004ce290 f   item_func.obj
 0001:000cd2e0       ?real_op@Item_func_minus@@UAENXZ 004ce2e0 f   item_func.obj
 0001:000cd3a0       ?int_op@Item_func_minus@@UAE_JXZ 004ce3a0 f   item_func.obj
 0001:000cd470       ?decimal_op@Item_func_minus@@UAEPAVmy_decimal@@PAV2@@Z 004ce470 f   item_func.obj
 0001:000cd5e0       ?real_op@Item_func_mul@@UAENXZ 004ce5e0 f   item_func.obj
 0001:000cd6d0       ?int_op@Item_func_mul@@UAE_JXZ 004ce6d0 f   item_func.obj
 0001:000cd7c0       ?decimal_op@Item_func_mul@@UAEPAVmy_decimal@@PAV2@@Z 004ce7c0 f   item_func.obj
 0001:000cd920       ?result_precision@Item_func_mul@@UAEXXZ 004ce920 f   item_func.obj
 0001:000cdac0       ?real_op@Item_func_div@@UAENXZ 004ceac0 f   item_func.obj
 0001:000cdbd0       ?decimal_op@Item_func_div@@UAEPAVmy_decimal@@PAV2@@Z 004cebd0 f   item_func.obj
 0001:000cdd40       ?result_precision@Item_func_div@@UAEXXZ 004ced40 f   item_func.obj
 0001:000cdea0       ?fix_length_and_dec@Item_func_div@@UAEXXZ 004ceea0 f   item_func.obj
 0001:000ce110       ?val_int@Item_func_int_div@@UAE_JXZ 004cf110 f   item_func.obj
 0001:000ce260       ?fix_length_and_dec@Item_func_int_div@@UAEXXZ 004cf260 f   item_func.obj
 0001:000ce310       ?int_op@Item_func_mod@@UAE_JXZ 004cf310 f   item_func.obj
 0001:000ce4d0       ?real_op@Item_func_mod@@UAENXZ 004cf4d0 f   item_func.obj
 0001:000ce5f0       ?decimal_op@Item_func_mod@@UAEPAVmy_decimal@@PAV2@@Z 004cf5f0 f   item_func.obj
 0001:000ce770       ?result_precision@Item_func_mod@@UAEXXZ 004cf770 f   item_func.obj
 0001:000ce820       ?fix_length_and_dec@Item_func_mod@@UAEXXZ 004cf820 f   item_func.obj
 0001:000ce860       ?real_op@Item_func_neg@@UAENXZ 004cf860 f   item_func.obj
 0001:000ce8d0       ?int_op@Item_func_neg@@UAE_JXZ 004cf8d0 f   item_func.obj
 0001:000ce940       ?decimal_op@Item_func_neg@@UAEPAVmy_decimal@@PAV2@@Z 004cf940 f   item_func.obj
 0001:000cea10       ?fix_num_length_and_dec@Item_func_neg@@UAEXXZ 004cfa10 f   item_func.obj
 0001:000cea50       ?fix_length_and_dec@Item_func_neg@@UAEXXZ 004cfa50 f   item_func.obj
 0001:000cec20       ?real_op@Item_func_abs@@UAENXZ 004cfc20 f   item_func.obj
 0001:000ceca0       ?int_op@Item_func_abs@@UAE_JXZ 004cfca0 f   item_func.obj
 0001:000ced60       ?decimal_op@Item_func_abs@@UAEPAVmy_decimal@@PAV2@@Z 004cfd60 f   item_func.obj
 0001:000cee40       ?fix_length_and_dec@Item_func_abs@@UAEXXZ 004cfe40 f   item_func.obj
 0001:000cee80       ?val_real@Item_func_ln@@UAENXZ 004cfe80 f   item_func.obj
 0001:000cef50       ?val_real@Item_func_log@@UAENXZ 004cff50 f   item_func.obj
 0001:000cf0e0       ?val_real@Item_func_log2@@UAENXZ 004d00e0 f   item_func.obj
 0001:000cf1b0       ?val_real@Item_func_log10@@UAENXZ 004d01b0 f   item_func.obj
 0001:000cf280       ?val_real@Item_func_exp@@UAENXZ 004d0280 f   item_func.obj
 0001:000cf330       ?val_real@Item_func_sqrt@@UAENXZ 004d0330 f   item_func.obj
 0001:000cf400       ?val_real@Item_func_pow@@UAENXZ 004d0400 f   item_func.obj
 0001:000cf500       ?val_real@Item_func_acos@@UAENXZ 004d0500 f   item_func.obj
 0001:000cf5e0       ?val_real@Item_func_asin@@UAENXZ 004d05e0 f   item_func.obj
 0001:000cf6c0       ?val_real@Item_func_atan@@UAENXZ 004d06c0 f   item_func.obj
 0001:000cf7f0       ?val_real@Item_func_cos@@UAENXZ 004d07f0 f   item_func.obj
 0001:000cf8a0       ?val_real@Item_func_sin@@UAENXZ 004d08a0 f   item_func.obj
 0001:000cf950       ?val_real@Item_func_tan@@UAENXZ 004d0950 f   item_func.obj
 0001:000cfa00       ?val_int@Item_func_shift_left@@UAE_JXZ 004d0a00 f   item_func.obj
 0001:000cfb00       ?val_int@Item_func_shift_right@@UAE_JXZ 004d0b00 f   item_func.obj
 0001:000cfc00       ?val_int@Item_func_bit_neg@@UAE_JXZ 004d0c00 f   item_func.obj
 0001:000cfcb0       ?fix_length_and_dec@Item_func_integer@@UAEXXZ 004d0cb0 f   item_func.obj
 0001:000cfd30       ?fix_num_length_and_dec@Item_func_int_val@@UAEXXZ 004d0d30 f   item_func.obj
 0001:000cfdd0       ?find_num_type@Item_func_int_val@@UAEXXZ 004d0dd0 f   item_func.obj
 0001:000d0050       ?int_op@Item_func_ceiling@@UAE_JXZ 004d1050 f   item_func.obj
 0001:000d0190       ?real_op@Item_func_ceiling@@UAENXZ 004d1190 f   item_func.obj
 0001:000d0210       ?decimal_op@Item_func_ceiling@@UAEPAVmy_decimal@@PAV2@@Z 004d1210 f   item_func.obj
 0001:000d02e0       ?int_op@Item_func_floor@@UAE_JXZ 004d12e0 f   item_func.obj
 0001:000d0420       ?real_op@Item_func_floor@@UAENXZ 004d1420 f   item_func.obj
 0001:000d04a0       ?decimal_op@Item_func_floor@@UAEPAVmy_decimal@@PAV2@@Z 004d14a0 f   item_func.obj
 0001:000d0570       ?fix_length_and_dec@Item_func_round@@UAEXXZ 004d1570 f   item_func.obj
 0001:000d0950       ?my_double_round@@YANN_J_N1@Z 004d1950 f   item_func.obj
 0001:000d0be0       ?real_op@Item_func_round@@UAENXZ 004d1be0 f   item_func.obj
 0001:000d0cc0       ?int_op@Item_func_round@@UAE_JXZ 004d1cc0 f   item_func.obj
 0001:000d0fb0       ?decimal_op@Item_func_round@@UAEPAVmy_decimal@@PAV2@@Z 004d1fb0 f   item_func.obj
 0001:000d1160       ?fix_fields@Item_func_rand@@UAE_NPAVTHD@@PAPAVItem@@@Z 004d2160 f   item_func.obj
 0001:000d1310       ?update_used_tables@Item_func_rand@@UAEXXZ 004d2310 f   item_func.obj
 0001:000d1350       ?val_real@Item_func_rand@@UAENXZ 004d2350 f   item_func.obj
 0001:000d13b0       ?val_int@Item_func_sign@@UAE_JXZ 004d23b0 f   item_func.obj
 0001:000d1480       ?val_real@Item_func_units@@UAENXZ 004d2480 f   item_func.obj
 0001:000d1530       ?fix_length_and_dec@Item_func_min_max@@UAEXXZ 004d2530 f   item_func.obj
 0001:000d1800       ?cmp_datetimes@Item_func_min_max@@QAEIPA_K@Z 004d2800 f   item_func.obj
 0001:000d19b0       ?val_str@Item_func_min_max@@UAEPAVString@@PAV2@@Z 004d29b0 f   item_func.obj
 0001:000d1d30       ?val_real@Item_func_min_max@@UAENXZ 004d2d30 f   item_func.obj
 0001:000d1f00       ?val_int@Item_func_min_max@@UAE_JXZ 004d2f00 f   item_func.obj
 0001:000d20d0       ?val_decimal@Item_func_min_max@@UAEPAVmy_decimal@@PAV2@@Z 004d30d0 f   item_func.obj
 0001:000d22c0       ?val_int@Item_func_length@@UAE_JXZ 004d32c0 f   item_func.obj
 0001:000d2360       ?val_int@Item_func_char_length@@UAE_JXZ 004d3360 f   item_func.obj
 0001:000d2400       ?val_int@Item_func_coercibility@@UAE_JXZ 004d3400 f   item_func.obj
 0001:000d2460       ?fix_length_and_dec@Item_func_locate@@UAEXXZ 004d3460 f   item_func.obj
 0001:000d24b0       ?val_int@Item_func_locate@@UAE_JXZ 004d34b0 f   item_func.obj
 0001:000d2730       ?print@Item_func_locate@@UAEXPAVString@@@Z 004d3730 f   item_func.obj
 0001:000d2800       ?val_int@Item_func_field@@UAE_JXZ 004d3800 f   item_func.obj
 0001:000d2c20       ?fix_length_and_dec@Item_func_field@@UAEXXZ 004d3c20 f   item_func.obj
 0001:000d2d20       ?val_int@Item_func_ascii@@UAE_JXZ 004d3d20 f   item_func.obj
 0001:000d2de0       ?val_int@Item_func_ord@@UAE_JXZ 004d3de0 f   item_func.obj
 0001:000d2f40       ?fix_length_and_dec@Item_func_find_in_set@@UAEXXZ 004d3f40 f   item_func.obj
 0001:000d30d0       ?val_int@Item_func_find_in_set@@UAE_JXZ 004d40d0 f   item_func.obj
 0001:000d33f0       ?val_int@Item_func_bit_count@@UAE_JXZ 004d43f0 f   item_func.obj
 0001:000d34a0       ?cleanup@udf_handler@@QAEXXZ 004d44a0 f   item_func.obj
 0001:000d3570       ?fix_fields@udf_handler@@QAE_NPAVTHD@@PAVItem_result_field@@IPAPAVItem@@@Z 004d4570 f   item_func.obj
 0001:000d4080       ?get_arguments@udf_handler@@QAE_NXZ 004d5080 f   item_func.obj
 0001:000d42a0       ?val_str@udf_handler@@QAEPAVString@@PAV2@0@Z 004d52a0 f   item_func.obj
 0001:000d45b0       ?val_decimal@udf_handler@@QAEPAVmy_decimal@@PADPAV2@@Z 004d55b0 f   item_func.obj
 0001:000d4700       ?cleanup@Item_udf_func@@UAEXXZ 004d5700 f   item_func.obj
 0001:000d4740       ?print@Item_udf_func@@UAEXPAVString@@@Z 004d5740 f   item_func.obj
 0001:000d47f0       ?val_real@Item_func_udf_float@@UAENXZ 004d57f0 f   item_func.obj
 0001:000d4960       ?val_str@Item_func_udf_float@@UAEPAVString@@PAV2@@Z 004d5960 f   item_func.obj
 0001:000d4a00       ?val_int@Item_func_udf_int@@UAE_JXZ 004d5a00 f   item_func.obj
 0001:000d4b20       ?val_str@Item_func_udf_int@@UAEPAVString@@PAV2@@Z 004d5b20 f   item_func.obj
 0001:000d4be0       ?val_int@Item_func_udf_decimal@@UAE_JXZ 004d5be0 f   item_func.obj
 0001:000d4ca0       ?val_real@Item_func_udf_decimal@@UAENXZ 004d5ca0 f   item_func.obj
 0001:000d4d60       ?val_decimal@Item_func_udf_decimal@@UAEPAVmy_decimal@@PAV2@@Z 004d5d60 f   item_func.obj
 0001:000d4ed0       ?val_str@Item_func_udf_decimal@@UAEPAVString@@PAV2@@Z 004d5ed0 f   item_func.obj
 0001:000d4fb0       ?fix_length_and_dec@Item_func_udf_decimal@@UAEXXZ 004d5fb0 f   item_func.obj
 0001:000d4ff0       ?fix_length_and_dec@Item_func_udf_str@@UAEXXZ 004d5ff0 f   item_func.obj
 0001:000d5130       ?val_str@Item_func_udf_str@@UAEPAVString@@PAV2@@Z 004d6130 f   item_func.obj
 0001:000d51b0       ??1udf_handler@@QAE@XZ     004d61b0 f   item_func.obj
 0001:000d5210       ?ull_get_key@@YAPADPBVUser_level_lock@@PAID@Z 004d6210 f   item_func.obj
 0001:000d5230       ?item_user_lock_init@@YAXXZ 004d6230 f   item_func.obj
 0001:000d5290       ?item_user_lock_free@@YAXXZ 004d6290 f   item_func.obj
 0001:000d52e0       ?item_user_lock_release@@YAXPAVUser_level_lock@@@Z 004d62e0 f   item_func.obj
 0001:000d5370       ?val_int@Item_master_pos_wait@@UAE_JXZ 004d6370 f   item_func.obj
 0001:000d54f0       ?val_int@Item_func_get_lock@@UAE_JXZ 004d64f0 f   item_func.obj
 0001:000d5bd0       ?val_int@Item_func_release_lock@@UAE_JXZ 004d6bd0 f   item_func.obj
 0001:000d5e90       ?fix_fields@Item_func_last_insert_id@@UAE_NPAVTHD@@PAPAVItem@@@Z 004d6e90 f   item_func.obj
 0001:000d5f50       ?val_int@Item_func_last_insert_id@@UAE_JXZ 004d6f50 f   item_func.obj
 0001:000d6010       ?val_int@Item_func_benchmark@@UAE_JXZ 004d7010 f   item_func.obj
 0001:000d62b0       ?print@Item_func_benchmark@@UAEXPAVString@@@Z 004d72b0 f   item_func.obj
 0001:000d63c0       ?val_int@Item_func_sleep@@UAE_JXZ 004d73c0 f   item_func.obj
 0001:000d6600       ?fix_fields@Item_func_set_user_var@@UAE_NPAVTHD@@PAPAVItem@@@Z 004d7600 f   item_func.obj
 0001:000d68d0       ?fix_length_and_dec@Item_func_set_user_var@@UAEXXZ 004d78d0 f   item_func.obj
 0001:000d6940       ?update_hash@Item_func_set_user_var@@QAE_NPAXIW4Item_result@@PAUcharset_info_st@@W4Derivation@@_N@Z 004d7940 f   item_func.obj
 0001:000d6bb0       ?val_real@user_var_entry@@QAENPAD@Z 004d7bb0 f   item_func.obj
 0001:000d6ca0       ?val_int@user_var_entry@@QBE_JPAD@Z 004d7ca0 f   item_func.obj
 0001:000d6dc0       ?val_str@user_var_entry@@QAEPAVString@@PADPAV2@I@Z 004d7dc0 f   item_func.obj
 0001:000d6ef0       ?val_decimal@user_var_entry@@QAEPAVmy_decimal@@PADPAV2@@Z 004d7ef0 f   item_func.obj
 0001:000d6fe0       ?check@Item_func_set_user_var@@QAE_N_N@Z 004d7fe0 f   item_func.obj
 0001:000d72f0       ?update@Item_func_set_user_var@@QAE_NXZ 004d82f0 f   item_func.obj
 0001:000d7530       ?val_real@Item_func_set_user_var@@UAENXZ 004d8530 f   item_func.obj
 0001:000d75a0       ?val_int@Item_func_set_user_var@@UAE_JXZ 004d85a0 f   item_func.obj
 0001:000d7610       ?val_str@Item_func_set_user_var@@UAEPAVString@@PAV2@@Z 004d8610 f   item_func.obj
 0001:000d7690       ?val_decimal@Item_func_set_user_var@@UAEPAVmy_decimal@@PAV2@@Z 004d8690 f   item_func.obj
 0001:000d7700       ?val_result@Item_func_set_user_var@@UAENXZ 004d8700 f   item_func.obj
 0001:000d7770       ?val_int_result@Item_func_set_user_var@@UAE_JXZ 004d8770 f   item_func.obj
 0001:000d77e0       ?str_result@Item_func_set_user_var@@UAEPAVString@@PAV2@@Z 004d87e0 f   item_func.obj
 0001:000d7860       ?val_decimal_result@Item_func_set_user_var@@UAEPAVmy_decimal@@PAV2@@Z 004d8860 f   item_func.obj
 0001:000d78d0       ?print@Item_func_set_user_var@@UAEXPAVString@@@Z 004d88d0 f   item_func.obj
 0001:000d7960       ?print_as_stmt@Item_func_set_user_var@@QAEXPAVString@@@Z 004d8960 f   item_func.obj
 0001:000d79f0       ?send@Item_func_set_user_var@@UAE_NPAVProtocol@@PAVString@@@Z 004d89f0 f   item_func.obj
 0001:000d7a60       ?make_field@Item_func_set_user_var@@UAEXPAVSend_field@@@Z 004d8a60 f   item_func.obj
 0001:000d7af0       ?save_in_field@Item_func_set_user_var@@QAEHPAVField@@_N1@Z 004d8af0 f   item_func.obj
 0001:000d7e90       ?val_str@Item_func_get_user_var@@UAEPAVString@@PAV2@@Z 004d8e90 f   item_func.obj
 0001:000d7fe0       ?val_real@Item_func_get_user_var@@UAENXZ 004d8fe0 f   item_func.obj
 0001:000d8050       ?val_decimal@Item_func_get_user_var@@UAEPAVmy_decimal@@PAV2@@Z 004d9050 f   item_func.obj
 0001:000d80c0       ?val_int@Item_func_get_user_var@@UAE_JXZ 004d90c0 f   item_func.obj
 0001:000d8130       ?get_var_with_binlog@@YAHPAVTHD@@W4enum_sql_command@@AAUst_lex_string@@PAPAVuser_var_entry@@@Z 004d9130 f   item_func.obj
 0001:000d8530       ?fix_length_and_dec@Item_func_get_user_var@@UAEXXZ 004d9530 f   item_func.obj
 0001:000d86a0       ?const_item@Item_func_get_user_var@@UBE_NXZ 004d96a0 f   item_func.obj
 0001:000d8720       ?result_type@Item_func_get_user_var@@UBE?AW4Item_result@@XZ 004d9720 f   item_func.obj
 0001:000d8780       ?print@Item_func_get_user_var@@UAEXPAVString@@@Z 004d9780 f   item_func.obj
 0001:000d87e0       ?eq@Item_func_get_user_var@@UBE_NPBVItem@@_N@Z 004d97e0 f   item_func.obj
 0001:000d88d0       ?set_value@Item_func_get_user_var@@EAE_NPAVTHD@@PAVsp_rcontext@@PAPAVItem@@@Z 004d98d0 f   item_func.obj
 0001:000d89b0       ?fix_fields@Item_user_var_as_out_param@@UAE_NPAVTHD@@PAPAVItem@@@Z 004d99b0 f   item_func.obj
 0001:000d8a80       ?set_null_value@Item_user_var_as_out_param@@QAEXPAUcharset_info_st@@@Z 004d9a80 f   item_func.obj
 0001:000d8ad0       ?set_value@Item_user_var_as_out_param@@QAEXPBDIPAUcharset_info_st@@@Z 004d9ad0 f   item_func.obj
 0001:000d8b30       ?val_real@Item_user_var_as_out_param@@UAENXZ 004d9b30 f   item_func.obj
 0001:000d8b70       ?val_int@Item_user_var_as_out_param@@UAE_JXZ 004d9b70 f   item_func.obj
 0001:000d8bb0       ?val_str@Item_user_var_as_out_param@@UAEPAVString@@PAV2@@Z 004d9bb0 f   item_func.obj
 0001:000d8bf0       ?val_decimal@Item_user_var_as_out_param@@UAEPAVmy_decimal@@PAV2@@Z 004d9bf0 f   item_func.obj
 0001:000d8c30       ?print@Item_user_var_as_out_param@@UAEXPAVString@@@Z 004d9c30 f   item_func.obj
 0001:000d8c70       ??0Item_func_get_system_var@@QAE@PAVsys_var@@W4enum_var_type@@PAUst_lex_string@@PBDI@Z 004d9c70 f   item_func.obj
 0001:000d8cf0       ?fix_fields@Item_func_get_system_var@@UAE_NPAVTHD@@PAPAVItem@@@Z 004d9cf0 f   item_func.obj
 0001:000d8e50       ?val_int@Item_func_inet_aton@@UAE_JXZ 004d9e50 f   item_func.obj
 0001:000d90a0       ?init_search@Item_func_match@@QAEX_N@Z 004da0a0 f   item_func.obj
 0001:000d94e0       ?fix_fields@Item_func_match@@UAE_NPAVTHD@@PAPAVItem@@@Z 004da4e0 f   item_func.obj
 0001:000d9880       ?fix_index@Item_func_match@@QAE_NXZ 004da880 f   item_func.obj
 0001:000d9ce0       ?eq@Item_func_match@@UBE_NPBVItem@@_N@Z 004dace0 f   item_func.obj
 0001:000d9df0       ?val_real@Item_func_match@@UAENXZ 004dadf0 f   item_func.obj
 0001:000da0e0       ?print@Item_func_match@@UAEXPAVString@@@Z 004db0e0 f   item_func.obj
 0001:000da1a0       ?val_int@Item_func_bit_xor@@UAE_JXZ 004db1a0 f   item_func.obj
 0001:000da290       ?get_system_var@@YAPAVItem@@PAVTHD@@W4enum_var_type@@Ust_lex_string@@2@Z 004db290 f   item_func.obj
 0001:000da3a0       ?val_int@Item_func_is_free_lock@@UAE_JXZ 004db3a0 f   item_func.obj
 0001:000da4b0       ?val_int@Item_func_is_used_lock@@UAE_JXZ 004db4b0 f   item_func.obj
 0001:000da5c0       ?val_int@Item_func_row_count@@UAE_JXZ 004db5c0 f   item_func.obj
 0001:000da620       ??0Item_func_sp@@QAE@PAUName_resolution_context@@PAVsp_name@@@Z 004db620 f   item_func.obj
 0001:000da6c0       ??0Item_func_sp@@QAE@PAUName_resolution_context@@PAVsp_name@@AAV?$List@VItem@@@@@Z 004db6c0 f   item_func.obj
 0001:000da760       ?cleanup@Item_func_sp@@UAEXXZ 004db760 f   item_func.obj
 0001:000da800       ?func_name@Item_func_sp@@UBEPBDXZ 004db800 f   item_func.obj
 0001:000da970       ?init_result_field@Item_func_sp@@AAE_NPAVTHD@@@Z 004db970 f   item_func.obj
 0001:000dacd0       ?fix_length_and_dec@Item_func_sp@@UAEXXZ 004dbcd0 f   item_func.obj
 0001:000dae70       ?execute@Item_func_sp@@AAE_NXZ 004dbe70 f   item_func.obj
 0001:000daf10       ?execute_impl@Item_func_sp@@AAE_NPAVTHD@@@Z 004dbf10 f   item_func.obj
 0001:000db0c0       ?make_field@Item_func_sp@@UAEXPAVSend_field@@@Z 004dc0c0 f   item_func.obj
 0001:000db210       ?field_type@Item_func_sp@@UBE?AW4enum_field_types@@XZ 004dc210 f   item_func.obj
 0001:000db340       ?result_type@Item_func_sp@@UBE?AW4Item_result@@XZ 004dc340 f   item_func.obj
 0001:000db4a0       ?val_int@Item_func_found_rows@@UAE_JXZ 004dc4a0 f   item_func.obj
 0001:000db4f0       ?tmp_table_field@Item_func_sp@@UAEPAVField@@PAUst_table@@@Z 004dc4f0 f   item_func.obj
 0001:000db600       ?sp_check_access@Item_func_sp@@QAE_NPAVTHD@@@Z 004dc600 f   item_func.obj
 0001:000db760       ?fix_fields@Item_func_sp@@UAE_NPAVTHD@@PAPAVItem@@@Z 004dc760 f   item_func.obj
 0001:000db990       ?update_used_tables@Item_func_sp@@UAEXXZ 004dc990 f   item_func.obj
 0001:000e0280       ??0Item_result_field@@QAE@PAVTHD@@PAV0@@Z 004e1280 f i item_func.obj
 0001:000e02e0       ??0Field_long@@QAE@K_NPBDPAUst_table@@0@Z 004e12e0 f i item_func.obj
 0001:000e0350       ??0Field_longlong@@QAE@K_NPBDPAUst_table@@0@Z 004e1350 f i item_func.obj
 0001:000e03c0       ??0Field_double@@QAE@K_NPBDPAUst_table@@E@Z 004e13c0 f i item_func.obj
 0001:000e0430       ?my_decimal_intg@@YAHPBVmy_decimal@@@Z 004e1430 f i item_func.obj
 0001:000e0450       ?my_decimal_sub@@YAHIPAVmy_decimal@@PBV1@1@Z 004e1450 f i item_func.obj
 0001:000e0490       ?my_decimal_mul@@YAHIPAVmy_decimal@@PBV1@1@Z 004e1490 f i item_func.obj
 0001:000e04d0       ?my_decimal_mod@@YAHIPAVmy_decimal@@PBV1@1@Z 004e14d0 f i item_func.obj
 0001:000e0510       ?fix_result@Item_dec_func@@QAENN@Z 004e1510 f i item_func.obj
 0001:000e0580       ?my_decimal_ceiling@@YAHIPBVmy_decimal@@PAV1@@Z 004e1580 f i item_func.obj
 0001:000e05c0       ?my_decimal_floor@@YAHIPBVmy_decimal@@PAV1@@Z 004e15c0 f i item_func.obj
 0001:000e0600       ??AString@@QBEAADK@Z       004e1600 f i item_func.obj
 0001:000e0630       ??_EString@@QAEPAXI@Z      004e1630 f i item_func.obj
 0001:000e06d0       ??3String@@SAXPAXI@Z       004e16d0 f i item_func.obj
 0001:000e0700       ?val@udf_handler@@QAENPAD@Z 004e1700 f i item_func.obj
 0001:000e07f0       ?val_int@udf_handler@@QAE_JPAD@Z 004e17f0 f i item_func.obj
 0001:000e08e0       ??_GUser_level_lock@@QAEPAXI@Z 004e18e0 f i item_func.obj
 0001:000e0930       ??1User_level_lock@@QAE@XZ 004e1930 f i item_func.obj
 0001:000e09b0       ??0User_level_lock@@QAE@PBDIK@Z 004e19b0 f i item_func.obj
 0001:000e0aa0       ?initialized@User_level_lock@@QAE_NXZ 004e1aa0 f i item_func.obj
 0001:000e0ad0       ?fatal_error@THD@@QAEXXZ   004e1ad0 f i item_func.obj
 0001:000e0b40       ??0Item_func_set_user_var@@QAE@Ust_lex_string@@PAVItem@@@Z 004e1b40 f i item_func.obj
 0001:000e0be0       ?functype@Item_func_set_user_var@@UBE?AW4Functype@Item_func@@XZ 004e1be0 f i item_func.obj
 0001:000e0c00       ?result_type@Item_func_set_user_var@@UBE?AW4Item_result@@XZ 004e1c00 f i item_func.obj
 0001:000e0c30       ?func_name@Item_func_set_user_var@@UBEPBDXZ 004e1c30 f i item_func.obj
 0001:000e0c50       ?save_in_field@Item_func_set_user_var@@UAEHPAVField@@_N@Z 004e1c50 f i item_func.obj
 0001:000e0c90       ?save_org_in_field@Item_func_set_user_var@@UAEXPAVField@@@Z 004e1c90 f i item_func.obj
 0001:000e0cd0       ??_EItem_func_set_user_var@@UAEPAXI@Z 004e1cd0 f i item_func.obj
 0001:000e0cd0       ??_GItem_func_set_user_var@@UAEPAXI@Z 004e1cd0 f i item_func.obj
 0001:000e0d30       ??1Item_func_set_user_var@@UAE@XZ 004e1d30 f i item_func.obj
 0001:000e0d70       ??0set_var_user@@QAE@PAVItem_func_set_user_var@@@Z 004e1d70 f i item_func.obj
 0001:000e0dc0       ??0set_var_base@@QAE@XZ    004e1dc0 f i item_func.obj
 0001:000e0e00       ?light_check@set_var_base@@UAEHPAVTHD@@@Z 004e1e00 f i item_func.obj
 0001:000e0e50       ?no_support_one_shot@set_var_base@@UAE_NXZ 004e1e50 f i item_func.obj
 0001:000e0e70       ??_Eset_var_base@@UAEPAXI@Z 004e1e70 f i item_func.obj
 0001:000e0e70       ??_Gset_var_base@@UAEPAXI@Z 004e1e70 f i item_func.obj
 0001:000e0ec0       ??1set_var_base@@UAE@XZ    004e1ec0 f i item_func.obj
 0001:000e0f30       ??_Gset_var_user@@UAEPAXI@Z 004e1f30 f i item_func.obj
 0001:000e0f30       ??_Eset_var_user@@UAEPAXI@Z 004e1f30 f i item_func.obj
 0001:000e0f80       ??1set_var_user@@UAE@XZ    004e1f80 f i item_func.obj
 0001:000e0fb0       ??1st_lex@@UAE@XZ          004e1fb0 f i item_func.obj
 0001:000e1150       ??1?$List@VString@@@@QAE@XZ 004e2150 f i item_func.obj
 0001:000e1180       ??1?$List@Vkey_part_spec@@@@QAE@XZ 004e2180 f i item_func.obj
 0001:000e11b0       ??1?$List@V?$List@VItem@@@@@@QAE@XZ 004e21b0 f i item_func.obj
 0001:000e11e0       ??1st_select_lex@@UAE@XZ   004e21e0 f i item_func.obj
 0001:000e12d0       ??1st_select_lex_node@@UAE@XZ 004e22d0 f i item_func.obj
 0001:000e1300       ?set_lock_for_tables@st_select_lex_node@@UAEXW4thr_lock_type@@@Z 004e2300 f i item_func.obj
 0001:000e1320       ??_Est_select_lex_node@@UAEPAXI@Z 004e2320 f i item_func.obj
 0001:000e1320       ??_Gst_select_lex_node@@UAEPAXI@Z 004e2320 f i item_func.obj
 0001:000e1370       ??3st_select_lex_node@@SAXPAXI@Z 004e2370 f i item_func.obj
 0001:000e13a0       ??1Name_resolution_context@@QAE@XZ 004e23a0 f i item_func.obj
 0001:000e13d0       ??1?$List@VItem_func_match@@@@QAE@XZ 004e23d0 f i item_func.obj
 0001:000e1400       ??1?$List@UTABLE_LIST@@@@QAE@XZ 004e2400 f i item_func.obj
 0001:000e1430       ??1?$List@VItem_outer_ref@@@@QAE@XZ 004e2430 f i item_func.obj
 0001:000e1460       ??1?$List@Ust_udf_func@@@@QAE@XZ 004e2460 f i item_func.obj
 0001:000e1490       ??1Query_tables_list@@QAE@XZ 004e2490 f i item_func.obj
 0001:000e14b0       ??_Est_lex@@UAEPAXI@Z      004e24b0 f i item_func.obj
 0001:000e14b0       ??_Gst_lex@@UAEPAXI@Z      004e24b0 f i item_func.obj
 0001:000e1500       ??1st_select_lex_unit@@UAE@XZ 004e2500 f i item_func.obj
 0001:000e1550       ??1?$List@Ust_lex_user@@@@QAE@XZ 004e2550 f i item_func.obj
 0001:000e1580       ??1?$List@VLEX_COLUMN@@@@QAE@XZ 004e2580 f i item_func.obj
 0001:000e15b0       ??1?$List@Vset_var_base@@@@QAE@XZ 004e25b0 f i item_func.obj
 0001:000e15e0       ??1?$List@VItem_param@@@@QAE@XZ 004e25e0 f i item_func.obj
 0001:000e1610       ??1?$List@UName_resolution_context@@@@QAE@XZ 004e2610 f i item_func.obj
 0001:000e1640       ??1Alter_info@@QAE@XZ      004e2640 f i item_func.obj
 0001:000e16a0       ??1?$List@VAlter_drop@@@@QAE@XZ 004e26a0 f i item_func.obj
 0001:000e16d0       ??1?$List@VAlter_column@@@@QAE@XZ 004e26d0 f i item_func.obj
 0001:000e1700       ??1?$List@VKey@@@@QAE@XZ   004e2700 f i item_func.obj
 0001:000e1730       ??1?$List@Vcreate_field@@@@QAE@XZ 004e2730 f i item_func.obj
 0001:000e1760       ?get_name@Item_func_get_user_var@@QAE?AUst_lex_string@@XZ 004e2760 f i item_func.obj
 0001:000e17a0       ?val_real@Item_func_get_system_var@@UAENXZ 004e27a0 f i item_func.obj
 0001:000e17f0       ?val_int@Item_func_get_system_var@@UAE_JXZ 004e27f0 f i item_func.obj
 0001:000e1840       ?val_str@Item_func_get_system_var@@UAEPAVString@@PAV2@@Z 004e2840 f i item_func.obj
 0001:000e1890       ?fix_length_and_dec@Item_func_get_system_var@@UAEXXZ 004e2890 f i item_func.obj
 0001:000e18e0       ?func_name@Item_func_get_system_var@@UBEPBDXZ 004e28e0 f i item_func.obj
 0001:000e1900       ??_GItem_func_get_system_var@@UAEPAXI@Z 004e2900 f i item_func.obj
 0001:000e1900       ??_EItem_func_get_system_var@@UAEPAXI@Z 004e2900 f i item_func.obj
 0001:000e1960       ??1Item_func_get_system_var@@UAE@XZ 004e2960 f i item_func.obj
 0001:000e1990       ??0Item_func_concat_ws@@QAE@AAV?$List@VItem@@@@@Z 004e2990 f i item_func.obj
 0001:000e19f0       ??0Item_str_func@@QAE@AAV?$List@VItem@@@@@Z 004e29f0 f i item_func.obj
 0001:000e1a40       ?func_name@Item_func_concat_ws@@UBEPBDXZ 004e2a40 f i item_func.obj
 0001:000e1a60       ?not_null_tables@Item_func_concat_ws@@UBE_KXZ 004e2a60 f i item_func.obj
 0001:000e1a80       ??_GItem_func_concat_ws@@UAEPAXI@Z 004e2a80 f i item_func.obj
 0001:000e1a80       ??_EItem_func_concat_ws@@UAEPAXI@Z 004e2a80 f i item_func.obj
 0001:000e1ae0       ??1Item_func_concat_ws@@UAE@XZ 004e2ae0 f i item_func.obj
 0001:000e1b20       ?agg_arg_collations_for_comparison@Item_func@@QAE_NAAVDTCollation@@PAPAVItem@@II@Z 004e2b20 f i item_func.obj
 0001:000e1b90       ?is_set@?$Bitmap@$0EA@@@QBEDI@Z 004e2b90 f i item_func.obj
 0001:000e1c10       ?val_int@Item_func_sp@@UAE_JXZ 004e2c10 f i item_func.obj
 0001:000e1c80       ?val_real@Item_func_sp@@UAENXZ 004e2c80 f i item_func.obj
 0001:000e1cf0       ?val_decimal@Item_func_sp@@UAEPAVmy_decimal@@PAV2@@Z 004e2cf0 f i item_func.obj
 0001:000e1d60       ?val_str@Item_func_sp@@UAEPAVString@@PAV2@@Z 004e2d60 f i item_func.obj
 0001:000e1e90       ?change_context_processor@Item_func_sp@@UAE_NPAE@Z 004e2e90 f i item_func.obj
 0001:000e1ec0       ?functype@Item_func_sp@@UBE?AW4Functype@Item_func@@XZ 004e2ec0 f i item_func.obj
 0001:000e1ee0       ?is_expensive@Item_func_sp@@UAE_NXZ 004e2ee0 f i item_func.obj
 0001:000e1f00       ??_EItem_func_sp@@UAEPAXI@Z 004e2f00 f i item_func.obj
 0001:000e1f00       ??_GItem_func_sp@@UAEPAXI@Z 004e2f00 f i item_func.obj
 0001:000e1f60       ??1Item_func_sp@@UAE@XZ    004e2f60 f i item_func.obj
 0001:000e1fa0       ?move_field@Field@@QAEXPAD@Z 004e2fa0 f i item_func.obj
 0001:000e1fd0       ?send_kill_message@THD@@QBEXXZ 004e2fd0 f i item_func.obj
 0001:000e2040       ?killed_errno@THD@@QBEHXZ  004e3040 f i item_func.obj
 0001:000e2090       ?found_rows@THD@@QAE_KXZ   004e3090 f i item_func.obj
 0001:000e20c0       ??0?$List@Vset_var_base@@@@QAE@XZ 004e30c0 f i item_func.obj
 0001:000e20f0       ?push_back@?$List@Vset_var_base@@@@QAE_NPAVset_var_base@@@Z 004e30f0 f i item_func.obj
 0001:000e2130       ?tmp_table_field@Item_geometry_func@@UAEPAVField@@PAUst_table@@@Z 004e3130 f   item_geofunc.obj
 0001:000e21d0       ?fix_length_and_dec@Item_geometry_func@@UAEXXZ 004e31d0 f   item_geofunc.obj
 0001:000e2220       ?val_str@Item_func_geometry_from_text@@UAEPAVString@@PAV2@@Z 004e3220 f   item_geofunc.obj
 0001:000e2440       ?val_str@Item_func_geometry_from_wkb@@UAEPAVString@@PAV2@@Z 004e3440 f   item_geofunc.obj
 0001:000e2610       ?val_str@Item_func_as_wkt@@UAEPAVString@@PAV2@@Z 004e3610 f   item_geofunc.obj
 0001:000e27a0       ?fix_length_and_dec@Item_func_as_wkt@@UAEXXZ 004e37a0 f   item_geofunc.obj
 0001:000e27d0       ?val_str@Item_func_as_wkb@@UAEPAVString@@PAV2@@Z 004e37d0 f   item_geofunc.obj
 0001:000e2930       ?val_str@Item_func_geometry_type@@UAEPAVString@@PAV2@@Z 004e3930 f   item_geofunc.obj
 0001:000e2a80       ?get_geometry_type@Item_func_envelope@@UBE?AW4geometry_type@Field@@XZ 004e3a80 f   item_geofunc.obj
 0001:000e2aa0       ?val_str@Item_func_envelope@@UAEPAVString@@PAV2@@Z 004e3aa0 f   item_geofunc.obj
 0001:000e2c60       ?get_geometry_type@Item_func_centroid@@UBE?AW4geometry_type@Field@@XZ 004e3c60 f   item_geofunc.obj
 0001:000e2c80       ?val_str@Item_func_centroid@@UAEPAVString@@PAV2@@Z 004e3c80 f   item_geofunc.obj
 0001:000e2e50       ?val_str@Item_func_spatial_decomp@@UAEPAVString@@PAV2@@Z 004e3e50 f   item_geofunc.obj
 0001:000e3080       ?val_str@Item_func_spatial_decomp_n@@UAEPAVString@@PAV2@@Z 004e4080 f   item_geofunc.obj
 0001:000e32f0       ?get_geometry_type@Item_func_point@@UBE?AW4geometry_type@Field@@XZ 004e42f0 f   item_geofunc.obj
 0001:000e3310       ?val_str@Item_func_point@@UAEPAVString@@PAV2@@Z 004e4310 f   item_geofunc.obj
 0001:000e3450       ?val_str@Item_func_spatial_collection@@UAEPAVString@@PAV2@@Z 004e4450 f   item_geofunc.obj
 0001:000e38c0       ?val_int@Item_func_spatial_rel@@UAE_JXZ 004e48c0 f   item_geofunc.obj
 0001:000e3be0       ?val_int@Item_func_isempty@@UAE_JXZ 004e4be0 f   item_geofunc.obj
 0001:000e3d00       ?val_int@Item_func_issimple@@UAE_JXZ 004e4d00 f   item_geofunc.obj
 0001:000e3e20       ?val_int@Item_func_isclosed@@UAE_JXZ 004e4e20 f   item_geofunc.obj
 0001:000e3f80       ?val_int@Item_func_dimension@@UAE_JXZ 004e4f80 f   item_geofunc.obj
 0001:000e40d0       ?val_int@Item_func_numinteriorring@@UAE_JXZ 004e50d0 f   item_geofunc.obj
 0001:000e41f0       ?val_int@Item_func_numgeometries@@UAE_JXZ 004e51f0 f   item_geofunc.obj
 0001:000e4310       ?val_int@Item_func_numpoints@@UAE_JXZ 004e5310 f   item_geofunc.obj
 0001:000e4440       ?val_real@Item_func_x@@UAENXZ 004e5440 f   item_geofunc.obj
 0001:000e4560       ?val_real@Item_func_y@@UAENXZ 004e5560 f   item_geofunc.obj
 0001:000e4680       ?val_real@Item_func_area@@UAENXZ 004e5680 f   item_geofunc.obj
 0001:000e47c0       ?val_real@Item_func_glength@@UAENXZ 004e57c0 f   item_geofunc.obj
 0001:000e48e0       ?val_int@Item_func_srid@@UAE_JXZ 004e58e0 f   item_geofunc.obj
 0001:000e5420       ?q_append@String@@QAEXK@Z  004e6420 f i item_geofunc.obj
 0001:000e5470       ??0Gis_read_stream@@QAE@PAUcharset_info_st@@PBDH@Z 004e6470 f i item_geofunc.obj
 0001:000e54c0       ??1Gis_read_stream@@QAE@XZ 004e64c0 f i item_geofunc.obj
 0001:000e5510       ?as_wkt@Geometry@@QAEHPAVString@@PAPBD@Z 004e6510 f i item_geofunc.obj
 0001:000e5610       ?qs_append@String@@QAEXD@Z 004e6610 f i item_geofunc.obj
 0001:000e5660       ?q_append@String@@QAEXD@Z  004e6660 f i item_geofunc.obj
 0001:000e56b0       ?q_append@String@@QAEXN@Z  004e66b0 f i item_geofunc.obj
 0001:000e5710       ?append@String@@QAE_NPBDKK@Z 004e6710 f i item_geofunc.obj
 0001:000e57c0       ?equals@MBR@@QAEHPBU1@@Z   004e67c0 f i item_geofunc.obj
 0001:000e5870       ?disjoint@MBR@@QAEHPBU1@@Z 004e6870 f i item_geofunc.obj
 0001:000e5910       ?intersects@MBR@@QAEHPBU1@@Z 004e6910 f i item_geofunc.obj
 0001:000e5950       ?touches@MBR@@QAEHPBU1@@Z  004e6950 f i item_geofunc.obj
 0001:000e5ab0       ?within@MBR@@QAEHPBU1@@Z   004e6ab0 f i item_geofunc.obj
 0001:000e5b50       ?contains@MBR@@QAEHPBU1@@Z 004e6b50 f i item_geofunc.obj
 0001:000e5bf0       ?overlaps@MBR@@QAEHPBU1@@Z 004e6bf0 f i item_geofunc.obj
 0001:000e5dd0       ??0MBR@@QAE@NNNN@Z         004e6dd0 f i item_geofunc.obj
 0001:000e5e20       ?dimension@MBR@@QBEHXZ     004e6e20 f i item_geofunc.obj
 0001:000e5ee0       ??0Item_row@@QAE@AAV?$List@VItem@@@@@Z 004e6ee0 f   item_row.obj
 0001:000e5ff0       ?illegal_method_call@Item_row@@QAEXPBD@Z 004e6ff0 f   item_row.obj
 0001:000e6120       ?fix_fields@Item_row@@UAE_NPAVTHD@@PAPAVItem@@@Z 004e7120 f   item_row.obj
 0001:000e6330       ?cleanup@Item_row@@UAEXXZ  004e7330 f   item_row.obj
 0001:000e6430       ?split_sum_func@Item_row@@UAEXPAVTHD@@PAPAVItem@@AAV?$List@VItem@@@@@Z 004e7430 f   item_row.obj
 0001:000e64b0       ?update_used_tables@Item_row@@UAEXXZ 004e74b0 f   item_row.obj
 0001:000e65c0       ?check_cols@Item_row@@UAE_NI@Z 004e75c0 f   item_row.obj
 0001:000e6610       ?print@Item_row@@UAEXPAVString@@@Z 004e7610 f   item_row.obj
 0001:000e66b0       ?walk@Item_row@@UAE_NP8Item@@AE_NPAE@Z0@Z 004e76b0 f   item_row.obj
 0001:000e6750       ?transform@Item_row@@UAEPAVItem@@P82@AEPAV2@PAE@Z0@Z 004e7750 f   item_row.obj
 0001:000e6850       ?bring_value@Item_row@@UAEXXZ 004e7850 f   item_row.obj
 0001:000e6b40       ?type@Item_row@@UBE?AW4Type@Item@@XZ 004e7b40 f i item_row.obj
 0001:000e6b60       ?is_null@Item_row@@UAE_NXZ 004e7b60 f i item_row.obj
 0001:000e6b90       ?make_field@Item_row@@UAEXPAVSend_field@@@Z 004e7b90 f i item_row.obj
 0001:000e6bd0       ?val_real@Item_row@@UAENXZ 004e7bd0 f i item_row.obj
 0001:000e6c10       ?val_int@Item_row@@UAE_JXZ 004e7c10 f i item_row.obj
 0001:000e6c50       ?val_str@Item_row@@UAEPAVString@@PAV2@@Z 004e7c50 f i item_row.obj
 0001:000e6c90       ?val_decimal@Item_row@@UAEPAVmy_decimal@@PAV2@@Z 004e7c90 f i item_row.obj
 0001:000e6cd0       ?used_tables@Item_row@@UBE_KXZ 004e7cd0 f i item_row.obj
 0001:000e6d00       ?const_item@Item_row@@UBE_NXZ 004e7d00 f i item_row.obj
 0001:000e6d20       ?result_type@Item_row@@UBE?AW4Item_result@@XZ 004e7d20 f i item_row.obj
 0001:000e6d40       ?cols@Item_row@@UAEIXZ     004e7d40 f i item_row.obj
 0001:000e6d60       ?element_index@Item_row@@UAEPAVItem@@I@Z 004e7d60 f i item_row.obj
 0001:000e6d90       ?addr@Item_row@@UAEPAPAVItem@@I@Z 004e7d90 f i item_row.obj
 0001:000e6dc0       ?null_inside@Item_row@@UAE_NXZ 004e7dc0 f i item_row.obj
 0001:000e6de0       ??_GItem_row@@UAEPAXI@Z    004e7de0 f i item_row.obj
 0001:000e6de0       ??_EItem_row@@UAEPAXI@Z    004e7de0 f i item_row.obj
 0001:000e6e30       ??1Item_row@@UAE@XZ        004e7e30 f i item_row.obj
 0001:000e6e60       ?fix_fields@Item_str_func@@UAE_NPAVTHD@@PAPAVItem@@@Z 004e7e60 f   item_strfunc.obj
 0001:000e6ee0       ?val_decimal@Item_str_func@@UAEPAVmy_decimal@@PAV2@@Z 004e7ee0 f   item_strfunc.obj
 0001:000e7000       ?val_real@Item_str_func@@UAENXZ 004e8000 f   item_strfunc.obj
 0001:000e7180       ?val_int@Item_str_func@@UAE_JXZ 004e8180 f   item_strfunc.obj
 0001:000e72d0       ?val_str@Item_func_md5@@UAEPAVString@@PAV2@@Z 004e82d0 f   item_strfunc.obj
 0001:000e7490       ?fix_length_and_dec@Item_func_md5@@UAEXXZ 004e8490 f   item_strfunc.obj
 0001:000e74f0       ?val_str@Item_func_sha@@UAEPAVString@@PAV2@@Z 004e84f0 f   item_strfunc.obj
 0001:000e7710       ?fix_length_and_dec@Item_func_sha@@UAEXXZ 004e8710 f   item_strfunc.obj
 0001:000e7770       ?val_str@Item_func_aes_encrypt@@UAEPAVString@@PAV2@@Z 004e8770 f   item_strfunc.obj
 0001:000e7970       ?fix_length_and_dec@Item_func_aes_encrypt@@UAEXXZ 004e8970 f   item_strfunc.obj
 0001:000e79b0       ?val_str@Item_func_aes_decrypt@@UAEPAVString@@PAV2@@Z 004e89b0 f   item_strfunc.obj
 0001:000e7c70       ?fix_length_and_dec@Item_func_aes_decrypt@@UAEXXZ 004e8c70 f   item_strfunc.obj
 0001:000e7ca0       ?val_str@Item_func_concat@@UAEPAVString@@PAV2@@Z 004e8ca0 f   item_strfunc.obj
 0001:000e81e0       ?fix_length_and_dec@Item_func_concat@@UAEXXZ 004e91e0 f   item_strfunc.obj
 0001:000e8320       ?val_str@Item_func_des_encrypt@@UAEPAVString@@PAV2@@Z 004e9320 f   item_strfunc.obj
 0001:000e8750       ?val_str@Item_func_des_decrypt@@UAEPAVString@@PAV2@@Z 004e9750 f   item_strfunc.obj
 0001:000e8ad0       ?val_str@Item_func_concat_ws@@UAEPAVString@@PAV2@@Z 004e9ad0 f   item_strfunc.obj
 0001:000e9070       ?fix_length_and_dec@Item_func_concat_ws@@UAEXXZ 004ea070 f   item_strfunc.obj
 0001:000e9150       ?val_str@Item_func_reverse@@UAEPAVString@@PAV2@@Z 004ea150 f   item_strfunc.obj
 0001:000e9380       ?fix_length_and_dec@Item_func_reverse@@UAEXXZ 004ea380 f   item_strfunc.obj
 0001:000e93d0       ?val_str@Item_func_replace@@UAEPAVString@@PAV2@@Z 004ea3d0 f   item_strfunc.obj
 0001:000e9830       ?fix_length_and_dec@Item_func_replace@@UAEXXZ 004ea830 f   item_strfunc.obj
 0001:000e9930       ?val_str@Item_func_insert@@UAEPAVString@@PAV2@@Z 004ea930 f   item_strfunc.obj
 0001:000e9c60       ?fix_length_and_dec@Item_func_insert@@UAEXXZ 004eac60 f   item_strfunc.obj
 0001:000e9d10       ?val_str@Item_str_conv@@UAEPAVString@@PAV2@@Z 004ead10 f   item_strfunc.obj
 0001:000e9ef0       ?val_str@Item_func_left@@UAEPAVString@@PAV2@@Z 004eaef0 f   item_strfunc.obj
 0001:000ea070       ?left_right_max_length@Item_str_func@@QAEXXZ 004eb070 f   item_strfunc.obj
 0001:000ea130       ?fix_length_and_dec@Item_func_left@@UAEXXZ 004eb130 f   item_strfunc.obj
 0001:000ea170       ?val_str@Item_func_right@@UAEPAVString@@PAV2@@Z 004eb170 f   item_strfunc.obj
 0001:000ea300       ?fix_length_and_dec@Item_func_right@@UAEXXZ 004eb300 f   item_strfunc.obj
 0001:000ea340       ?val_str@Item_func_substr@@UAEPAVString@@PAV2@@Z 004eb340 f   item_strfunc.obj
 0001:000ea690       ?fix_length_and_dec@Item_func_substr@@UAEXXZ 004eb690 f   item_strfunc.obj
 0001:000ea830       ?fix_length_and_dec@Item_func_substr_index@@UAEXXZ 004eb830 f   item_strfunc.obj
 0001:000ea880       ?val_str@Item_func_substr_index@@UAEPAVString@@PAV2@@Z 004eb880 f   item_strfunc.obj
 0001:000eaca0       ?val_str@Item_func_ltrim@@UAEPAVString@@PAV2@@Z 004ebca0 f   item_strfunc.obj
 0001:000eb020       ?val_str@Item_func_rtrim@@UAEPAVString@@PAV2@@Z 004ec020 f   item_strfunc.obj
 0001:000eb540       ?val_str@Item_func_trim@@UAEPAVString@@PAV2@@Z 004ec540 f   item_strfunc.obj
 0001:000eb9c0       ?fix_length_and_dec@Item_func_trim@@UAEXXZ 004ec9c0 f   item_strfunc.obj
 0001:000eba60       ?print@Item_func_trim@@UAEXPAVString@@@Z 004eca60 f   item_strfunc.obj
 0001:000ebb50       ?val_str@Item_func_password@@UAEPAVString@@PAV2@@Z 004ecb50 f   item_strfunc.obj
 0001:000ebc30       ?alloc@Item_func_password@@SAPADPAVTHD@@PBD@Z 004ecc30 f   item_strfunc.obj
 0001:000ebc80       ?val_str@Item_func_old_password@@UAEPAVString@@PAV2@@Z 004ecc80 f   item_strfunc.obj
 0001:000ebd60       ?alloc@Item_func_old_password@@SAPADPAVTHD@@PBD@Z 004ecd60 f   item_strfunc.obj
 0001:000ebdb0       ?val_str@Item_func_encrypt@@UAEPAVString@@PAV2@@Z 004ecdb0 f   item_strfunc.obj
 0001:000ebe30       ?fix_length_and_dec@Item_func_encode@@UAEXXZ 004ece30 f   item_strfunc.obj
 0001:000ebe80       ?val_str@Item_func_encode@@UAEPAVString@@PAV2@@Z 004ece80 f   item_strfunc.obj
 0001:000ebf70       ?print@Item_func_encode@@UAEXPAVString@@@Z 004ecf70 f   item_strfunc.obj
 0001:000ec020       ?val_str@Item_func_decode@@UAEPAVString@@PAV2@@Z 004ed020 f   item_strfunc.obj
 0001:000ec100       ?safe_charset_converter@Item_func_sysconst@@UAEPAVItem@@PAUcharset_info_st@@@Z 004ed100 f   item_strfunc.obj
 0001:000ec2a0       ?val_str@Item_func_database@@UAEPAVString@@PAV2@@Z 004ed2a0 f   item_strfunc.obj
 0001:000ec330       ?init@Item_func_user@@IAE_NPBD0@Z 004ed330 f   item_strfunc.obj
 0001:000ec440       ?fix_fields@Item_func_user@@UAE_NPAVTHD@@PAPAVItem@@@Z 004ed440 f   item_strfunc.obj
 0001:000ec4c0       ?fix_fields@Item_func_current_user@@UAE_NPAVTHD@@PAPAVItem@@@Z 004ed4c0 f   item_strfunc.obj
 0001:000ec560       ?fix_length_and_dec@Item_func_soundex@@UAEXXZ 004ed560 f   item_strfunc.obj
 0001:000ec5f0       ?val_str@Item_func_soundex@@UAEPAVString@@PAV2@@Z 004ed5f0 f   item_strfunc.obj
 0001:000ecaf0       ??0Item_func_format@@QAE@PAVItem@@H@Z 004edaf0 f   item_strfunc.obj
 0001:000ecb50       ?val_str@Item_func_format@@UAEPAVString@@PAV2@@Z 004edb50 f   item_strfunc.obj
 0001:000ecf60       ?print@Item_func_format@@UAEXPAVString@@@Z 004edf60 f   item_strfunc.obj
 0001:000ed060       ?fix_length_and_dec@Item_func_elt@@UAEXXZ 004ee060 f   item_strfunc.obj
 0001:000ed160       ?val_real@Item_func_elt@@UAENXZ 004ee160 f   item_strfunc.obj
 0001:000ed230       ?val_int@Item_func_elt@@UAE_JXZ 004ee230 f   item_strfunc.obj
 0001:000ed310       ?val_str@Item_func_elt@@UAEPAVString@@PAV2@@Z 004ee310 f   item_strfunc.obj
 0001:000ed400       ?split_sum_func@Item_func_make_set@@UAEXPAVTHD@@PAPAVItem@@AAV?$List@VItem@@@@@Z 004ee400 f   item_strfunc.obj
 0001:000ed460       ?fix_length_and_dec@Item_func_make_set@@UAEXXZ 004ee460 f   item_strfunc.obj
 0001:000ed5d0       ?update_used_tables@Item_func_make_set@@UAEXXZ 004ee5d0 f   item_strfunc.obj
 0001:000ed690       ?val_str@Item_func_make_set@@UAEPAVString@@PAV2@@Z 004ee690 f   item_strfunc.obj
 0001:000ed8f0       ?transform@Item_func_make_set@@UAEPAVItem@@P82@AEPAV2@PAE@Z0@Z 004ee8f0 f   item_strfunc.obj
 0001:000ed9c0       ?print@Item_func_make_set@@UAEXPAVString@@@Z 004ee9c0 f   item_strfunc.obj
 0001:000eda50       ?val_str@Item_func_char@@UAEPAVString@@PAV2@@Z 004eea50 f   item_strfunc.obj
 0001:000edbe0       ?fix_length_and_dec@Item_func_repeat@@UAEXXZ 004eebe0 f   item_strfunc.obj
 0001:000edd00       ?val_str@Item_func_repeat@@UAEPAVString@@PAV2@@Z 004eed00 f   item_strfunc.obj
 0001:000edf30       ?fix_length_and_dec@Item_func_rpad@@UAEXXZ 004eef30 f   item_strfunc.obj
 0001:000ee070       ?val_str@Item_func_rpad@@UAEPAVString@@PAV2@@Z 004ef070 f   item_strfunc.obj
 0001:000ee3b0       ?fix_length_and_dec@Item_func_lpad@@UAEXXZ 004ef3b0 f   item_strfunc.obj
 0001:000ee4f0       ?val_str@Item_func_lpad@@UAEPAVString@@PAV2@@Z 004ef4f0 f   item_strfunc.obj
 0001:000ee800       ?val_str@Item_func_conv@@UAEPAVString@@PAV2@@Z 004ef800 f   item_strfunc.obj
 0001:000eeaf0       ?val_str@Item_func_conv_charset@@UAEPAVString@@PAV2@@Z 004efaf0 f   item_strfunc.obj
 0001:000eec50       ?fix_length_and_dec@Item_func_conv_charset@@UAEXXZ 004efc50 f   item_strfunc.obj
 0001:000eecb0       ?print@Item_func_conv_charset@@UAEXPAVString@@@Z 004efcb0 f   item_strfunc.obj
 0001:000eed40       ?val_str@Item_func_set_collation@@UAEPAVString@@PAV2@@Z 004efd40 f   item_strfunc.obj
 0001:000eede0       ?fix_length_and_dec@Item_func_set_collation@@UAEXXZ 004efde0 f   item_strfunc.obj
 0001:000eef60       ?eq@Item_func_set_collation@@UBE_NPBVItem@@_N@Z 004eff60 f   item_strfunc.obj
 0001:000ef090       ?print@Item_func_set_collation@@UAEXPAVString@@@Z 004f0090 f   item_strfunc.obj
 0001:000ef180       ?val_str@Item_func_charset@@UAEPAVString@@PAV2@@Z 004f0180 f   item_strfunc.obj
 0001:000ef250       ?val_str@Item_func_collation@@UAEPAVString@@PAV2@@Z 004f0250 f   item_strfunc.obj
 0001:000ef320       ?val_str@Item_func_hex@@UAEPAVString@@PAV2@@Z 004f0320 f   item_strfunc.obj
 0001:000ef5e0       ?val_str@Item_func_unhex@@UAEPAVString@@PAV2@@Z 004f05e0 f   item_strfunc.obj
 0001:000ef7f0       ?print@Item_func_binary@@UAEXPAVString@@@Z 004f07f0 f   item_strfunc.obj
 0001:000ef860       ?val_str@Item_load_file@@UAEPAVString@@PAV2@@Z 004f0860 f   item_strfunc.obj
 0001:000efbc0       ?val_str@Item_func_export_set@@UAEPAVString@@PAV2@@Z 004f0bc0 f   item_strfunc.obj
 0001:000effc0       ?fix_length_and_dec@Item_func_export_set@@UAEXXZ 004f0fc0 f   item_strfunc.obj
 0001:000f00b0       ?val_str@Item_func_inet_ntoa@@UAEPAVString@@PAV2@@Z 004f10b0 f   item_strfunc.obj
 0001:000f02a0       ?val_str@Item_func_quote@@UAEPAVString@@PAV2@@Z 004f12a0 f   item_strfunc.obj
 0001:000f0560       ?val_int@Item_func_uncompressed_length@@UAE_JXZ 004f1560 f   item_strfunc.obj
 0001:000f0620       ?val_int@Item_func_crc32@@UAE_JXZ 004f1620 f   item_strfunc.obj
 0001:000f06d0       ?val_str@Item_func_compress@@UAEPAVString@@PAV2@@Z 004f16d0 f   item_strfunc.obj
 0001:000f0900       ?val_str@Item_func_uncompress@@UAEPAVString@@PAV2@@Z 004f1900 f   item_strfunc.obj
 0001:000f0b30       ?val_str@Item_func_uuid@@UAEPAVString@@PAV2@@Z 004f1b30 f   item_strfunc.obj
 0001:000f37a0       ?set@String@@QAEXAAV1@KK@Z 004f47a0 f i item_strfunc.obj
 0001:000f3860       ?init@SQL_CRYPT@@QAEXXZ    004f4860 f i item_strfunc.obj
 0001:000f38c0       ?fix_length_and_dec@Item_func_format@@UAEXXZ 004f48c0 f i item_strfunc.obj
 0001:000f3970       ?func_name@Item_func_format@@UBEPBDXZ 004f4970 f i item_strfunc.obj
 0001:000f3990       ??_EItem_func_format@@UAEPAXI@Z 004f4990 f i item_strfunc.obj
 0001:000f3990       ??_GItem_func_format@@UAEPAXI@Z 004f4990 f i item_strfunc.obj
 0001:000f39f0       ??1Item_func_format@@UAE@XZ 004f49f0 f i item_strfunc.obj
 0001:000f3a30       ?alloc_buffer@@YAPAVString@@PAV1@00K@Z 004f4a30 f i item_strfunc.obj
 0001:000f3ae0       ?hexchar_to_int@@YAHD@Z    004f4ae0 f i item_strfunc.obj
 0001:000f3b40       ?sql_rnd_with_mutex@@YAKXZ 004f4b40 f i item_strfunc.obj
 0001:000f3bc0       ??0String@@QAE@PBDPAUcharset_info_st@@@Z 004f4bc0 f i item_strfunc.obj
 0001:000f3c30       ??0Item_subselect@@QAE@XZ  004f4c30 f   item_subselect.obj
 0001:000f3ce0       ?init@Item_subselect@@UAEXPAVst_select_lex@@PAVselect_subselect@@@Z 004f4ce0 f   item_subselect.obj
 0001:000f3f90       ?get_select_lex@Item_subselect@@QAEPAVst_select_lex@@XZ 004f4f90 f   item_subselect.obj
 0001:000f3fc0       ?cleanup@Item_subselect@@UAEXXZ 004f4fc0 f   item_subselect.obj
 0001:000f4130       ?cleanup@Item_singlerow_subselect@@UAEXXZ 004f5130 f   item_subselect.obj
 0001:000f4230       ??1Item_subselect@@UAE@XZ  004f5230 f   item_subselect.obj
 0001:000f42b0       ?select_transformer@Item_subselect@@UAE?AW4trans_res@1@PAVJOIN@@@Z 004f52b0 f   item_subselect.obj
 0001:000f43a0       ?fix_fields@Item_subselect@@UAE_NPAVTHD@@PAPAVItem@@@Z 004f53a0 f   item_subselect.obj
 0001:000f46c0       ?exec@Item_subselect@@UAE_NXZ 004f56c0 f   item_subselect.obj
 0001:000f4750       ?type@Item_subselect@@UBE?AW4Type@Item@@XZ 004f5750 f   item_subselect.obj
 0001:000f4770       ?fix_length_and_dec@Item_subselect@@UAEXXZ 004f5770 f   item_subselect.obj
 0001:000f47b0       ?used_tables@Item_subselect@@UBE_KXZ 004f57b0 f   item_subselect.obj
 0001:000f4830       ?const_item@Item_subselect@@UBE_NXZ 004f5830 f   item_subselect.obj
 0001:000f4850       ?get_tmp_table_item@Item_subselect@@UAEPAVItem@@PAVTHD@@@Z 004f5850 f   item_subselect.obj
 0001:000f4900       ?update_used_tables@Item_subselect@@UAEXXZ 004f5900 f   item_subselect.obj
 0001:000f4990       ?print@Item_subselect@@UAEXPAVString@@@Z 004f5990 f   item_subselect.obj
 0001:000f49f0       ??0Item_singlerow_subselect@@QAE@PAVst_select_lex@@@Z 004f59f0 f   item_subselect.obj
 0001:000f4b40       ?invalidate_and_restore_select_lex@Item_singlerow_subselect@@QAEPAVst_select_lex@@XZ 004f5b40 f   item_subselect.obj
 0001:000f4c60       ??0Item_maxmin_subselect@@QAE@PAVTHD@@PAVItem_subselect@@PAVst_select_lex@@_N@Z 004f5c60 f   item_subselect.obj
 0001:000f4df0       ?cleanup@Item_maxmin_subselect@@UAEXXZ 004f5df0 f   item_subselect.obj
 0001:000f4ee0       ?print@Item_maxmin_subselect@@UAEXPAVString@@@Z 004f5ee0 f   item_subselect.obj
 0001:000f4f40       ?reset@Item_singlerow_subselect@@UAEXXZ 004f5f40 f   item_subselect.obj
 0001:000f4f80       ?select_transformer@Item_singlerow_subselect@@UAE?AW4trans_res@Item_subselect@@PAVJOIN@@@Z 004f5f80 f   item_subselect.obj
 0001:000f51e0       ?store@Item_singlerow_subselect@@QAEXIPAVItem@@@Z 004f61e0 f   item_subselect.obj
 0001:000f5240       ?result_type@Item_singlerow_subselect@@UBE?AW4Item_result@@XZ 004f6240 f   item_subselect.obj
 0001:000f5270       ?field_type@Item_singlerow_subselect@@UBE?AW4enum_field_types@@XZ 004f6270 f   item_subselect.obj
 0001:000f52a0       ?fix_length_and_dec@Item_singlerow_subselect@@UAEXXZ 004f62a0 f   item_subselect.obj
 0001:000f53e0       ?cols@Item_singlerow_subselect@@UAEIXZ 004f63e0 f   item_subselect.obj
 0001:000f5420       ?check_cols@Item_singlerow_subselect@@UAE_NI@Z 004f6420 f   item_subselect.obj
 0001:000f5480       ?null_inside@Item_singlerow_subselect@@UAE_NXZ 004f6480 f   item_subselect.obj
 0001:000f54e0       ?bring_value@Item_singlerow_subselect@@UAEXXZ 004f64e0 f   item_subselect.obj
 0001:000f5520       ?val_real@Item_singlerow_subselect@@UAENXZ 004f6520 f   item_subselect.obj
 0001:000f55e0       ?val_int@Item_singlerow_subselect@@UAE_JXZ 004f65e0 f   item_subselect.obj
 0001:000f56a0       ?val_str@Item_singlerow_subselect@@UAEPAVString@@PAV2@@Z 004f66a0 f   item_subselect.obj
 0001:000f5740       ?val_decimal@Item_singlerow_subselect@@UAEPAVmy_decimal@@PAV2@@Z 004f6740 f   item_subselect.obj
 0001:000f57e0       ?val_bool@Item_singlerow_subselect@@UAE_NXZ 004f67e0 f   item_subselect.obj
 0001:000f5870       ??0Item_exists_subselect@@QAE@PAVst_select_lex@@@Z 004f6870 f   item_subselect.obj
 0001:000f59d0       ?print@Item_exists_subselect@@UAEXPAVString@@@Z 004f69d0 f   item_subselect.obj
 0001:000f5a10       ?test_limit@Item_in_subselect@@QAE_NPAVst_select_lex_unit@@@Z 004f6a10 f   item_subselect.obj
 0001:000f5aa0       ??0Item_in_subselect@@QAE@PAVItem@@PAVst_select_lex@@@Z 004f6aa0 f   item_subselect.obj
 0001:000f5c50       ??0Item_allany_subselect@@QAE@PAVItem@@P6APAVComp_creator@@_N@ZPAVst_select_lex@@1@Z 004f6c50 f   item_subselect.obj
 0001:000f5e00       ?fix_length_and_dec@Item_exists_subselect@@UAEXXZ 004f6e00 f   item_subselect.obj
 0001:000f5ea0       ?val_real@Item_exists_subselect@@UAENXZ 004f6ea0 f   item_subselect.obj
 0001:000f5f40       ?val_int@Item_exists_subselect@@UAE_JXZ 004f6f40 f   item_subselect.obj
 0001:000f5fd0       ?val_str@Item_exists_subselect@@UAEPAVString@@PAV2@@Z 004f6fd0 f   item_subselect.obj
 0001:000f6070       ?val_decimal@Item_exists_subselect@@UAEPAVmy_decimal@@PAV2@@Z 004f7070 f   item_subselect.obj
 0001:000f6110       ?val_bool@Item_exists_subselect@@UAE_NXZ 004f7110 f   item_subselect.obj
 0001:000f61a0       ?val_real@Item_in_subselect@@UAENXZ 004f71a0 f   item_subselect.obj
 0001:000f6290       ?val_int@Item_in_subselect@@UAE_JXZ 004f7290 f   item_subselect.obj
 0001:000f6370       ?val_str@Item_in_subselect@@UAEPAVString@@PAV2@@Z 004f7370 f   item_subselect.obj
 0001:000f6460       ?val_bool@Item_in_subselect@@UAE_NXZ 004f7460 f   item_subselect.obj
 0001:000f6520       ?val_decimal@Item_in_subselect@@UAEPAVmy_decimal@@PAV2@@Z 004f7520 f   item_subselect.obj
 0001:000f6610       ?single_value_transformer@Item_in_subselect@@QAE?AW4trans_res@Item_subselect@@PAVJOIN@@PAVComp_creator@@@Z 004f7610 f   item_subselect.obj
 0001:000f7630       ?row_value_transformer@Item_in_subselect@@QAE?AW4trans_res@Item_subselect@@PAVJOIN@@@Z 004f8630 f   item_subselect.obj
 0001:000f8760       ?select_transformer@Item_in_subselect@@UAE?AW4trans_res@Item_subselect@@PAVJOIN@@@Z 004f9760 f   item_subselect.obj
 0001:000f8790       ?select_in_like_transformer@Item_in_subselect@@QAE?AW4trans_res@Item_subselect@@PAVJOIN@@PAVComp_creator@@@Z 004f9790 f   item_subselect.obj
 0001:000f8bd0       ?print@Item_in_subselect@@UAEXPAVString@@@Z 004f9bd0 f   item_subselect.obj
 0001:000f8c60       ?fix_fields@Item_in_subselect@@UAE_NPAVTHD@@PAPAVItem@@@Z 004f9c60 f   item_subselect.obj
 0001:000f8d30       ?select_transformer@Item_allany_subselect@@UAE?AW4trans_res@Item_subselect@@PAVJOIN@@@Z 004f9d30 f   item_subselect.obj
 0001:000f8d90       ?print@Item_allany_subselect@@UAEXPAVString@@@Z 004f9d90 f   item_subselect.obj
 0001:000f8e80       ?set_thd@subselect_engine@@QAEXPAVTHD@@@Z 004f9e80 f   item_subselect.obj
 0001:000f8ec0       ??0subselect_single_select_engine@@QAE@PAVst_select_lex@@PAVselect_subselect@@PAVItem_subselect@@@Z 004f9ec0 f   item_subselect.obj
 0001:000f8f50       ?cleanup@subselect_single_select_engine@@UAEXXZ 004f9f50 f   item_subselect.obj
 0001:000f9070       ?cleanup@subselect_union_engine@@UAEXXZ 004fa070 f   item_subselect.obj
 0001:000f9180       ?is_executed@subselect_union_engine@@UBE_NXZ 004fa180 f   item_subselect.obj
 0001:000f91a0       ?no_rows@subselect_union_engine@@UAE_NXZ 004fa1a0 f   item_subselect.obj
 0001:000f9200       ?cleanup@subselect_uniquesubquery_engine@@UAEXXZ 004fa200 f   item_subselect.obj
 0001:000f92e0       ??0subselect_union_engine@@QAE@PAVst_select_lex_unit@@PAVselect_subselect@@PAVItem_subselect@@@Z 004fa2e0 f   item_subselect.obj
 0001:000f9350       ?prepare@subselect_single_select_engine@@UAEHXZ 004fa350 f   item_subselect.obj
 0001:000f9500       ?prepare@subselect_union_engine@@UAEHXZ 004fa500 f   item_subselect.obj
 0001:000f9540       ?prepare@subselect_uniquesubquery_engine@@UAEHXZ 004fa540 f   item_subselect.obj
 0001:000f9580       ?no_rows@subselect_single_select_engine@@UAE_NXZ 004fa580 f   item_subselect.obj
 0001:000f95b0       ?set_row@subselect_engine@@IAEXAAV?$List@VItem@@@@PAPAVItem_cache@@@Z 004fa5b0 f   item_subselect.obj
 0001:000f9740       ?fix_length_and_dec@subselect_single_select_engine@@UAEXPAPAVItem_cache@@@Z 004fa740 f   item_subselect.obj
 0001:000f97e0       ?fix_length_and_dec@subselect_union_engine@@UAEXPAPAVItem_cache@@@Z 004fa7e0 f   item_subselect.obj
 0001:000f98b0       ?fix_length_and_dec@subselect_uniquesubquery_engine@@UAEXPAPAVItem_cache@@@Z 004fa8b0 f   item_subselect.obj
 0001:000f98f0       ?exec@subselect_single_select_engine@@UAEHXZ 004fa8f0 f   item_subselect.obj
 0001:000fa020       ?exec@subselect_union_engine@@UAEHXZ 004fb020 f   item_subselect.obj
 0001:000fa080       ?scan_table@subselect_uniquesubquery_engine@@QAEHXZ 004fb080 f   item_subselect.obj
 0001:000fa280       ?copy_ref_key@subselect_uniquesubquery_engine@@QAE_NXZ 004fb280 f   item_subselect.obj
 0001:000fa420       ?exec@subselect_uniquesubquery_engine@@UAEHXZ 004fb420 f   item_subselect.obj
 0001:000fa6d0       ??1subselect_uniquesubquery_engine@@UAE@XZ 004fb6d0 f   item_subselect.obj
 0001:000fa710       ?exec@subselect_indexsubquery_engine@@UAEHXZ 004fb710 f   item_subselect.obj
 0001:000faaf0       ?cols@subselect_single_select_engine@@UAEIXZ 004fbaf0 f   item_subselect.obj
 0001:000fab50       ?cols@subselect_union_engine@@UAEIXZ 004fbb50 f   item_subselect.obj
 0001:000fabb0       ?uncacheable@subselect_single_select_engine@@UAEEXZ 004fbbb0 f   item_subselect.obj
 0001:000fabd0       ?uncacheable@subselect_union_engine@@UAEEXZ 004fbbd0 f   item_subselect.obj
 0001:000fabf0       ?exclude@subselect_single_select_engine@@UAEXXZ 004fbbf0 f   item_subselect.obj
 0001:000fac40       ?exclude@subselect_union_engine@@UAEXXZ 004fbc40 f   item_subselect.obj
 0001:000fac70       ?exclude@subselect_uniquesubquery_engine@@UAEXXZ 004fbc70 f   item_subselect.obj
 0001:000facb0       ?calc_const_tables@subselect_engine@@SA_KPAUTABLE_LIST@@@Z 004fbcb0 f   item_subselect.obj
 0001:000fad40       ?upper_select_const_tables@subselect_single_select_engine@@UAE_KXZ 004fbd40 f   item_subselect.obj
 0001:000fad90       ?upper_select_const_tables@subselect_union_engine@@UAE_KXZ 004fbd90 f   item_subselect.obj
 0001:000fade0       ?print@subselect_single_select_engine@@UAEXPAVString@@@Z 004fbde0 f   item_subselect.obj
 0001:000fae20       ?print@subselect_union_engine@@UAEXPAVString@@@Z 004fbe20 f   item_subselect.obj
 0001:000fae50       ?print@subselect_uniquesubquery_engine@@UAEXPAVString@@@Z 004fbe50 f   item_subselect.obj
 0001:000faf70       ?print@subselect_indexsubquery_engine@@UAEXPAVString@@@Z 004fbf70 f   item_subselect.obj
 0001:000fb0e0       ?change_result@subselect_single_select_engine@@UAE_NPAVItem_subselect@@PAVselect_subselect@@@Z 004fc0e0 f   item_subselect.obj
 0001:000fb130       ?change_result@subselect_union_engine@@UAE_NPAVItem_subselect@@PAVselect_subselect@@@Z 004fc130 f   item_subselect.obj
 0001:000fb190       ?change_result@subselect_uniquesubquery_engine@@UAE_NPAVItem_subselect@@PAVselect_subselect@@@Z 004fc190 f   item_subselect.obj
 0001:000fb1d0       ?no_tables@subselect_single_select_engine@@UAE_NXZ 004fc1d0 f   item_subselect.obj
 0001:000fb200       ?may_be_null@subselect_single_select_engine@@UAE_NXZ 004fc200 f   item_subselect.obj
 0001:000fb280       ?no_tables@subselect_union_engine@@UAE_NXZ 004fc280 f   item_subselect.obj
 0001:000fb2e0       ?no_tables@subselect_uniquesubquery_engine@@UAE_NXZ 004fc2e0 f   item_subselect.obj
 0001:000fd0b0       ?substype@Item_subselect@@UAE?AW4subs_type@1@XZ 004fe0b0 f i item_subselect.obj
 0001:000fd0d0       ?reset@Item_subselect@@UAEXXZ 004fe0d0 f i item_subselect.obj
 0001:000fd0f0       ?is_null@Item_subselect@@UAE_NXZ 004fe0f0 f i item_subselect.obj
 0001:000fd140       ?not_null_tables@Item_subselect@@UBE_KXZ 004fe140 f i item_subselect.obj
 0001:000fd160       ?have_guarded_conds@Item_subselect@@UAE_NXZ 004fe160 f i item_subselect.obj
 0001:000fd180       ?reset_value_registration@Item_subselect@@UAEXXZ 004fe180 f i item_subselect.obj
 0001:000fd1a0       ??_GItem_subselect@@UAEPAXI@Z 004fe1a0 f i item_subselect.obj
 0001:000fd1a0       ??_EItem_subselect@@UAEPAXI@Z 004fe1a0 f i item_subselect.obj
 0001:000fd200       ?next_select@st_select_lex@@QAEPAV1@XZ 004fe200 f i item_subselect.obj
 0001:000fd220       ?substype@Item_singlerow_subselect@@UAE?AW4subs_type@Item_subselect@@XZ 004fe220 f i item_subselect.obj
 0001:000fd240       ?element_index@Item_singlerow_subselect@@UAEPAVItem@@I@Z 004fe240 f i item_subselect.obj
 0001:000fd270       ?addr@Item_singlerow_subselect@@UAEPAPAVItem@@I@Z 004fe270 f i item_subselect.obj
 0001:000fd2a0       ??_EItem_singlerow_subselect@@UAEPAXI@Z 004fe2a0 f i item_subselect.obj
 0001:000fd2a0       ??_GItem_singlerow_subselect@@UAEPAXI@Z 004fe2a0 f i item_subselect.obj
 0001:000fd300       ??1Item_singlerow_subselect@@UAE@XZ 004fe300 f i item_subselect.obj
 0001:000fd330       ??0select_singlerow_subselect@@QAE@PAVItem_subselect@@@Z 004fe330 f i item_subselect.obj
 0001:000fd380       ?prepare@select_result@@UAEHAAV?$List@VItem@@@@PAVst_select_lex_unit@@@Z 004fe380 f i item_subselect.obj
 0001:000fd3b0       ?prepare2@select_result@@UAEHXZ 004fe3b0 f i item_subselect.obj
 0001:000fd3d0       ?initialize_tables@select_result@@UAE_NPAVJOIN@@@Z 004fe3d0 f i item_subselect.obj
 0001:000fd3f0       ?abort@select_result@@UAEXXZ 004fe3f0 f i item_subselect.obj
 0001:000fd410       ?field_count@select_result_interceptor@@UBEIAAV?$List@VItem@@@@@Z 004fe410 f i item_subselect.obj
 0001:000fd430       ?send_fields@select_result_interceptor@@UAE_NAAV?$List@VItem@@@@I@Z 004fe430 f i item_subselect.obj
 0001:000fd450       ?send_eof@select_subselect@@UAE_NXZ 004fe450 f i item_subselect.obj
 0001:000fd470       ??_Gselect_singlerow_subselect@@UAEPAXI@Z 004fe470 f i item_subselect.obj
 0001:000fd470       ??_Eselect_singlerow_subselect@@UAEPAXI@Z 004fe470 f i item_subselect.obj
 0001:000fd4c0       ??1select_singlerow_subselect@@UAE@XZ 004fe4c0 f i item_subselect.obj
 0001:000fd4f0       ??1select_subselect@@UAE@XZ 004fe4f0 f i item_subselect.obj
 0001:000fd520       ??1select_result_interceptor@@UAE@XZ 004fe520 f i item_subselect.obj
 0001:000fd550       ??1select_result@@UAE@XZ   004fe550 f i item_subselect.obj
 0001:000fd5c0       ?field_count@select_result@@UBEIAAV?$List@VItem@@@@@Z 004fe5c0 f i item_subselect.obj
 0001:000fd5e0       ??_Gselect_result@@UAEPAXI@Z 004fe5e0 f i item_subselect.obj
 0001:000fd5e0       ??_Eselect_result@@UAEPAXI@Z 004fe5e0 f i item_subselect.obj
 0001:000fd630       ?get_used_tables_cache@Item_subselect@@QAE_KXZ 004fe630 f i item_subselect.obj
 0001:000fd660       ?get_const_item_cache@Item_subselect@@QAE_NXZ 004fe660 f i item_subselect.obj
 0001:000fd680       ??0Item_singlerow_subselect@@QAE@XZ 004fe680 f i item_subselect.obj
 0001:000fd6e0       ?reset_value_registration@Item_maxmin_subselect@@UAEXXZ 004fe6e0 f i item_subselect.obj
 0001:000fd710       ??0select_max_min_finder_subselect@@QAE@PAVItem_subselect@@_N@Z 004fe710 f i item_subselect.obj
 0001:000fd770       ??_Gselect_max_min_finder_subselect@@UAEPAXI@Z 004fe770 f i item_subselect.obj
 0001:000fd770       ??_Eselect_max_min_finder_subselect@@UAEPAXI@Z 004fe770 f i item_subselect.obj
 0001:000fd7c0       ??1select_max_min_finder_subselect@@UAE@XZ 004fe7c0 f i item_subselect.obj
 0001:000fd7f0       ??_EItem_maxmin_subselect@@UAEPAXI@Z 004fe7f0 f i item_subselect.obj
 0001:000fd7f0       ??_GItem_maxmin_subselect@@UAEPAXI@Z 004fe7f0 f i item_subselect.obj
 0001:000fd850       ??1Item_maxmin_subselect@@UAE@XZ 004fe850 f i item_subselect.obj
 0001:000fd880       ?type@subselect_engine@@QAE?AW4Item_result@@XZ 004fe880 f i item_subselect.obj
 0001:000fd8a0       ?field_type@subselect_engine@@QAE?AW4enum_field_types@@XZ 004fe8a0 f i item_subselect.obj
 0001:000fd8c0       ?substype@Item_exists_subselect@@UAE?AW4subs_type@Item_subselect@@XZ 004fe8c0 f i item_subselect.obj
 0001:000fd8e0       ?reset@Item_exists_subselect@@UAEXXZ 004fe8e0 f i item_subselect.obj
 0001:000fd910       ?result_type@Item_exists_subselect@@UBE?AW4Item_result@@XZ 004fe910 f i item_subselect.obj
 0001:000fd930       ??_GItem_exists_subselect@@UAEPAXI@Z 004fe930 f i item_subselect.obj
 0001:000fd930       ??_EItem_exists_subselect@@UAEPAXI@Z 004fe930 f i item_subselect.obj
 0001:000fd990       ??1Item_exists_subselect@@UAE@XZ 004fe990 f i item_subselect.obj
 0001:000fd9c0       ??0select_exists_subselect@@QAE@PAVItem_subselect@@@Z 004fe9c0 f i item_subselect.obj
 0001:000fda10       ??_Gselect_exists_subselect@@UAEPAXI@Z 004fea10 f i item_subselect.obj
 0001:000fda10       ??_Eselect_exists_subselect@@UAEPAXI@Z 004fea10 f i item_subselect.obj
 0001:000fda60       ??1select_exists_subselect@@UAE@XZ 004fea60 f i item_subselect.obj
 0001:000fda90       ??0Item_exists_subselect@@QAE@XZ 004fea90 f i item_subselect.obj
 0001:000fdad0       ?have_guarded_conds@Item_in_subselect@@UAE_NXZ 004fead0 f i item_subselect.obj
 0001:000fdb00       ?substype@Item_in_subselect@@UAE?AW4subs_type@Item_subselect@@XZ 004feb00 f i item_subselect.obj
 0001:000fdb20       ?reset@Item_in_subselect@@UAEXXZ 004feb20 f i item_subselect.obj
 0001:000fdb60       ?update_null_value@Item_in_subselect@@UAEXXZ 004feb60 f i item_subselect.obj
 0001:000fdba0       ?top_level_item@Item_in_subselect@@UAEXXZ 004feba0 f i item_subselect.obj
 0001:000fdbd0       ??_GItem_in_subselect@@UAEPAXI@Z 004febd0 f i item_subselect.obj
 0001:000fdbd0       ??_EItem_in_subselect@@UAEPAXI@Z 004febd0 f i item_subselect.obj
 0001:000fdc30       ??1Item_in_subselect@@UAE@XZ 004fec30 f i item_subselect.obj
 0001:000fdc60       ??0Item_in_subselect@@QAE@XZ 004fec60 f i item_subselect.obj
 0001:000fdcf0       ?substype@Item_allany_subselect@@UAE?AW4subs_type@Item_subselect@@XZ 004fecf0 f i item_subselect.obj
 0001:000fdd20       ??_GItem_allany_subselect@@UAEPAXI@Z 004fed20 f i item_subselect.obj
 0001:000fdd20       ??_EItem_allany_subselect@@UAEPAXI@Z 004fed20 f i item_subselect.obj
 0001:000fdd80       ??1Item_allany_subselect@@UAE@XZ 004fed80 f i item_subselect.obj
 0001:000fddb0       ??0Item_ref_null_helper@@QAE@PAUName_resolution_context@@PAVItem_in_subselect@@PAPAVItem@@PBD3@Z 004fedb0 f i item_subselect.obj
 0001:000fde20       ?used_tables@Item_ref_null_helper@@UBE_KXZ 004fee20 f i item_subselect.obj
 0001:000fdec0       ??_GItem_ref_null_helper@@UAEPAXI@Z 004feec0 f i item_subselect.obj
 0001:000fdec0       ??_EItem_ref_null_helper@@UAEPAXI@Z 004feec0 f i item_subselect.obj
 0001:000fdf20       ??1Item_ref_null_helper@@UAE@XZ 004fef20 f i item_subselect.obj
 0001:000fdf50       ??0Item_sum_min@@QAE@PAVItem@@@Z 004fef50 f i item_subselect.obj
 0001:000fdfa0       ?type@Item_sum@@UBE?AW4Type@Item@@XZ 004fefa0 f i item_subselect.obj
 0001:000fdfc0       ?fix_length_and_dec@Item_sum@@UAEXXZ 004fefc0 f i item_subselect.obj
 0001:000fdff0       ?result_item@Item_sum@@UAEPAVItem@@PAVField@@@Z 004feff0 f i item_subselect.obj
 0001:000fe070       ?used_tables@Item_sum@@UBE_KXZ 004ff070 f i item_subselect.obj
 0001:000fe0a0       ?is_null@Item_sum@@UAE_NXZ 004ff0a0 f i item_subselect.obj
 0001:000fe0d0       ?const_item@Item_sum@@UBE_NXZ 004ff0d0 f i item_subselect.obj
 0001:000fe100       ?setup@Item_sum@@UAE_NPAVTHD@@@Z 004ff100 f i item_subselect.obj
 0001:000fe120       ?make_unique@Item_sum@@UAEXXZ 004ff120 f i item_subselect.obj
 0001:000fe140       ??0Item_sum_hybrid@@QAE@PAVItem@@H@Z 004ff140 f i item_subselect.obj
 0001:000fe240       ??0Item_sum@@QAE@PAVItem@@@Z 004ff240 f i item_subselect.obj
 0001:000fe2e0       ?keep_field_type@Item_sum@@UBE_NXZ 004ff2e0 f i item_subselect.obj
 0001:000fe300       ?cleanup@Item_sum@@UAEXXZ  004ff300 f i item_subselect.obj
 0001:000fe340       ?no_rows_in_result@Item_sum@@UAEXXZ 004ff340 f i item_subselect.obj
 0001:000fe390       ??_EItem_sum@@UAEPAXI@Z    004ff390 f i item_subselect.obj
 0001:000fe390       ??_GItem_sum@@UAEPAXI@Z    004ff390 f i item_subselect.obj
 0001:000fe3f0       ??1Item_sum@@UAE@XZ        004ff3f0 f i item_subselect.obj
 0001:000fe430       ?keep_field_type@Item_sum_hybrid@@UBE_NXZ 004ff430 f i item_subselect.obj
 0001:000fe450       ?result_type@Item_sum_hybrid@@UBE?AW4Item_result@@XZ 004ff450 f i item_subselect.obj
 0001:000fe480       ?field_type@Item_sum_hybrid@@UBE?AW4enum_field_types@@XZ 004ff480 f i item_subselect.obj
 0001:000fe4b0       ??_EItem_sum_hybrid@@UAEPAXI@Z 004ff4b0 f i item_subselect.obj
 0001:000fe4b0       ??_GItem_sum_hybrid@@UAEPAXI@Z 004ff4b0 f i item_subselect.obj
 0001:000fe510       ??1Item_sum_hybrid@@UAE@XZ 004ff510 f i item_subselect.obj
 0001:000fe560       ?sum_func@Item_sum_min@@UBE?AW4Sumfunctype@Item_sum@@XZ 004ff560 f i item_subselect.obj
 0001:000fe580       ?func_name@Item_sum_min@@UBEPBDXZ 004ff580 f i item_subselect.obj
 0001:000fe5a0       ??_EItem_sum_min@@UAEPAXI@Z 004ff5a0 f i item_subselect.obj
 0001:000fe5a0       ??_GItem_sum_min@@UAEPAXI@Z 004ff5a0 f i item_subselect.obj
 0001:000fe600       ??1Item_sum_min@@UAE@XZ    004ff600 f i item_subselect.obj
 0001:000fe630       ??0Item_sum_max@@QAE@PAVItem@@@Z 004ff630 f i item_subselect.obj
 0001:000fe680       ?sum_func@Item_sum_max@@UBE?AW4Sumfunctype@Item_sum@@XZ 004ff680 f i item_subselect.obj
 0001:000fe6a0       ?func_name@Item_sum_max@@UBEPBDXZ 004ff6a0 f i item_subselect.obj
 0001:000fe6c0       ??_GItem_sum_max@@UAEPAXI@Z 004ff6c0 f i item_subselect.obj
 0001:000fe6c0       ??_EItem_sum_max@@UAEPAXI@Z 004ff6c0 f i item_subselect.obj
 0001:000fe720       ??1Item_sum_max@@UAE@XZ    004ff720 f i item_subselect.obj
 0001:000fe750       ?get_cache@Item_in_optimizer@@QAEPAPAVItem_cache@@XZ 004ff750 f i item_subselect.obj
 0001:000fe770       ??0Item_func_trig_cond@@QAE@PAVItem@@PA_N@Z 004ff770 f i item_subselect.obj
 0001:000fe7d0       ?val_int@Item_func_trig_cond@@UAE_JXZ 004ff7d0 f i item_subselect.obj
 0001:000fe870       ?functype@Item_func_trig_cond@@UBE?AW4Functype@Item_func@@XZ 004ff870 f i item_subselect.obj
 0001:000fe890       ?func_name@Item_func_trig_cond@@UBEPBDXZ 004ff890 f i item_subselect.obj
 0001:000fe8b0       ?const_item@Item_func_trig_cond@@UBE_NXZ 004ff8b0 f i item_subselect.obj
 0001:000fe8d0       ??_GItem_func_trig_cond@@UAEPAXI@Z 004ff8d0 f i item_subselect.obj
 0001:000fe8d0       ??_EItem_func_trig_cond@@UAEPAXI@Z 004ff8d0 f i item_subselect.obj
 0001:000fe930       ??1Item_func_trig_cond@@UAE@XZ 004ff930 f i item_subselect.obj
 0001:000fe960       ?top_level@Item_func_not_all@@QAE_NXZ 004ff960 f i item_subselect.obj
 0001:000fe990       ?set_sum_test@Item_func_not_all@@QAEXPAVItem_sum_hybrid@@@Z 004ff990 f i item_subselect.obj
 0001:000fe9c0       ?set_sub_test@Item_func_not_all@@QAEXPAVItem_maxmin_subselect@@@Z 004ff9c0 f i item_subselect.obj
 0001:000fe9f0       ??0Item_is_not_null_test@@QAE@PAVItem_in_subselect@@PAVItem@@@Z 004ff9f0 f i item_subselect.obj
 0001:000fea50       ?functype@Item_is_not_null_test@@UBE?AW4Functype@Item_func@@XZ 004ffa50 f i item_subselect.obj
 0001:000fea70       ?func_name@Item_is_not_null_test@@UBEPBDXZ 004ffa70 f i item_subselect.obj
 0001:000fea90       ?used_tables@Item_is_not_null_test@@UBE_KXZ 004ffa90 f i item_subselect.obj
 0001:000feac0       ??_EItem_is_not_null_test@@UAEPAXI@Z 004ffac0 f i item_subselect.obj
 0001:000feac0       ??_GItem_is_not_null_test@@UAEPAXI@Z 004ffac0 f i item_subselect.obj
 0001:000feb20       ??1Item_is_not_null_test@@UAE@XZ 004ffb20 f i item_subselect.obj
 0001:000feb50       ??0Item_cond_or@@QAE@PAVItem@@0@Z 004ffb50 f i item_subselect.obj
 0001:000feba0       ?get_cond_guard@Item_in_subselect@@QAEPA_NH@Z 004ffba0 f i item_subselect.obj
 0001:000fec00       ?and_items@@YAPAVItem@@PAV1@0@Z 004ffc00 f i item_subselect.obj
 0001:000fec90       ??0Item_in_optimizer@@QAE@PAVItem@@PAVItem_in_subselect@@@Z 004ffc90 f i item_subselect.obj
 0001:000fed10       ??0Item_bool_func@@QAE@PAVItem@@0@Z 004ffd10 f i item_subselect.obj
 0001:000fed60       ?func_name@Item_in_optimizer@@UBEPBDXZ 004ffd60 f i item_subselect.obj
 0001:000fed80       ??_EItem_in_optimizer@@UAEPAXI@Z 004ffd80 f i item_subselect.obj
 0001:000fed80       ??_GItem_in_optimizer@@UAEPAXI@Z 004ffd80 f i item_subselect.obj
 0001:000fede0       ??1Item_in_optimizer@@UAE@XZ 004ffde0 f i item_subselect.obj
 0001:000fee10       ?set_thd@select_result@@QAEXPAVTHD@@@Z 004ffe10 f i item_subselect.obj
 0001:000fee40       ??0subselect_engine@@QAE@PAVItem_subselect@@PAVselect_subselect@@@Z 004ffe40 f i item_subselect.obj
 0001:000feed0       ?may_be_null@subselect_engine@@UAE_NXZ 004ffed0 f i item_subselect.obj
 0001:000feef0       ?is_executed@subselect_engine@@UBE_NXZ 004ffef0 f i item_subselect.obj
 0001:000fef10       ??_Gsubselect_engine@@UAEPAXI@Z 004fff10 f i item_subselect.obj
 0001:000fef10       ??_Esubselect_engine@@UAEPAXI@Z 004fff10 f i item_subselect.obj
 0001:000fef60       ??1subselect_engine@@UAE@XZ 004fff60 f i item_subselect.obj
 0001:000fefd0       ?is_executed@subselect_single_select_engine@@UBE_NXZ 004fffd0 f i item_subselect.obj
 0001:000ff000       ??_Gsubselect_single_select_engine@@UAEPAXI@Z 00500000 f i item_subselect.obj
 0001:000ff000       ??_Esubselect_single_select_engine@@UAEPAXI@Z 00500000 f i item_subselect.obj
 0001:000ff050       ??1subselect_single_select_engine@@UAE@XZ 00500050 f i item_subselect.obj
 0001:000ff080       ??_Esubselect_union_engine@@UAEPAXI@Z 00500080 f i item_subselect.obj
 0001:000ff080       ??_Gsubselect_union_engine@@UAEPAXI@Z 00500080 f i item_subselect.obj
 0001:000ff0d0       ??1subselect_union_engine@@UAE@XZ 005000d0 f i item_subselect.obj
 0001:000ff100       ??0JOIN@@QAE@PAVTHD@@AAV?$List@VItem@@@@_KPAVselect_result@@@Z 00500100 f i item_subselect.obj
 0001:000ff230       ??0TMP_TABLE_PARAM@@QAE@XZ 00500230 f i item_subselect.obj
 0001:000ff2e0       ?init@JOIN@@QAEXPAVTHD@@AAV?$List@VItem@@@@_KPAVselect_result@@@Z 005002e0 f i item_subselect.obj
 0001:000ff710       ?assigned@Item_subselect@@QAE_NXZ 00500710 f i item_subselect.obj
 0001:000ff740       ?assigned@Item_subselect@@QAEX_N@Z 00500740 f i item_subselect.obj
 0001:000ff770       ?copy@store_key@@QAE?AW4store_key_result@1@XZ 00500770 f i item_subselect.obj
 0001:000ff850       ?cols@subselect_uniquesubquery_engine@@UAEIXZ 00500850 f i item_subselect.obj
 0001:000ff870       ?uncacheable@subselect_uniquesubquery_engine@@UAEEXZ 00500870 f i item_subselect.obj
 0001:000ff890       ?upper_select_const_tables@subselect_uniquesubquery_engine@@UAE_KXZ 00500890 f i item_subselect.obj
 0001:000ff8b0       ?no_rows@subselect_uniquesubquery_engine@@UAE_NXZ 005008b0 f i item_subselect.obj
 0001:000ff8d0       ??_Esubselect_uniquesubquery_engine@@UAEPAXI@Z 005008d0 f i item_subselect.obj
 0001:000ff8d0       ??_Gsubselect_uniquesubquery_engine@@UAEPAXI@Z 005008d0 f i item_subselect.obj
 0001:000ff920       ?is_prepared@st_select_lex_unit@@QAE_NXZ 00500920 f i item_subselect.obj
 0001:000ff950       ?head@?$List@VItem@@@@QAEPAVItem@@XZ 00500950 f i item_subselect.obj
 0001:000ff980       ??0?$List@VCached_item@@@@QAE@XZ 00500980 f i item_subselect.obj
 0001:000ff9b0       ??_9@$BOE@AE               005009b0 f i item_subselect.obj
 0001:000ff9c0       ?init_sum_func_check@Item_sum@@QAE_NPAVTHD@@@Z 005009c0 f   item_sum.obj
 0001:000ffa80       ?check_sum_func@Item_sum@@QAE_NPAVTHD@@PAPAVItem@@@Z 00500a80 f   item_sum.obj
 0001:000ffdf0       ?register_sum_func@Item_sum@@QAE_NPAVTHD@@PAPAVItem@@@Z 00500df0 f   item_sum.obj
 0001:00100050       ??0Item_sum@@QAE@AAV?$List@VItem@@@@@Z 00501050 f   item_sum.obj
 0001:00100160       ??0Item_sum@@QAE@PAVTHD@@PAV0@@Z 00501160 f   item_sum.obj
 0001:00100270       ?mark_as_sum_func@Item_sum@@QAEXXZ 00501270 f   item_sum.obj
 0001:001002d0       ?make_field@Item_sum@@UAEXPAVSend_field@@@Z 005012d0 f   item_sum.obj
 0001:001003e0       ?print@Item_sum@@UAEXPAVString@@@Z 005013e0 f   item_sum.obj
 0001:001004a0       ?fix_num_length_and_dec@Item_sum@@QAEXXZ 005014a0 f   item_sum.obj
 0001:00100540       ?get_tmp_table_item@Item_sum@@UAEPAVItem@@PAVTHD@@@Z 00501540 f   item_sum.obj
 0001:00100690       ?walk@Item_sum@@UAE_NP8Item@@AE_NPAE@Z0@Z 00501690 f   item_sum.obj
 0001:00100740       ?create_tmp_field@Item_sum@@UAEPAVField@@_NPAUst_table@@I@Z 00501740 f   item_sum.obj
 0001:00100960       ?update_used_tables@Item_sum@@UAEXXZ 00501960 f   item_sum.obj
 0001:00100aa0       ?val_str@Item_sum_num@@UAEPAVString@@PAV2@@Z 00501aa0 f   item_sum.obj
 0001:00100ad0       ?val_decimal@Item_sum_num@@UAEPAVmy_decimal@@PAV2@@Z 00501ad0 f   item_sum.obj
 0001:00100b00       ?val_str@Item_sum_int@@UAEPAVString@@PAV2@@Z 00501b00 f   item_sum.obj
 0001:00100b30       ?val_decimal@Item_sum_int@@UAEPAVmy_decimal@@PAV2@@Z 00501b30 f   item_sum.obj
 0001:00100b60       ?fix_fields@Item_sum_num@@UAE_NPAVTHD@@PAPAVItem@@@Z 00501b60 f   item_sum.obj
 0001:00100d30       ??0Item_sum_hybrid@@QAE@PAVTHD@@PAV0@@Z 00501d30 f   item_sum.obj
 0001:00100ea0       ?fix_fields@Item_sum_hybrid@@UAE_NPAVTHD@@PAPAVItem@@@Z 00501ea0 f   item_sum.obj
 0001:00101150       ?create_tmp_field@Item_sum_hybrid@@UAEPAVField@@_NPAUst_table@@I@Z 00502150 f   item_sum.obj
 0001:00101350       ??0Item_sum_sum@@QAE@PAVTHD@@PAV0@@Z 00502350 f   item_sum.obj
 0001:00101420       ?copy_or_same@Item_sum_sum@@UAEPAVItem@@PAVTHD@@@Z 00502420 f   item_sum.obj
 0001:00101490       ?clear@Item_sum_sum@@UAEXXZ 00502490 f   item_sum.obj
 0001:001015c0       ?fix_length_and_dec@Item_sum_sum@@MAEXXZ 005025c0 f   item_sum.obj
 0001:00101850       ?add@Item_sum_sum@@UAE_NXZ 00502850 f   item_sum.obj
 0001:00101a40       ?val_int@Item_sum_sum@@UAE_JXZ 00502a40 f   item_sum.obj
 0001:00101b30       ?val_real@Item_sum_sum@@UAENXZ 00502b30 f   item_sum.obj
 0001:00101bb0       ?val_str@Item_sum_sum@@UAEPAVString@@PAV2@@Z 00502bb0 f   item_sum.obj
 0001:00101c00       ?val_decimal@Item_sum_sum@@UAEPAVmy_decimal@@PAV2@@Z 00502c00 f   item_sum.obj
 0001:00101c50       ??0Item_sum_distinct@@QAE@PAVItem@@@Z 00502c50 f   item_sum.obj
 0001:00101cb0       ??0Item_sum_distinct@@IAE@PAVTHD@@PAV0@@Z 00502cb0 f   item_sum.obj
 0001:00101d30       ?instance@Hybrid_type_traits_fast_decimal@@SAPBU1@XZ 00502d30 f   item_sum.obj
 0001:00101d40       ?fix_length_and_dec@Item_sum_distinct@@UAEXXZ 00502d40 f   item_sum.obj
 0001:00101ee0       ?setup@Item_sum_distinct@@UAE_NPAVTHD@@@Z 00502ee0 f   item_sum.obj
 0001:001022c0       ?add@Item_sum_distinct@@UAE_NXZ 005032c0 f   item_sum.obj
 0001:00102390       ?unique_walk_function@Item_sum_distinct@@UAE_NPAX@Z 00503390 f   item_sum.obj
 0001:00102440       ?clear@Item_sum_distinct@@UAEXXZ 00503440 f   item_sum.obj
 0001:00102560       ?cleanup@Item_sum_distinct@@UAEXXZ 00503560 f   item_sum.obj
 0001:001025f0       ??1Item_sum_distinct@@UAE@XZ 005035f0 f   item_sum.obj
 0001:00102660       ?calculate_val_and_count@Item_sum_distinct@@UAEXXZ 00503660 f   item_sum.obj
 0001:00102750       ?val_real@Item_sum_distinct@@UAENXZ 00503750 f   item_sum.obj
 0001:001027b0       ?val_decimal@Item_sum_distinct@@UAEPAVmy_decimal@@PAV2@@Z 005037b0 f   item_sum.obj
 0001:00102830       ?val_int@Item_sum_distinct@@UAE_JXZ 00503830 f   item_sum.obj
 0001:001028a0       ?val_str@Item_sum_distinct@@UAEPAVString@@PAV2@@Z 005038a0 f   item_sum.obj
 0001:00102920       ?fix_length_and_dec@Item_sum_avg_distinct@@UAEXXZ 00503920 f   item_sum.obj
 0001:001029a0       ?calculate_val_and_count@Item_sum_avg_distinct@@UAEXXZ 005039a0 f   item_sum.obj
 0001:00102a40       ?copy_or_same@Item_sum_count@@UAEPAVItem@@PAVTHD@@@Z 00503a40 f   item_sum.obj
 0001:00102ab0       ?clear@Item_sum_count@@UAEXXZ 00503ab0 f   item_sum.obj
 0001:00102ae0       ?add@Item_sum_count@@UAE_NXZ 00503ae0 f   item_sum.obj
 0001:00102b60       ?val_int@Item_sum_count@@UAE_JXZ 00503b60 f   item_sum.obj
 0001:00102bb0       ?cleanup@Item_sum_count@@UAEXXZ 00503bb0 f   item_sum.obj
 0001:00102cb0       ?fix_length_and_dec@Item_sum_avg@@UAEXXZ 00503cb0 f   item_sum.obj
 0001:00102e70       ?copy_or_same@Item_sum_avg@@UAEPAVItem@@PAVTHD@@@Z 00503e70 f   item_sum.obj
 0001:00102ee0       ?create_tmp_field@Item_sum_avg@@UAEPAVField@@_NPAUst_table@@I@Z 00503ee0 f   item_sum.obj
 0001:00103040       ?clear@Item_sum_avg@@UAEXXZ 00504040 f   item_sum.obj
 0001:00103080       ?add@Item_sum_avg@@UAE_NXZ 00504080 f   item_sum.obj
 0001:001030f0       ?val_real@Item_sum_avg@@UAENXZ 005040f0 f   item_sum.obj
 0001:00103190       ?val_decimal@Item_sum_avg@@UAEPAVmy_decimal@@PAV2@@Z 00504190 f   item_sum.obj
 0001:001032f0       ?val_str@Item_sum_avg@@UAEPAVString@@PAV2@@Z 005042f0 f   item_sum.obj
 0001:00103340       ?val_real@Item_sum_std@@UAENXZ 00504340 f   item_sum.obj
 0001:001033d0       ?copy_or_same@Item_sum_std@@UAEPAVItem@@PAVTHD@@@Z 005043d0 f   item_sum.obj
 0001:00103440       ??0Item_sum_variance@@QAE@PAVTHD@@PAV0@@Z 00504440 f   item_sum.obj
 0001:00103500       ?fix_length_and_dec@Item_sum_variance@@EAEXXZ 00504500 f   item_sum.obj
 0001:00103780       ?copy_or_same@Item_sum_variance@@UAEPAVItem@@PAVTHD@@@Z 00504780 f   item_sum.obj
 0001:001037f0       ?create_tmp_field@Item_sum_variance@@UAEPAVField@@_NPAUst_table@@I@Z 005047f0 f   item_sum.obj
 0001:001038c0       ?clear@Item_sum_variance@@UAEXXZ 005048c0 f   item_sum.obj
 0001:001038f0       ?add@Item_sum_variance@@UAE_NXZ 005048f0 f   item_sum.obj
 0001:00103a50       ?val_real@Item_sum_variance@@UAENXZ 00504a50 f   item_sum.obj
 0001:00103c10       ?val_decimal@Item_sum_variance@@UAEPAVmy_decimal@@PAV2@@Z 00504c10 f   item_sum.obj
 0001:00103c60       ?reset_field@Item_sum_variance@@UAEXXZ 00504c60 f   item_sum.obj
 0001:00103d40       ?update_field@Item_sum_variance@@UAEXXZ 00504d40 f   item_sum.obj
 0001:00103ef0       ?clear@Item_sum_hybrid@@UAEXXZ 00504ef0 f   item_sum.obj
 0001:00103f90       ?val_real@Item_sum_hybrid@@UAENXZ 00504f90 f   item_sum.obj
 0001:00104170       ?val_int@Item_sum_hybrid@@UAE_JXZ 00505170 f   item_sum.obj
 0001:00104280       ?val_decimal@Item_sum_hybrid@@UAEPAVmy_decimal@@PAV2@@Z 00505280 f   item_sum.obj
 0001:001043a0       ?val_str@Item_sum_hybrid@@UAEPAVString@@PAV2@@Z 005053a0 f   item_sum.obj
 0001:00104500       ?cleanup@Item_sum_hybrid@@UAEXXZ 00505500 f   item_sum.obj
 0001:00104600       ?no_rows_in_result@Item_sum_hybrid@@UAEXXZ 00505600 f   item_sum.obj
 0001:00104640       ?copy_or_same@Item_sum_min@@UAEPAVItem@@PAVTHD@@@Z 00505640 f   item_sum.obj
 0001:001046b0       ?add@Item_sum_min@@UAE_NXZ 005056b0 f   item_sum.obj
 0001:00104990       ?copy_or_same@Item_sum_max@@UAEPAVItem@@PAVTHD@@@Z 00505990 f   item_sum.obj
 0001:00104a00       ?add@Item_sum_max@@UAE_NXZ 00505a00 f   item_sum.obj
 0001:00104ce0       ?val_int@Item_sum_bit@@UAE_JXZ 00505ce0 f   item_sum.obj
 0001:00104d30       ?clear@Item_sum_bit@@UAEXXZ 00505d30 f   item_sum.obj
 0001:00104d60       ?copy_or_same@Item_sum_or@@UAEPAVItem@@PAVTHD@@@Z 00505d60 f   item_sum.obj
 0001:00104dd0       ?add@Item_sum_or@@UAE_NXZ  00505dd0 f   item_sum.obj
 0001:00104e60       ?copy_or_same@Item_sum_xor@@UAEPAVItem@@PAVTHD@@@Z 00505e60 f   item_sum.obj
 0001:00104ed0       ?add@Item_sum_xor@@UAE_NXZ 00505ed0 f   item_sum.obj
 0001:00104f60       ?copy_or_same@Item_sum_and@@UAEPAVItem@@PAVTHD@@@Z 00505f60 f   item_sum.obj
 0001:00104fd0       ?add@Item_sum_and@@UAE_NXZ 00505fd0 f   item_sum.obj
 0001:00105060       ?reset_field@Item_sum_num@@UAEXXZ 00506060 f   item_sum.obj
 0001:00105110       ?reset_field@Item_sum_hybrid@@UAEXXZ 00506110 f   item_sum.obj
 0001:001054e0       ?reset_field@Item_sum_sum@@UAEXXZ 005064e0 f   item_sum.obj
 0001:00105640       ?reset_field@Item_sum_count@@UAEXXZ 00506640 f   item_sum.obj
 0001:001056e0       ?reset_field@Item_sum_avg@@UAEXXZ 005066e0 f   item_sum.obj
 0001:00105880       ?reset_field@Item_sum_bit@@UAEXXZ 00506880 f   item_sum.obj
 0001:001058d0       ?update_field@Item_sum_bit@@UAEXXZ 005068d0 f   item_sum.obj
 0001:00105950       ?update_field@Item_sum_sum@@UAEXXZ 00506950 f   item_sum.obj
 0001:00105ba0       ?update_field@Item_sum_count@@UAEXXZ 00506ba0 f   item_sum.obj
 0001:00105c40       ?update_field@Item_sum_avg@@UAEXXZ 00506c40 f   item_sum.obj
 0001:00105e70       ?update_field@Item_sum_hybrid@@UAEXXZ 00506e70 f   item_sum.obj
 0001:00105ee0       ?min_max_update_str_field@Item_sum_hybrid@@QAEXXZ 00506ee0 f   item_sum.obj
 0001:00105fe0       ?min_max_update_real_field@Item_sum_hybrid@@QAEXXZ 00506fe0 f   item_sum.obj
 0001:00106140       ?min_max_update_int_field@Item_sum_hybrid@@QAEXXZ 00507140 f   item_sum.obj
 0001:001062f0       ?min_max_update_decimal_field@Item_sum_hybrid@@QAEXXZ 005072f0 f   item_sum.obj
 0001:001064a0       ??0Item_avg_field@@QAE@W4Item_result@@PAVItem_sum_avg@@@Z 005074a0 f   item_sum.obj
 0001:00106570       ?val_real@Item_avg_field@@UAENXZ 00507570 f   item_sum.obj
 0001:00106650       ?val_int@Item_avg_field@@UAE_JXZ 00507650 f   item_sum.obj
 0001:001066a0       ?val_decimal@Item_avg_field@@UAEPAVmy_decimal@@PAV2@@Z 005076a0 f   item_sum.obj
 0001:00106800       ?val_str@Item_avg_field@@UAEPAVString@@PAV2@@Z 00507800 f   item_sum.obj
 0001:00106850       ??0Item_std_field@@QAE@PAVItem_sum_std@@@Z 00507850 f   item_sum.obj
 0001:00106890       ?val_real@Item_std_field@@UAENXZ 00507890 f   item_sum.obj
 0001:00106900       ?val_decimal@Item_std_field@@UAEPAVmy_decimal@@PAV2@@Z 00507900 f   item_sum.obj
 0001:00106a30       ??0Item_variance_field@@QAE@PAVItem_sum_variance@@@Z 00507a30 f   item_sum.obj
 0001:00106b40       ?val_real@Item_variance_field@@UAENXZ 00507b40 f   item_sum.obj
 0001:00106c50       ?simple_str_key_cmp@@YAHPAXPAE1@Z 00507c50 f   item_sum.obj
 0001:00106c90       ?composite_key_cmp@@YAHPAXPAE1@Z 00507c90 f   item_sum.obj
 0001:00106d70       ?cleanup@Item_sum_count_distinct@@UAEXXZ 00507d70 f   item_sum.obj
 0001:00106f30       ?make_unique@Item_sum_count_distinct@@UAEXXZ 00507f30 f   item_sum.obj
 0001:00106fa0       ??1Item_sum_count_distinct@@UAE@XZ 00507fa0 f   item_sum.obj
 0001:00106fe0       ?setup@Item_sum_count_distinct@@UAE_NPAVTHD@@@Z 00507fe0 f   item_sum.obj
 0001:001075b0       ?copy_or_same@Item_sum_count_distinct@@UAEPAVItem@@PAVTHD@@@Z 005085b0 f   item_sum.obj
 0001:00107620       ?clear@Item_sum_count_distinct@@UAEXXZ 00508620 f   item_sum.obj
 0001:00107700       ?add@Item_sum_count_distinct@@UAE_NXZ 00508700 f   item_sum.obj
 0001:00107840       ?val_int@Item_sum_count_distinct@@UAE_JXZ 00508840 f   item_sum.obj
 0001:001079e0       ?clear@Item_udf_sum@@UAEXXZ 005089e0 f   item_sum.obj
 0001:00107ad0       ?add@Item_udf_sum@@UAE_NXZ 00508ad0 f   item_sum.obj
 0001:00107bd0       ?cleanup@Item_udf_sum@@UAEXXZ 00508bd0 f   item_sum.obj
 0001:00107c10       ?print@Item_udf_sum@@UAEXPAVString@@@Z 00508c10 f   item_sum.obj
 0001:00107cd0       ?copy_or_same@Item_sum_udf_float@@UAEPAVItem@@PAVTHD@@@Z 00508cd0 f   item_sum.obj
 0001:00107d40       ?val_real@Item_sum_udf_float@@UAENXZ 00508d40 f   item_sum.obj
 0001:00107eb0       ?val_str@Item_sum_udf_float@@UAEPAVString@@PAV2@@Z 00508eb0 f   item_sum.obj
 0001:00107ee0       ?val_decimal@Item_sum_udf_float@@UAEPAVmy_decimal@@PAV2@@Z 00508ee0 f   item_sum.obj
 0001:00107f10       ?val_str@Item_sum_udf_decimal@@UAEPAVString@@PAV2@@Z 00508f10 f   item_sum.obj
 0001:00107f40       ?val_real@Item_sum_udf_decimal@@UAENXZ 00508f40 f   item_sum.obj
 0001:00107f70       ?val_int@Item_sum_udf_decimal@@UAE_JXZ 00508f70 f   item_sum.obj
 0001:00107fa0       ?val_decimal@Item_sum_udf_decimal@@UAEPAVmy_decimal@@PAV2@@Z 00508fa0 f   item_sum.obj
 0001:00108110       ?copy_or_same@Item_sum_udf_decimal@@UAEPAVItem@@PAVTHD@@@Z 00509110 f   item_sum.obj
 0001:00108180       ?copy_or_same@Item_sum_udf_int@@UAEPAVItem@@PAVTHD@@@Z 00509180 f   item_sum.obj
 0001:001081f0       ?val_int@Item_sum_udf_int@@UAE_JXZ 005091f0 f   item_sum.obj
 0001:00108360       ?val_str@Item_sum_udf_int@@UAEPAVString@@PAV2@@Z 00509360 f   item_sum.obj
 0001:00108390       ?val_decimal@Item_sum_udf_int@@UAEPAVmy_decimal@@PAV2@@Z 00509390 f   item_sum.obj
 0001:001083c0       ?fix_length_and_dec@Item_sum_udf_str@@UAEXXZ 005093c0 f   item_sum.obj
 0001:00108500       ?copy_or_same@Item_sum_udf_str@@UAEPAVItem@@PAVTHD@@@Z 00509500 f   item_sum.obj
 0001:00108570       ?val_decimal@Item_sum_udf_str@@UAEPAVmy_decimal@@PAV2@@Z 00509570 f   item_sum.obj
 0001:001085a0       ?val_str@Item_sum_udf_str@@UAEPAVString@@PAV2@@Z 005095a0 f   item_sum.obj
 0001:001086d0       ?group_concat_key_cmp_with_distinct@@YAHPAXPBX1@Z 005096d0 f   item_sum.obj
 0001:001087d0       ?group_concat_key_cmp_with_order@@YAHPAXPBX1@Z 005097d0 f   item_sum.obj
 0001:00108910       ?dump_leaf_key@@YAHPAEKPAVItem_func_group_concat@@@Z 00509910 f   item_sum.obj
 0001:00108be0       ??0Item_func_group_concat@@QAE@PAUName_resolution_context@@_NPAV?$List@VItem@@@@PAUst_sql_list@@PAVString@@@Z 00509be0 f   item_sum.obj
 0001:00108e40       ??0Item_func_group_concat@@QAE@PAVTHD@@PAV0@@Z 00509e40 f   item_sum.obj
 0001:00108fd0       ?cleanup@Item_func_group_concat@@UAEXXZ 00509fd0 f   item_sum.obj
 0001:00109310       ?copy_or_same@Item_func_group_concat@@UAEPAVItem@@PAVTHD@@@Z 0050a310 f   item_sum.obj
 0001:00109380       ?clear@Item_func_group_concat@@UAEXXZ 0050a380 f   item_sum.obj
 0001:00109410       ?add@Item_func_group_concat@@UAE_NXZ 0050a410 f   item_sum.obj
 0001:00109650       ?fix_fields@Item_func_group_concat@@UAE_NPAVTHD@@PAPAVItem@@@Z 0050a650 f   item_sum.obj
 0001:00109990       ?setup@Item_func_group_concat@@UAE_NPAVTHD@@@Z 0050a990 f   item_sum.obj
 0001:0010a0b0       ?make_unique@Item_func_group_concat@@UAEXXZ 0050b0b0 f   item_sum.obj
 0001:0010a100       ?val_str@Item_func_group_concat@@UAEPAVString@@PAV2@@Z 0050b100 f   item_sum.obj
 0001:0010a200       ?print@Item_func_group_concat@@UAEXPAVString@@@Z 0050b200 f   item_sum.obj
 0001:0010a3c0       ??1Item_func_group_concat@@UAE@XZ 0050b3c0 f   item_sum.obj
 0001:0010cef0       ??0Field_double@@QAE@K_NPBDPAUst_table@@ED@Z 0050def0 f i item_sum.obj
 0001:0010cf70       ??0Item_sum_num@@QAE@PAVTHD@@PAV0@@Z 0050df70 f i item_sum.obj
 0001:0010cfd0       ?val_int@Item_sum_num@@UAE_JXZ 0050dfd0 f i item_sum.obj
 0001:0010d060       ??_GItem_sum_num@@UAEPAXI@Z 0050e060 f i item_sum.obj
 0001:0010d060       ??_EItem_sum_num@@UAEPAXI@Z 0050e060 f i item_sum.obj
 0001:0010d0c0       ??1Item_sum_num@@UAE@XZ    0050e0c0 f i item_sum.obj
 0001:0010d0f0       ?sum_func@Item_sum_sum@@UBE?AW4Sumfunctype@Item_sum@@XZ 0050e0f0 f i item_sum.obj
 0001:0010d110       ?result_type@Item_sum_sum@@UBE?AW4Item_result@@XZ 0050e110 f i item_sum.obj
 0001:0010d140       ?no_rows_in_result@Item_sum_sum@@UAEXXZ 0050e140 f i item_sum.obj
 0001:0010d160       ?func_name@Item_sum_sum@@UBEPBDXZ 0050e160 f i item_sum.obj
 0001:0010d180       ??_GItem_sum_sum@@UAEPAXI@Z 0050e180 f i item_sum.obj
 0001:0010d180       ??_EItem_sum_sum@@UAEPAXI@Z 0050e180 f i item_sum.obj
 0001:0010d1e0       ??1Item_sum_sum@@UAE@XZ    0050e1e0 f i item_sum.obj
 0001:0010d210       ??2Item@@SAPAXIPAUst_mem_root@@@Z 0050e210 f i item_sum.obj
 0001:0010d240       ??0Hybrid_type@@QAE@XZ     0050e240 f i item_sum.obj
 0001:0010d290       ??0Item_sum_num@@QAE@PAVItem@@@Z 0050e290 f i item_sum.obj
 0001:0010d2e0       ?sum_func@Item_sum_distinct@@UBE?AW4Sumfunctype@Item_sum@@XZ 0050e2e0 f i item_sum.obj
 0001:0010d300       ?reset_field@Item_sum_distinct@@UAEXXZ 0050e300 f i item_sum.obj
 0001:0010d320       ?update_field@Item_sum_distinct@@UAEXXZ 0050e320 f i item_sum.obj
 0001:0010d340       ?no_rows_in_result@Item_sum_distinct@@UAEXXZ 0050e340 f i item_sum.obj
 0001:0010d360       ?result_type@Item_sum_distinct@@UBE?AW4Item_result@@XZ 0050e360 f i item_sum.obj
 0001:0010d3b0       ??_GItem_sum_distinct@@UAEPAXI@Z 0050e3b0 f i item_sum.obj
 0001:0010d3b0       ??_EItem_sum_distinct@@UAEPAXI@Z 0050e3b0 f i item_sum.obj
 0001:0010d410       ??0Hybrid_type@@QAE@ABU0@@Z 0050e410 f i item_sum.obj
 0001:0010d470       ??0create_field@@QAE@XZ    0050e470 f i item_sum.obj
 0001:0010d4c0       ??1create_field@@QAE@XZ    0050e4c0 f i item_sum.obj
 0001:0010d500       ?unique_add@Unique@@QAE_NPAX@Z 0050e500 f i item_sum.obj
 0001:0010d6e0       ??_GUnique@@QAEPAXI@Z      0050e6e0 f i item_sum.obj
 0001:0010d740       ??0Item_sum_count@@QAE@PAVTHD@@PAV0@@Z 0050e740 f i item_sum.obj
 0001:0010d7b0       ??0Item_sum_int@@QAE@PAVTHD@@PAV0@@Z 0050e7b0 f i item_sum.obj
 0001:0010d800       ?val_real@Item_sum_int@@UAENXZ 0050e800 f i item_sum.obj
 0001:0010d890       ?result_type@Item_sum_int@@UBE?AW4Item_result@@XZ 0050e890 f i item_sum.obj
 0001:0010d8b0       ?fix_length_and_dec@Item_sum_int@@UAEXXZ 0050e8b0 f i item_sum.obj
 0001:0010d8f0       ??_GItem_sum_int@@UAEPAXI@Z 0050e8f0 f i item_sum.obj
 0001:0010d8f0       ??_EItem_sum_int@@UAEPAXI@Z 0050e8f0 f i item_sum.obj
 0001:0010d950       ??1Item_sum_int@@UAE@XZ    0050e950 f i item_sum.obj
 0001:0010d980       ?sum_func@Item_sum_count@@UBE?AW4Sumfunctype@Item_sum@@XZ 0050e980 f i item_sum.obj
 0001:0010d9a0       ?no_rows_in_result@Item_sum_count@@UAEXXZ 0050e9a0 f i item_sum.obj
 0001:0010d9e0       ?func_name@Item_sum_count@@UBEPBDXZ 0050e9e0 f i item_sum.obj
 0001:0010da00       ??_GItem_sum_count@@UAEPAXI@Z 0050ea00 f i item_sum.obj
 0001:0010da00       ??_EItem_sum_count@@UAEPAXI@Z 0050ea00 f i item_sum.obj
 0001:0010da60       ??1Item_sum_count@@UAE@XZ  0050ea60 f i item_sum.obj
 0001:0010da90       ??0Item_sum_avg@@QAE@PAVTHD@@PAV0@@Z 0050ea90 f i item_sum.obj
 0001:0010db20       ?sum_func@Item_sum_avg@@UBE?AW4Sumfunctype@Item_sum@@XZ 0050eb20 f i item_sum.obj
 0001:0010db40       ?val_int@Item_sum_avg@@UAE_JXZ 0050eb40 f i item_sum.obj
 0001:0010dba0       ?result_item@Item_sum_avg@@UAEPAVItem@@PAVField@@@Z 0050eba0 f i item_sum.obj
 0001:0010dc20       ?no_rows_in_result@Item_sum_avg@@UAEXXZ 0050ec20 f i item_sum.obj
 0001:0010dc40       ?func_name@Item_sum_avg@@UBEPBDXZ 0050ec40 f i item_sum.obj
 0001:0010dc60       ?cleanup@Item_sum_avg@@UAEXXZ 0050ec60 f i item_sum.obj
 0001:0010dcb0       ??_EItem_sum_avg@@UAEPAXI@Z 0050ecb0 f i item_sum.obj
 0001:0010dcb0       ??_GItem_sum_avg@@UAEPAXI@Z 0050ecb0 f i item_sum.obj
 0001:0010dd10       ??1Item_sum_avg@@UAE@XZ    0050ed10 f i item_sum.obj
 0001:0010dd40       ??0Item_sum_std@@QAE@PAVTHD@@PAV0@@Z 0050ed40 f i item_sum.obj
 0001:0010dd90       ?no_rows_in_result@Item_sum_variance@@UAEXXZ 0050ed90 f i item_sum.obj
 0001:0010ddb0       ?cleanup@Item_sum_variance@@UAEXXZ 0050edb0 f i item_sum.obj
 0001:0010de00       ?sum_func@Item_sum_std@@UBE?AW4Sumfunctype@Item_sum@@XZ 0050ee00 f i item_sum.obj
 0001:0010de20       ?result_item@Item_sum_std@@UAEPAVItem@@PAVField@@@Z 0050ee20 f i item_sum.obj
 0001:0010dea0       ?func_name@Item_sum_std@@UBEPBDXZ 0050eea0 f i item_sum.obj
 0001:0010dec0       ?result_type@Item_sum_std@@UBE?AW4Item_result@@XZ 0050eec0 f i item_sum.obj
 0001:0010dee0       ?field_type@Item_sum_std@@UBE?AW4enum_field_types@@XZ 0050eee0 f i item_sum.obj
 0001:0010df00       ??_EItem_sum_std@@UAEPAXI@Z 0050ef00 f i item_sum.obj
 0001:0010df00       ??_GItem_sum_std@@UAEPAXI@Z 0050ef00 f i item_sum.obj
 0001:0010df60       ??1Item_sum_std@@UAE@XZ    0050ef60 f i item_sum.obj
 0001:0010df90       ??1Item_sum_variance@@UAE@XZ 0050ef90 f i item_sum.obj
 0001:0010dfc0       ?sum_func@Item_sum_variance@@UBE?AW4Sumfunctype@Item_sum@@XZ 0050efc0 f i item_sum.obj
 0001:0010dfe0       ?result_item@Item_sum_variance@@UAEPAVItem@@PAVField@@@Z 0050efe0 f i item_sum.obj
 0001:0010e060       ?func_name@Item_sum_variance@@UBEPBDXZ 0050f060 f i item_sum.obj
 0001:0010e0b0       ?result_type@Item_sum_variance@@UBE?AW4Item_result@@XZ 0050f0b0 f i item_sum.obj
 0001:0010e0d0       ??_GItem_sum_variance@@UAEPAXI@Z 0050f0d0 f i item_sum.obj
 0001:0010e0d0       ??_EItem_sum_variance@@UAEPAXI@Z 0050f0d0 f i item_sum.obj
 0001:0010e130       ??0Item_sum_min@@QAE@PAVTHD@@PAV0@@Z 0050f130 f i item_sum.obj
 0001:0010e180       ??0Item_sum_max@@QAE@PAVTHD@@PAV0@@Z 0050f180 f i item_sum.obj
 0001:0010e1d0       ??0Item_sum_or@@QAE@PAVTHD@@PAV0@@Z 0050f1d0 f i item_sum.obj
 0001:0010e220       ??0Item_sum_bit@@QAE@PAVTHD@@PAV0@@Z 0050f220 f i item_sum.obj
 0001:0010e2c0       ?sum_func@Item_sum_bit@@UBE?AW4Sumfunctype@Item_sum@@XZ 0050f2c0 f i item_sum.obj
 0001:0010e2e0       ?fix_length_and_dec@Item_sum_bit@@UAEXXZ 0050f2e0 f i item_sum.obj
 0001:0010e330       ?cleanup@Item_sum_bit@@UAEXXZ 0050f330 f i item_sum.obj
 0001:0010e390       ??_GItem_sum_bit@@UAEPAXI@Z 0050f390 f i item_sum.obj
 0001:0010e390       ??_EItem_sum_bit@@UAEPAXI@Z 0050f390 f i item_sum.obj
 0001:0010e3f0       ??1Item_sum_bit@@UAE@XZ    0050f3f0 f i item_sum.obj
 0001:0010e420       ?func_name@Item_sum_or@@UBEPBDXZ 0050f420 f i item_sum.obj
 0001:0010e440       ??_EItem_sum_or@@UAEPAXI@Z 0050f440 f i item_sum.obj
 0001:0010e440       ??_GItem_sum_or@@UAEPAXI@Z 0050f440 f i item_sum.obj
 0001:0010e4a0       ??1Item_sum_or@@UAE@XZ     0050f4a0 f i item_sum.obj
 0001:0010e4d0       ??0Item_sum_xor@@QAE@PAVTHD@@PAV0@@Z 0050f4d0 f i item_sum.obj
 0001:0010e520       ?func_name@Item_sum_xor@@UBEPBDXZ 0050f520 f i item_sum.obj
 0001:0010e540       ??_EItem_sum_xor@@UAEPAXI@Z 0050f540 f i item_sum.obj
 0001:0010e540       ??_GItem_sum_xor@@UAEPAXI@Z 0050f540 f i item_sum.obj
 0001:0010e5a0       ??1Item_sum_xor@@UAE@XZ    0050f5a0 f i item_sum.obj
 0001:0010e5d0       ??0Item_sum_and@@QAE@PAVTHD@@PAV0@@Z 0050f5d0 f i item_sum.obj
 0001:0010e620       ?func_name@Item_sum_and@@UBEPBDXZ 0050f620 f i item_sum.obj
 0001:0010e640       ??_GItem_sum_and@@UAEPAXI@Z 0050f640 f i item_sum.obj
 0001:0010e640       ??_EItem_sum_and@@UAEPAXI@Z 0050f640 f i item_sum.obj
 0001:0010e6a0       ??1Item_sum_and@@UAE@XZ    0050f6a0 f i item_sum.obj
 0001:0010e6d0       ?reset@Item_sum@@QAE_NXZ   0050f6d0 f i item_sum.obj
 0001:0010e730       ?type@Item_avg_field@@UBE?AW4Type@Item@@XZ 0050f730 f i item_sum.obj
 0001:0010e750       ?is_null@Item_avg_field@@UAE_NXZ 0050f750 f i item_sum.obj
 0001:0010e7a0       ?field_type@Item_avg_field@@UBE?AW4enum_field_types@@XZ 0050f7a0 f i item_sum.obj
 0001:0010e7e0       ?fix_length_and_dec@Item_avg_field@@UAEXXZ 0050f7e0 f i item_sum.obj
 0001:0010e800       ?result_type@Item_avg_field@@UBE?AW4Item_result@@XZ 0050f800 f i item_sum.obj
 0001:0010e820       ??_GItem_avg_field@@UAEPAXI@Z 0050f820 f i item_sum.obj
 0001:0010e820       ??_EItem_avg_field@@UAEPAXI@Z 0050f820 f i item_sum.obj
 0001:0010e870       ??1Item_avg_field@@UAE@XZ  0050f870 f i item_sum.obj
 0001:0010e8a0       ?val_int@Item_variance_field@@UAE_JXZ 0050f8a0 f i item_sum.obj
 0001:0010e900       ?val_str@Item_variance_field@@UAEPAVString@@PAV2@@Z 0050f900 f i item_sum.obj
 0001:0010e940       ?is_null@Item_variance_field@@UAE_NXZ 0050f940 f i item_sum.obj
 0001:0010e990       ?fix_length_and_dec@Item_variance_field@@UAEXXZ 0050f990 f i item_sum.obj
 0001:0010e9b0       ?type@Item_std_field@@UBE?AW4Type@Item@@XZ 0050f9b0 f i item_sum.obj
 0001:0010e9d0       ?result_type@Item_std_field@@UBE?AW4Item_result@@XZ 0050f9d0 f i item_sum.obj
 0001:0010e9f0       ?field_type@Item_std_field@@UBE?AW4enum_field_types@@XZ 0050f9f0 f i item_sum.obj
 0001:0010ea10       ??_GItem_std_field@@UAEPAXI@Z 0050fa10 f i item_sum.obj
 0001:0010ea10       ??_EItem_std_field@@UAEPAXI@Z 0050fa10 f i item_sum.obj
 0001:0010ea60       ??1Item_std_field@@UAE@XZ  0050fa60 f i item_sum.obj
 0001:0010ea90       ??1Item_variance_field@@UAE@XZ 0050fa90 f i item_sum.obj
 0001:0010eac0       ?val_decimal@Item_variance_field@@UAEPAVmy_decimal@@PAV2@@Z 0050fac0 f i item_sum.obj
 0001:0010eb00       ?type@Item_variance_field@@UBE?AW4Type@Item@@XZ 0050fb00 f i item_sum.obj
 0001:0010eb20       ?field_type@Item_variance_field@@UBE?AW4enum_field_types@@XZ 0050fb20 f i item_sum.obj
 0001:0010eb60       ?result_type@Item_variance_field@@UBE?AW4Item_result@@XZ 0050fb60 f i item_sum.obj
 0001:0010eb80       ??_EItem_variance_field@@UAEPAXI@Z 0050fb80 f i item_sum.obj
 0001:0010eb80       ??_GItem_variance_field@@UAEPAXI@Z 0050fb80 f i item_sum.obj
 0001:0010ebd0       ??_GTMP_TABLE_PARAM@@QAEPAXI@Z 0050fbd0 f i item_sum.obj
 0001:0010ec20       ??1TMP_TABLE_PARAM@@QAE@XZ 0050fc20 f i item_sum.obj
 0001:0010ec70       ?cleanup@TMP_TABLE_PARAM@@QAEXXZ 0050fc70 f i item_sum.obj
 0001:0010ed00       ??_ECopy_field@@QAEPAXI@Z  0050fd00 f i item_sum.obj
 0001:0010eda0       ??1Copy_field@@QAE@XZ      0050fda0 f i item_sum.obj
 0001:0010ede0       ?sum_func@Item_sum_count_distinct@@UBE?AW4Sumfunctype@Item_sum@@XZ 0050fde0 f i item_sum.obj
 0001:0010ee00       ?reset_field@Item_sum_count_distinct@@UAEXXZ 0050fe00 f i item_sum.obj
 0001:0010ee20       ?update_field@Item_sum_count_distinct@@UAEXXZ 0050fe20 f i item_sum.obj
 0001:0010ee40       ?func_name@Item_sum_count_distinct@@UBEPBDXZ 0050fe40 f i item_sum.obj
 0001:0010ee60       ?no_rows_in_result@Item_sum_count_distinct@@UAEXXZ 0050fe60 f i item_sum.obj
 0001:0010ee80       ??_EItem_sum_count_distinct@@UAEPAXI@Z 0050fe80 f i item_sum.obj
 0001:0010ee80       ??_GItem_sum_count_distinct@@UAEPAXI@Z 0050fe80 f i item_sum.obj
 0001:0010eee0       ??0Item_sum_count_distinct@@QAE@PAVTHD@@PAV0@@Z 0050fee0 f i item_sum.obj
 0001:0010eff0       ?elements_in_tree@Unique@@QAEKXZ 0050fff0 f i item_sum.obj
 0001:0010f020       ?clear@udf_handler@@QAEXXZ 00510020 f i item_sum.obj
 0001:0010f0a0       ?add@udf_handler@@QAEXPAD@Z 005100a0 f i item_sum.obj
 0001:0010f170       ??0Item_sum_udf_float@@QAE@PAVTHD@@PAV0@@Z 00510170 f i item_sum.obj
 0001:0010f1c0       ??0Item_udf_sum@@QAE@PAVTHD@@PAV0@@Z 005101c0 f i item_sum.obj
 0001:0010f240       ?func_name@Item_udf_sum@@UBEPBDXZ 00510240 f i item_sum.obj
 0001:0010f280       ?name@udf_handler@@QBEPBDXZ 00510280 f i item_sum.obj
 0001:0010f2d0       ?fix_fields@Item_udf_sum@@UAE_NPAVTHD@@PAPAVItem@@@Z 005102d0 f i item_sum.obj
 0001:0010f3a0       ?sum_func@Item_udf_sum@@UBE?AW4Sumfunctype@Item_sum@@XZ 005103a0 f i item_sum.obj
 0001:0010f3c0       ?have_field_update@Item_udf_sum@@UBE_NXZ 005103c0 f i item_sum.obj
 0001:0010f3e0       ?reset_field@Item_udf_sum@@UAEXXZ 005103e0 f i item_sum.obj
 0001:0010f400       ?update_field@Item_udf_sum@@UAEXXZ 00510400 f i item_sum.obj
 0001:0010f420       ??_EItem_udf_sum@@UAEPAXI@Z 00510420 f i item_sum.obj
 0001:0010f420       ??_GItem_udf_sum@@UAEPAXI@Z 00510420 f i item_sum.obj
 0001:0010f480       ??1Item_udf_sum@@UAE@XZ    00510480 f i item_sum.obj
 0001:0010f4c0       ?val_int@Item_sum_udf_float@@UAE_JXZ 005104c0 f i item_sum.obj
 0001:0010f530       ?fix_length_and_dec@Item_sum_udf_float@@UAEXXZ 00510530 f i item_sum.obj
 0001:0010f560       ??_GItem_sum_udf_float@@UAEPAXI@Z 00510560 f i item_sum.obj
 0001:0010f560       ??_EItem_sum_udf_float@@UAEPAXI@Z 00510560 f i item_sum.obj
 0001:0010f5c0       ??1Item_sum_udf_float@@UAE@XZ 005105c0 f i item_sum.obj
 0001:0010f5f0       ??0Item_sum_udf_decimal@@QAE@PAVTHD@@PAV0@@Z 005105f0 f i item_sum.obj
 0001:0010f640       ?result_type@Item_sum_udf_decimal@@UBE?AW4Item_result@@XZ 00510640 f i item_sum.obj
 0001:0010f660       ?fix_length_and_dec@Item_sum_udf_decimal@@UAEXXZ 00510660 f i item_sum.obj
 0001:0010f690       ??_GItem_sum_udf_decimal@@UAEPAXI@Z 00510690 f i item_sum.obj
 0001:0010f690       ??_EItem_sum_udf_decimal@@UAEPAXI@Z 00510690 f i item_sum.obj
 0001:0010f6f0       ??1Item_sum_udf_decimal@@UAE@XZ 005106f0 f i item_sum.obj
 0001:0010f720       ??0Item_sum_udf_int@@QAE@PAVTHD@@PAV0@@Z 00510720 f i item_sum.obj
 0001:0010f770       ?val_real@Item_sum_udf_int@@UAENXZ 00510770 f i item_sum.obj
 0001:0010f7f0       ?result_type@Item_sum_udf_int@@UBE?AW4Item_result@@XZ 005107f0 f i item_sum.obj
 0001:0010f810       ?fix_length_and_dec@Item_sum_udf_int@@UAEXXZ 00510810 f i item_sum.obj
 0001:0010f840       ??_GItem_sum_udf_int@@UAEPAXI@Z 00510840 f i item_sum.obj
 0001:0010f840       ??_EItem_sum_udf_int@@UAEPAXI@Z 00510840 f i item_sum.obj
 0001:0010f8a0       ??1Item_sum_udf_int@@UAE@XZ 005108a0 f i item_sum.obj
 0001:0010f8d0       ??0Item_sum_udf_str@@QAE@PAVTHD@@PAV0@@Z 005108d0 f i item_sum.obj
 0001:0010f920       ?val_real@Item_sum_udf_str@@UAENXZ 00510920 f i item_sum.obj
 0001:0010fa50       ?val_int@Item_sum_udf_str@@UAE_JXZ 00510a50 f i item_sum.obj
 0001:0010fb80       ?result_type@Item_sum_udf_str@@UBE?AW4Item_result@@XZ 00510b80 f i item_sum.obj
 0001:0010fba0       ??_EItem_sum_udf_str@@UAEPAXI@Z 00510ba0 f i item_sum.obj
 0001:0010fba0       ??_GItem_sum_udf_str@@UAEPAXI@Z 00510ba0 f i item_sum.obj
 0001:0010fc00       ??1Item_sum_udf_str@@UAE@XZ 00510c00 f i item_sum.obj
 0001:0010fc30       ??0Item_sum@@QAE@XZ        00510c30 f i item_sum.obj
 0001:0010fcb0       ?sum_func@Item_func_group_concat@@UBE?AW4Sumfunctype@Item_sum@@XZ 00510cb0 f i item_sum.obj
 0001:0010fcd0       ?func_name@Item_func_group_concat@@UBEPBDXZ 00510cd0 f i item_sum.obj
 0001:0010fcf0       ?result_type@Item_func_group_concat@@UBE?AW4Item_result@@XZ 00510cf0 f i item_sum.obj
 0001:0010fd10       ?field_type@Item_func_group_concat@@UBE?AW4enum_field_types@@XZ 00510d10 f i item_sum.obj
 0001:0010fd60       ?reset_field@Item_func_group_concat@@UAEXXZ 00510d60 f i item_sum.obj
 0001:0010fdb0       ?update_field@Item_func_group_concat@@UAEXXZ 00510db0 f i item_sum.obj
 0001:0010fe00       ?val_real@Item_func_group_concat@@UAENXZ 00510e00 f i item_sum.obj
 0001:0010fe90       ?val_int@Item_func_group_concat@@UAE_JXZ 00510e90 f i item_sum.obj
 0001:0010ffa0       ?val_decimal@Item_func_group_concat@@UAEPAVmy_decimal@@PAV2@@Z 00510fa0 f i item_sum.obj
 0001:0010ffe0       ?no_rows_in_result@Item_func_group_concat@@UAEXXZ 00510fe0 f i item_sum.obj
 0001:00110000       ?change_context_processor@Item_func_group_concat@@UAE_NPAE@Z 00511000 f i item_sum.obj
 0001:00110030       ??_EItem_func_group_concat@@UAEPAXI@Z 00511030 f i item_sum.obj
 0001:00110030       ??_GItem_func_group_concat@@UAEPAXI@Z 00511030 f i item_sum.obj
 0001:00110090       ?is_null_in_record@Field@@QAE_NPBE@Z 00511090 f i item_sum.obj
 0001:001100f0       ??2String@@SAPAXIPAUst_mem_root@@@Z 005110f0 f i item_sum.obj
 0001:00110120       ??0?$List@Vcreate_field@@@@QAE@XZ 00511120 f i item_sum.obj
 0001:00110150       ?push_back@?$List@Vcreate_field@@@@QAE_NPAVcreate_field@@@Z 00511150 f i item_sum.obj
 0001:00110190       ??0Hybrid_type_traits_fast_decimal@@QAE@XZ 00511190 f i item_sum.obj
 0001:001101d0       ?type@Hybrid_type_traits_fast_decimal@@UBE?AW4Item_result@@XZ 005111d0 f i item_sum.obj
 0001:001101f0       ?fix_length_and_dec@Hybrid_type_traits_fast_decimal@@UBEXPAVItem@@0@Z 005111f0 f i item_sum.obj
 0001:00110250       ?div@Hybrid_type_traits_fast_decimal@@UBEXPAUHybrid_type@@_K@Z 00511250 f i item_sum.obj
 0001:00110300       ??_EHybrid_type_traits_fast_decimal@@UAEPAXI@Z 00511300 f i item_sum.obj
 0001:00110300       ??_GHybrid_type_traits_fast_decimal@@UAEPAXI@Z 00511300 f i item_sum.obj
 0001:00110350       ??1Hybrid_type_traits_fast_decimal@@UAE@XZ 00511350 f i item_sum.obj
 0001:00110380       ?make_date_time@@YA_NPAUst_date_time_format@@PAUst_mysql_time@@W4enum_mysql_timestamp_type@@PAVString@@@Z 00511380 f   item_timefunc.obj
 0001:00110de0       ?calc_time_diff@@YA_NPAUst_mysql_time@@0HPA_JPAJ@Z 00511de0 f   item_timefunc.obj
 0001:00110fa0       ?val_int@Item_func_period_add@@UAE_JXZ 00511fa0 f   item_timefunc.obj
 0001:001110a0       ?val_int@Item_func_period_diff@@UAE_JXZ 005120a0 f   item_timefunc.obj
 0001:001111a0       ?val_int@Item_func_to_days@@UAE_JXZ 005121a0 f   item_timefunc.obj
 0001:00111250       ?val_int@Item_func_dayofyear@@UAE_JXZ 00512250 f   item_timefunc.obj
 0001:00111320       ?val_int@Item_func_dayofmonth@@UAE_JXZ 00512320 f   item_timefunc.obj
 0001:001113b0       ?val_int@Item_func_month@@UAE_JXZ 005123b0 f   item_timefunc.obj
 0001:00111440       ?val_str@Item_func_monthname@@UAEPAVString@@PAV2@@Z 00512440 f   item_timefunc.obj
 0001:00111510       ?val_int@Item_func_quarter@@UAE_JXZ 00512510 f   item_timefunc.obj
 0001:001115c0       ?val_int@Item_func_hour@@UAE_JXZ 005125c0 f   item_timefunc.obj
 0001:00111650       ?val_int@Item_func_minute@@UAE_JXZ 00512650 f   item_timefunc.obj
 0001:001116e0       ?val_int@Item_func_second@@UAE_JXZ 005126e0 f   item_timefunc.obj
 0001:00111770       ?week_mode@@YAII@Z         00512770 f   item_timefunc.obj
 0001:001117a0       ?val_int@Item_func_week@@UAE_JXZ 005127a0 f   item_timefunc.obj
 0001:00111890       ?val_int@Item_func_yearweek@@UAE_JXZ 00512890 f   item_timefunc.obj
 0001:00111990       ?val_int@Item_func_weekday@@UAE_JXZ 00512990 f   item_timefunc.obj
 0001:00111a70       ?val_str@Item_func_dayname@@UAEPAVString@@PAV2@@Z 00512a70 f   item_timefunc.obj
 0001:00111b30       ?val_int@Item_func_year@@UAE_JXZ 00512b30 f   item_timefunc.obj
 0001:00111bc0       ?val_int@Item_func_unix_timestamp@@UAE_JXZ 00512bc0 f   item_timefunc.obj
 0001:00111d10       ?val_int@Item_func_time_to_sec@@UAE_JXZ 00512d10 f   item_timefunc.obj
 0001:00111de0       ?val_str@Item_date@@UAEPAVString@@PAV2@@Z 00512de0 f   item_timefunc.obj
 0001:00111ec0       ?val_int@Item_date@@UAE_JXZ 00512ec0 f   item_timefunc.obj
 0001:00111f80       ?get_date@Item_func_from_days@@UAE_NPAUst_mysql_time@@I@Z 00512f80 f   item_timefunc.obj
 0001:00112030       ?fix_length_and_dec@Item_func_curdate@@UAEXXZ 00513030 f   item_timefunc.obj
 0001:001120f0       ?val_str@Item_func_curdate@@UAEPAVString@@PAV2@@Z 005130f0 f   item_timefunc.obj
 0001:00112170       ?store_now_in_TIME@Item_func_curdate_local@@UAEXPAUst_mysql_time@@@Z 00513170 f   item_timefunc.obj
 0001:001121e0       ?store_now_in_TIME@Item_func_curdate_utc@@UAEXPAUst_mysql_time@@@Z 005131e0 f   item_timefunc.obj
 0001:00112230       ?get_date@Item_func_curdate@@UAE_NPAUst_mysql_time@@I@Z 00513230 f   item_timefunc.obj
 0001:00112260       ?val_str@Item_func_curtime@@UAEPAVString@@PAV2@@Z 00513260 f   item_timefunc.obj
 0001:001122d0       ?fix_length_and_dec@Item_func_curtime@@UAEXXZ 005132d0 f   item_timefunc.obj
 0001:001123b0       ?store_now_in_TIME@Item_func_curtime_local@@UAEXPAUst_mysql_time@@@Z 005133b0 f   item_timefunc.obj
 0001:00112420       ?store_now_in_TIME@Item_func_curtime_utc@@UAEXPAUst_mysql_time@@@Z 00513420 f   item_timefunc.obj
 0001:00112470       ?val_str@Item_func_now@@UAEPAVString@@PAV2@@Z 00513470 f   item_timefunc.obj
 0001:001124e0       ?fix_length_and_dec@Item_func_now@@UAEXXZ 005134e0 f   item_timefunc.obj
 0001:00112590       ?store_now_in_TIME@Item_func_now_local@@UAEXPAUst_mysql_time@@@Z 00513590 f   item_timefunc.obj
 0001:00112600       ?store_now_in_TIME@Item_func_now_utc@@UAEXPAUst_mysql_time@@@Z 00513600 f   item_timefunc.obj
 0001:00112650       ?get_date@Item_func_now@@UAE_NPAUst_mysql_time@@I@Z 00513650 f   item_timefunc.obj
 0001:00112680       ?save_in_field@Item_func_now@@UAEHPAVField@@_N@Z 00513680 f   item_timefunc.obj
 0001:001126d0       ?store_now_in_TIME@Item_func_sysdate_local@@UAEXPAUst_mysql_time@@@Z 005136d0 f   item_timefunc.obj
 0001:00112740       ?val_str@Item_func_sysdate_local@@UAEPAVString@@PAV2@@Z 00513740 f   item_timefunc.obj
 0001:00112800       ?val_int@Item_func_sysdate_local@@UAE_JXZ 00513800 f   item_timefunc.obj
 0001:00112880       ?val_real@Item_func_sysdate_local@@UAENXZ 00513880 f   item_timefunc.obj
 0001:00112930       ?fix_length_and_dec@Item_func_sysdate_local@@UAEXXZ 00513930 f   item_timefunc.obj
 0001:00112970       ?get_date@Item_func_sysdate_local@@UAE_NPAUst_mysql_time@@I@Z 00513970 f   item_timefunc.obj
 0001:001129d0       ?save_in_field@Item_func_sysdate_local@@UAEHPAVField@@_N@Z 005139d0 f   item_timefunc.obj
 0001:00112a40       ?val_str@Item_func_sec_to_time@@UAEPAVString@@PAV2@@Z 00513a40 f   item_timefunc.obj
 0001:00112cf0       ?val_int@Item_func_sec_to_time@@UAE_JXZ 00513cf0 f   item_timefunc.obj
 0001:00112e00       ?fix_length_and_dec@Item_func_date_format@@UAEXXZ 00513e00 f   item_timefunc.obj
 0001:00112f60       ?eq@Item_func_date_format@@UBE_NPBVItem@@_N@Z 00513f60 f   item_timefunc.obj
 0001:00113070       ?format_length@Item_func_date_format@@QAEIPBVString@@@Z 00514070 f   item_timefunc.obj
 0001:00113200       ?val_str@Item_func_date_format@@UAEPAVString@@PAV2@@Z 00514200 f   item_timefunc.obj
 0001:00113440       ?fix_length_and_dec@Item_func_from_unixtime@@UAEXXZ 00514440 f   item_timefunc.obj
 0001:001134b0       ?val_str@Item_func_from_unixtime@@UAEPAVString@@PAV2@@Z 005144b0 f   item_timefunc.obj
 0001:00113590       ?val_int@Item_func_from_unixtime@@UAE_JXZ 00514590 f   item_timefunc.obj
 0001:00113650       ?get_date@Item_func_from_unixtime@@UAE_NPAUst_mysql_time@@I@Z 00514650 f   item_timefunc.obj
 0001:00113720       ?fix_length_and_dec@Item_func_convert_tz@@UAEXXZ 00514720 f   item_timefunc.obj
 0001:00113770       ?fix_fields@Item_func_convert_tz@@UAE_NPAVTHD@@PAPAVItem@@@Z 00514770 f   item_timefunc.obj
 0001:00113830       ?val_str@Item_func_convert_tz@@UAEPAVString@@PAV2@@Z 00514830 f   item_timefunc.obj
 0001:001138f0       ?val_int@Item_func_convert_tz@@UAE_JXZ 005148f0 f   item_timefunc.obj
 0001:00113980       ?get_date@Item_func_convert_tz@@UAE_NPAUst_mysql_time@@I@Z 00514980 f   item_timefunc.obj
 0001:00113bb0       ?cleanup@Item_func_convert_tz@@UAEXXZ 00514bb0 f   item_timefunc.obj
 0001:00113bf0       ?fix_length_and_dec@Item_date_add_interval@@UAEXXZ 00514bf0 f   item_timefunc.obj
 0001:00113ce0       ?get_date@Item_date_add_interval@@UAE_NPAUst_mysql_time@@I@Z 00514ce0 f   item_timefunc.obj
 0001:00114a50       ?val_str@Item_date_add_interval@@UAEPAVString@@PAV2@@Z 00515a50 f   item_timefunc.obj
 0001:00114db0       ?val_int@Item_date_add_interval@@UAE_JXZ 00515db0 f   item_timefunc.obj
 0001:00114ed0       ?eq@Item_date_add_interval@@UBE_NPBVItem@@_N@Z 00515ed0 f   item_timefunc.obj
 0001:00114f60       ?print@Item_date_add_interval@@UAEXPAVString@@@Z 00515f60 f   item_timefunc.obj
 0001:00115040       ?print@Item_extract@@UAEXPAVString@@@Z 00516040 f   item_timefunc.obj
 0001:001150d0       ?fix_length_and_dec@Item_extract@@UAEXXZ 005160d0 f   item_timefunc.obj
 0001:00115360       ?val_int@Item_extract@@UAE_JXZ 00516360 f   item_timefunc.obj
 0001:00115770       ?eq@Item_extract@@UBE_NPBVItem@@_N@Z 00516770 f   item_timefunc.obj
 0001:00115860       ?eq@Item_char_typecast@@UBE_NPBVItem@@_N@Z 00516860 f   item_timefunc.obj
 0001:00115960       ?print@Item_typecast@@UAEXPAVString@@@Z 00516960 f   item_timefunc.obj
 0001:001159f0       ?print@Item_char_typecast@@UAEXPAVString@@@Z 005169f0 f   item_timefunc.obj
 0001:00115b50       ?val_str@Item_char_typecast@@UAEPAVString@@PAV2@@Z 00516b50 f   item_timefunc.obj
 0001:00115e60       ?fix_length_and_dec@Item_char_typecast@@UAEXXZ 00516e60 f   item_timefunc.obj
 0001:00116020       ?val_str@Item_datetime_typecast@@UAEPAVString@@PAV2@@Z 00517020 f   item_timefunc.obj
 0001:001160f0       ?val_int@Item_datetime_typecast@@UAE_JXZ 005170f0 f   item_timefunc.obj
 0001:001161a0       ?get_time@Item_time_typecast@@UAE_NPAUst_mysql_time@@@Z 005171a0 f   item_timefunc.obj
 0001:00116210       ?val_int@Item_time_typecast@@UAE_JXZ 00517210 f   item_timefunc.obj
 0001:001162b0       ?val_str@Item_time_typecast@@UAEPAVString@@PAV2@@Z 005172b0 f   item_timefunc.obj
 0001:00116370       ?get_date@Item_date_typecast@@UAE_NPAUst_mysql_time@@I@Z 00517370 f   item_timefunc.obj
 0001:001163e0       ?get_time@Item_date_typecast@@UAE_NPAUst_mysql_time@@@Z 005173e0 f   item_timefunc.obj
 0001:00116420       ?val_str@Item_date_typecast@@UAEPAVString@@PAV2@@Z 00517420 f   item_timefunc.obj
 0001:001164e0       ?val_int@Item_date_typecast@@UAE_JXZ 005174e0 f   item_timefunc.obj
 0001:001165b0       ?val_str@Item_func_makedate@@UAEPAVString@@PAV2@@Z 005175b0 f   item_timefunc.obj
 0001:00116740       ?val_int@Item_func_makedate@@UAE_JXZ 00517740 f   item_timefunc.obj
 0001:001168b0       ?fix_length_and_dec@Item_func_add_time@@UAEXXZ 005178b0 f   item_timefunc.obj
 0001:00116960       ?val_str@Item_func_add_time@@UAEPAVString@@PAV2@@Z 00517960 f   item_timefunc.obj
 0001:00116de0       ?print@Item_func_add_time@@UAEXPAVString@@@Z 00517de0 f   item_timefunc.obj
 0001:00116ed0       ?val_str@Item_func_timediff@@UAEPAVString@@PAV2@@Z 00517ed0 f   item_timefunc.obj
 0001:00117100       ?val_str@Item_func_maketime@@UAEPAVString@@PAV2@@Z 00518100 f   item_timefunc.obj
 0001:00117510       ?val_int@Item_func_microsecond@@UAE_JXZ 00518510 f   item_timefunc.obj
 0001:001175b0       ?val_int@Item_func_timestamp_diff@@UAE_JXZ 005185b0 f   item_timefunc.obj
 0001:00117ab0       ?print@Item_func_timestamp_diff@@UAEXPAVString@@@Z 00518ab0 f   item_timefunc.obj
 0001:00117c50       ?val_str@Item_func_get_format@@UAEPAVString@@PAV2@@Z 00518c50 f   item_timefunc.obj
 0001:00117dc0       ?print@Item_func_get_format@@UAEXPAVString@@@Z 00518dc0 f   item_timefunc.obj
 0001:00117ec0       ?tmp_table_field@Item_func_str_to_date@@UAEPAVField@@PAUst_table@@@Z 00518ec0 f   item_timefunc.obj
 0001:00118050       ?fix_length_and_dec@Item_func_str_to_date@@UAEXXZ 00519050 f   item_timefunc.obj
 0001:001183a0       ?get_date@Item_func_str_to_date@@UAE_NPAUst_mysql_time@@I@Z 005193a0 f   item_timefunc.obj
 0001:00119440       ?val_str@Item_func_str_to_date@@UAEPAVString@@PAV2@@Z 0051a440 f   item_timefunc.obj
 0001:00119520       ?get_date@Item_func_last_day@@UAE_NPAUst_mysql_time@@I@Z 0051a520 f   item_timefunc.obj
 0001:0011ba90       ?get_arg0_date@Item_func@@QAE_NPAUst_mysql_time@@I@Z 0051ca90 f i item_timefunc.obj
 0001:0011bb00       ?get_arg0_time@Item_func@@QAE_NPAUst_mysql_time@@@Z 0051cb00 f i item_timefunc.obj
 0001:0011bb70       ?get_timestamp@Field_timestamp@@QAEJPAD@Z 0051cb70 f i item_timefunc.obj
 0001:0011bbe0       ?create_tmp_field@Item_sum_unique_users@@UAEPAVField@@_NPAUst_table@@I@Z 0051cbe0 f   item_uniq.obj
 0001:0011bc70       ?find_ref_key@@YAHPAUst_table@@PAVField@@PAI@Z 0051cc70 f   key.obj
 0001:0011bd90       ?key_copy@@YAXPAE0PAUst_key@@I@Z 0051cd90 f   key.obj
 0001:0011bf60       ?key_restore@@YAXPAE0PAUst_key@@I@Z 0051cf60 f   key.obj
 0001:0011c270       ?key_cmp_if_same@@YA_NPAUst_table@@PBEII@Z 0051d270 f   key.obj
 0001:0011c4b0       ?key_unpack@@YAXPAVString@@PAUst_table@@I@Z 0051d4b0 f   key.obj
 0001:0011c6e0       ?is_key_used@@YA_NPAUst_table@@IAAV?$List@VItem@@@@@Z 0051d6e0 f   key.obj
 0001:0011c870       ?key_cmp@@YAHPAUst_key_part_info@@PBEI@Z 0051d870 f   key.obj
 0001:0011ccb0       ?rewind@?$List_iterator_fast@VItem@@@@QAEXXZ 0051dcb0 f i key.obj
 0001:0011d7b0       ?check_binlog_magic@@YAHPAUst_io_cache@@PAPBD@Z 0051e7b0 f   log.obj
 0001:0011d910       ?open_binlog@@YAHPAUst_io_cache@@PBDPAPBD@Z 0051e910 f   log.obj
 0001:0011dad0       ??0MYSQL_LOG@@QAE@XZ       0051ead0 f   log.obj
 0001:0011dbf0       ?cleanup@MYSQL_LOG@@QAEXXZ 0051ebf0 f   log.obj
 0001:0011ddb0       ?generate_new_name@MYSQL_LOG@@QAEHPADPBD@Z 0051edb0 f   log.obj
 0001:0011e120       ?init@MYSQL_LOG@@QAEXW4enum_log_type@@W4cache_type@@_NK@Z 0051f120 f   log.obj
 0001:0011e270       ?init_pthread_objects@MYSQL_LOG@@QAEXXZ 0051f270 f   log.obj
 0001:0011e300       ?generate_name@MYSQL_LOG@@QAEPBDPBD0_NPAD@Z 0051f300 f   log.obj
 0001:0011e3e0       ?open_index_file@MYSQL_LOG@@QAE_NPBD0@Z 0051f3e0 f   log.obj
 0001:0011e500       ?open@MYSQL_LOG@@QAE_NPBDW4enum_log_type@@0W4cache_type@@_NK3@Z 0051f500 f   log.obj
 0001:0011efe0       ?get_current_log@MYSQL_LOG@@QAEHPAUst_log_info@@@Z 0051ffe0 f   log.obj
 0001:0011f050       ?raw_get_current_log@MYSQL_LOG@@QAEHPAUst_log_info@@@Z 00520050 f   log.obj
 0001:0011f0c0       ?find_log_pos@MYSQL_LOG@@QAEHPAUst_log_info@@PBD_N@Z 005200c0 f   log.obj
 0001:0011f390       ?find_next_log@MYSQL_LOG@@QAEHPAUst_log_info@@_N@Z 00520390 f   log.obj
 0001:0011f4d0       ?reset_logs@MYSQL_LOG@@QAE_NPAVTHD@@@Z 005204d0 f   log.obj
 0001:0011f7d0       ?purge_first_log@MYSQL_LOG@@QAEHPAUst_relay_log_info@@_N@Z 005207d0 f   log.obj
 0001:0011fb40       ?update_log_index@MYSQL_LOG@@QAEHPAUst_log_info@@_N@Z 00520b40 f   log.obj
 0001:0011fe10       ?purge_logs@MYSQL_LOG@@QAEHPBD_N11PA_K@Z 00520e10 f   log.obj
 0001:00120220       ?purge_logs_before_date@MYSQL_LOG@@QAEHJ@Z 00521220 f   log.obj
 0001:00120590       ?make_log_name@MYSQL_LOG@@QAEXPADPBD@Z 00521590 f   log.obj
 0001:00120620       ?is_active@MYSQL_LOG@@QAE_NPBD@Z 00521620 f   log.obj
 0001:00120660       ?new_file@MYSQL_LOG@@QAEX_N@Z 00521660 f   log.obj
 0001:00120a40       ?append@MYSQL_LOG@@QAE_NPAVLog_event@@@Z 00521a40 f   log.obj
 0001:00120c30       ?appendv@MYSQL_LOG@@QAA_NPBDIZZ 00521c30 f   log.obj
 0001:00120e20       ?write@MYSQL_LOG@@QAA_NPAVTHD@@W4enum_server_command@@PBDZZ 00521e20 f   log.obj
 0001:001213d0       ?flush_and_sync@MYSQL_LOG@@QAE_NXZ 005223d0 f   log.obj
 0001:00121480       ?start_union_events@MYSQL_LOG@@QAEXPAVTHD@@_K@Z 00522480 f   log.obj
 0001:00121500       ?stop_union_events@MYSQL_LOG@@QAEXPAVTHD@@@Z 00522500 f   log.obj
 0001:00121550       ?is_query_in_union@MYSQL_LOG@@QAE_NPAVTHD@@_K@Z 00522550 f   log.obj
 0001:001215c0       ?write@MYSQL_LOG@@QAE_NPAVLog_event@@@Z 005225c0 f   log.obj
 0001:00121db0       ?rotate_and_purge@MYSQL_LOG@@QAEXI@Z 00522db0 f   log.obj
 0001:00121ec0       ?next_file_id@MYSQL_LOG@@QAEIXZ 00522ec0 f   log.obj
 0001:00121f40       ?write@MYSQL_LOG@@QAE_NPAVTHD@@PAUst_io_cache@@PAVLog_event@@@Z 00522f40 f   log.obj
 0001:00122630       ?write@MYSQL_LOG@@QAE_NPAVTHD@@PBDIJ@Z 00523630 f   log.obj
 0001:00122f90       ?wait_for_update@MYSQL_LOG@@QAEXPAVTHD@@_N@Z 00523f90 f   log.obj
 0001:001230d0       ?close@MYSQL_LOG@@QAEXI@Z  005240d0 f   log.obj
 0001:00123460       ?set_max_size@MYSQL_LOG@@QAEXK@Z 00524460 f   log.obj
 0001:001237c0       ?sql_perror@@YAXPBD@Z      005247c0 f   log.obj
 0001:001237e0       ?flush_error_log@@YA_NXZ   005247e0 f   log.obj
 0001:00123a50       ?signal_update@MYSQL_LOG@@QAEXXZ 00524a50 f   log.obj
 0001:00123b40       ?vprint_msg_to_log@@YAXW4loglevel@@PBDPAD@Z 00524b40 f   log.obj
 0001:00124230       ?sql_print_error@@YAXPBDZZ 00525230 f   log.obj
 0001:00124330       ?sql_print_warning@@YAXPBDZZ 00525330 f   log.obj
 0001:00124430       ?sql_print_information@@YAXPBDZZ 00525430 f   log.obj
 0001:00124530       ?open@TC_LOG_MMAP@@UAEHPBD@Z 00525530 f   log.obj
 0001:00124b30       ?get_active_from_pool@TC_LOG_MMAP@@AAEXXZ 00525b30 f   log.obj
 0001:00124cb0       ?overflow@TC_LOG_MMAP@@AAEHXZ 00525cb0 f   log.obj
 0001:00124d00       ?log_xid@TC_LOG_MMAP@@UAEHPAVTHD@@_K@Z 00525d00 f   log.obj
 0001:00125000       ?sync@TC_LOG_MMAP@@AAEHXZ  00526000 f   log.obj
 0001:00125170       ?unlog@TC_LOG_MMAP@@UAEXK_K@Z 00526170 f   log.obj
 0001:001252f0       ?close@TC_LOG_MMAP@@UAEXXZ 005262f0 f   log.obj
 0001:001254c0       ?recover@TC_LOG_MMAP@@QAEHXZ 005264c0 f   log.obj
 0001:001256a0       ?using_heuristic_recover@TC_LOG@@QAEHXZ 005266a0 f   log.obj
 0001:00125710       ?open@MYSQL_LOG@@UAEHPBD@Z 00526710 f   log.obj
 0001:00125b60       ?close@MYSQL_LOG@@UAEXXZ   00526b60 f   log.obj
 0001:00125bd0       ?log_xid@MYSQL_LOG@@UAEHPAVTHD@@_K@Z 00526bd0 f   log.obj
 0001:00125c80       ?unlog@MYSQL_LOG@@UAEXK_K@Z 00526c80 f   log.obj
 0001:00125d10       ?recover@MYSQL_LOG@@QAEHPAUst_io_cache@@PAVFormat_description_log_event@@@Z 00526d10 f   log.obj
 0001:001283b0       ??1Query_log_event@@UAE@XZ 005293b0 f i log.obj
 0001:00128420       ?write_data_header@Log_event@@UAE_NPAUst_io_cache@@@Z 00529420 f i log.obj
 0001:00128440       ?write_data_body@Log_event@@UAE_NPAUst_io_cache@@@Z 00529440 f i log.obj
 0001:00128460       ?is_artificial_event@Log_event@@UAE_NXZ 00529460 f i log.obj
 0001:00128480       ??1Log_event@@UAE@XZ       00529480 f i log.obj
 0001:001284c0       ?get_db@Log_event@@UAEPBDXZ 005294c0 f i log.obj
 0001:00128510       ?write@Log_event@@UAE_NPAUst_io_cache@@@Z 00529510 f i log.obj
 0001:001285e0       ?free_temp_buf@Log_event@@QAEXXZ 005295e0 f i log.obj
 0001:00128640       ?get_data_size@Log_event@@UAEHXZ 00529640 f i log.obj
 0001:00128660       ??_ELog_event@@UAEPAXI@Z   00529660 f i log.obj
 0001:00128660       ??_GLog_event@@UAEPAXI@Z   00529660 f i log.obj
 0001:001286b0       ??3Log_event@@SAXPAXI@Z    005296b0 f i log.obj
 0001:001286e0       ?get_db@Query_log_event@@UAEPBDXZ 005296e0 f i log.obj
 0001:00128700       ?get_type_code@Query_log_event@@UAE?AW4Log_event_type@@XZ 00529700 f i log.obj
 0001:00128720       ?write_post_header_for_derived@Query_log_event@@UAE_NPAUst_io_cache@@@Z 00529720 f i log.obj
 0001:00128740       ?is_valid@Query_log_event@@UBE_NXZ 00529740 f i log.obj
 0001:00128770       ?get_post_header_size_for_derived@Query_log_event@@UAEKXZ 00529770 f i log.obj
 0001:00128790       ??_GQuery_log_event@@UAEPAXI@Z 00529790 f i log.obj
 0001:00128790       ??_EQuery_log_event@@UAEPAXI@Z 00529790 f i log.obj
 0001:001287f0       ??0TC_LOG@@QAE@XZ          005297f0 f i log.obj
 0001:00128820       ??_GTC_LOG@@UAEPAXI@Z      00529820 f i log.obj
 0001:00128820       ??_ETC_LOG@@UAEPAXI@Z      00529820 f i log.obj
 0001:00128870       ??1TC_LOG@@UAE@XZ          00529870 f i log.obj
 0001:001288a0       ??_EMYSQL_LOG@@UAEPAXI@Z   005298a0 f i log.obj
 0001:001288a0       ??_GMYSQL_LOG@@UAEPAXI@Z   005298a0 f i log.obj
 0001:001288f0       ??1MYSQL_LOG@@UAE@XZ       005298f0 f i log.obj
 0001:00128920       ??1Format_description_log_event@@UAE@XZ 00529920 f i log.obj
 0001:00128980       ??1Start_log_event_v3@@UAE@XZ 00529980 f i log.obj
 0001:001289c0       ?get_type_code@Start_log_event_v3@@UAE?AW4Log_event_type@@XZ 005299c0 f i log.obj
 0001:001289e0       ?is_valid@Start_log_event_v3@@UBE_NXZ 005299e0 f i log.obj
 0001:00128a00       ?get_data_size@Start_log_event_v3@@UAEHXZ 00529a00 f i log.obj
 0001:00128a20       ?is_artificial_event@Start_log_event_v3@@UAE_NXZ 00529a20 f i log.obj
 0001:00128a40       ??_GStart_log_event_v3@@UAEPAXI@Z 00529a40 f i log.obj
 0001:00128a40       ??_EStart_log_event_v3@@UAEPAXI@Z 00529a40 f i log.obj
 0001:00128a90       ?get_type_code@Format_description_log_event@@UAE?AW4Log_event_type@@XZ 00529a90 f i log.obj
 0001:00128ab0       ?is_valid@Format_description_log_event@@UBE_NXZ 00529ab0 f i log.obj
 0001:00128b20       ?get_data_size@Format_description_log_event@@UAEHXZ 00529b20 f i log.obj
 0001:00128b40       ??_EFormat_description_log_event@@UAEPAXI@Z 00529b40 f i log.obj
 0001:00128b40       ??_GFormat_description_log_event@@UAEPAXI@Z 00529b40 f i log.obj
 0001:00128ba0       ??0st_log_info@@QAE@XZ     00529ba0 f i log.obj
 0001:00128c60       ??1st_log_info@@QAE@XZ     00529c60 f i log.obj
 0001:00128cb0       ?is_open@MYSQL_LOG@@QAE_NXZ 00529cb0 f i log.obj
 0001:00128ce0       ?notify_group_relay_log_name_update@st_relay_log_info@@QAEXXZ 00529ce0 f i log.obj
 0001:00128d20       ??1Rotate_log_event@@UAE@XZ 00529d20 f i log.obj
 0001:00128d90       ?get_type_code@Rotate_log_event@@UAE?AW4Log_event_type@@XZ 00529d90 f i log.obj
 0001:00128db0       ?get_data_size@Rotate_log_event@@UAEHXZ 00529db0 f i log.obj
 0001:00128de0       ?is_valid@Rotate_log_event@@UBE_NXZ 00529de0 f i log.obj
 0001:00128e10       ??_ERotate_log_event@@UAEPAXI@Z 00529e10 f i log.obj
 0001:00128e10       ??_GRotate_log_event@@UAEPAXI@Z 00529e10 f i log.obj
 0001:00128e60       ?get_cache_stmt@Log_event@@QAE_NXZ 00529e60 f i log.obj
 0001:00128e80       ??0Intvar_log_event@@QAE@PAVTHD@@E_K@Z 00529e80 f i log.obj
 0001:00128ef0       ??1Intvar_log_event@@UAE@XZ 00529ef0 f i log.obj
 0001:00128f30       ?get_type_code@Intvar_log_event@@UAE?AW4Log_event_type@@XZ 00529f30 f i log.obj
 0001:00128f50       ?get_data_size@Intvar_log_event@@UAEHXZ 00529f50 f i log.obj
 0001:00128f70       ?is_valid@Intvar_log_event@@UBE_NXZ 00529f70 f i log.obj
 0001:00128f90       ??_EIntvar_log_event@@UAEPAXI@Z 00529f90 f i log.obj
 0001:00128f90       ??_GIntvar_log_event@@UAEPAXI@Z 00529f90 f i log.obj
 0001:00128fe0       ??0Rand_log_event@@QAE@PAVTHD@@_K1@Z 00529fe0 f i log.obj
 0001:00129050       ??1Rand_log_event@@UAE@XZ  0052a050 f i log.obj
 0001:00129090       ?get_type_code@Rand_log_event@@UAE?AW4Log_event_type@@XZ 0052a090 f i log.obj
 0001:001290b0       ?get_data_size@Rand_log_event@@UAEHXZ 0052a0b0 f i log.obj
 0001:001290d0       ?is_valid@Rand_log_event@@UBE_NXZ 0052a0d0 f i log.obj
 0001:001290f0       ??_ERand_log_event@@UAEPAXI@Z 0052a0f0 f i log.obj
 0001:001290f0       ??_GRand_log_event@@UAEPAXI@Z 0052a0f0 f i log.obj
 0001:00129140       ??0User_var_log_event@@QAE@PAVTHD@@PADI1KW4Item_result@@I@Z 0052a140 f i log.obj
 0001:001291e0       ??1User_var_log_event@@UAE@XZ 0052a1e0 f i log.obj
 0001:00129220       ?get_type_code@User_var_log_event@@UAE?AW4Log_event_type@@XZ 0052a220 f i log.obj
 0001:00129240       ?is_valid@User_var_log_event@@UBE_NXZ 0052a240 f i log.obj
 0001:00129260       ??_GUser_var_log_event@@UAEPAXI@Z 0052a260 f i log.obj
 0001:00129260       ??_EUser_var_log_event@@UAEPAXI@Z 0052a260 f i log.obj
 0001:001292b0       ?enter_cond@THD@@QAEPBDPAUpthread_cond_t@@PAU_RTL_CRITICAL_SECTION@@PBD@Z 0052a2b0 f i log.obj
 0001:00129320       ?exit_cond@THD@@QAEXPBD@Z  0052a320 f i log.obj
 0001:001293f0       ??0Stop_log_event@@QAE@XZ  0052a3f0 f i log.obj
 0001:00129430       ??1Stop_log_event@@UAE@XZ  0052a430 f i log.obj
 0001:00129470       ?get_type_code@Stop_log_event@@UAE?AW4Log_event_type@@XZ 0052a470 f i log.obj
 0001:00129490       ?is_valid@Stop_log_event@@UBE_NXZ 0052a490 f i log.obj
 0001:001294b0       ??_EStop_log_event@@UAEPAXI@Z 0052a4b0 f i log.obj
 0001:001294b0       ??_GStop_log_event@@UAEPAXI@Z 0052a4b0 f i log.obj
 0001:00129500       ??0Xid_log_event@@QAE@PAVTHD@@_K@Z 0052a500 f i log.obj
 0001:00129560       ??1Xid_log_event@@UAE@XZ   0052a560 f i log.obj
 0001:001295a0       ?get_type_code@Xid_log_event@@UAE?AW4Log_event_type@@XZ 0052a5a0 f i log.obj
 0001:001295c0       ?get_data_size@Xid_log_event@@UAEHXZ 0052a5c0 f i log.obj
 0001:001295e0       ?is_valid@Xid_log_event@@UBE_NXZ 0052a5e0 f i log.obj
 0001:00129600       ??_EXid_log_event@@UAEPAXI@Z 0052a600 f i log.obj
 0001:00129600       ??_GXid_log_event@@UAEPAXI@Z 0052a600 f i log.obj
 0001:00129650       ??0TC_LOG_DUMMY@@QAE@XZ    0052a650 f i log.obj
 0001:00129690       ?open@TC_LOG_DUMMY@@UAEHPBD@Z 0052a690 f i log.obj
 0001:001296b0       ?close@TC_LOG_DUMMY@@UAEXXZ 0052a6b0 f i log.obj
 0001:001296d0       ?log_xid@TC_LOG_DUMMY@@UAEHPAVTHD@@_K@Z 0052a6d0 f i log.obj
 0001:001296f0       ?unlog@TC_LOG_DUMMY@@UAEXK_K@Z 0052a6f0 f i log.obj
 0001:00129710       ??_GTC_LOG_DUMMY@@UAEPAXI@Z 0052a710 f i log.obj
 0001:00129710       ??_ETC_LOG_DUMMY@@UAEPAXI@Z 0052a710 f i log.obj
 0001:00129760       ??1TC_LOG_DUMMY@@UAE@XZ    0052a760 f i log.obj
 0001:00129790       ??0TC_LOG_MMAP@@QAE@XZ     0052a790 f i log.obj
 0001:001297e0       ??_GTC_LOG_MMAP@@UAEPAXI@Z 0052a7e0 f i log.obj
 0001:001297e0       ??_ETC_LOG_MMAP@@UAEPAXI@Z 0052a7e0 f i log.obj
 0001:00129830       ??1TC_LOG_MMAP@@UAE@XZ     0052a830 f i log.obj
 0001:00129860       ??1Muted_query_log_event@@UAE@XZ 0052a860 f i log.obj
 0001:00129890       ?mysql_lock_tables@@YAPAUst_mysql_lock@@PAVTHD@@PAPAUst_table@@IIPA_N@Z 0052a890 f   lock.obj
 0001:00129f20       ?mysql_unlock_tables@@YAXPAVTHD@@PAUst_mysql_lock@@@Z 0052af20 f   lock.obj
 0001:0012a060       ?mysql_unlock_some_tables@@YAXPAVTHD@@PAPAUst_table@@I@Z 0052b060 f   lock.obj
 0001:0012a0f0       ?mysql_unlock_read_tables@@YAXPAVTHD@@PAUst_mysql_lock@@@Z 0052b0f0 f   lock.obj
 0001:0012a3b0       ?mysql_lock_remove@@YAXPAVTHD@@PAUst_mysql_lock@@PAUst_table@@_N@Z 0052b3b0 f   lock.obj
 0001:0012a5a0       ?mysql_lock_abort@@YAXPAVTHD@@PAUst_table@@@Z 0052b5a0 f   lock.obj
 0001:0012a670       ?mysql_lock_abort_for_thread@@YA_NPAVTHD@@PAUst_table@@@Z 0052b670 f   lock.obj
 0001:0012a800       ?mysql_lock_merge@@YAPAUst_mysql_lock@@PAU1@0@Z 0052b800 f   lock.obj
 0001:0012aab0       ?mysql_lock_have_duplicate@@YAPAUTABLE_LIST@@PAVTHD@@PAU1@1@Z 0052bab0 f   lock.obj
 0001:0012b3e0       ?lock_and_wait_for_table_name@@YAHPAVTHD@@PAUTABLE_LIST@@@Z 0052c3e0 f   lock.obj
 0001:0012b590       ?lock_table_name@@YAHPAVTHD@@PAUTABLE_LIST@@@Z 0052c590 f   lock.obj
 0001:0012b830       ?unlock_table_name@@YAXPAVTHD@@PAUTABLE_LIST@@@Z 0052c830 f   lock.obj
 0001:0012b860       ?wait_for_locked_table_names@@YA_NPAVTHD@@PAUTABLE_LIST@@@Z 0052c860 f   lock.obj
 0001:0012b9e0       ?lock_table_names@@YA_NPAVTHD@@PAUTABLE_LIST@@@Z 0052c9e0 f   lock.obj
 0001:0012ba90       ?unlock_table_names@@YAXPAVTHD@@PAUTABLE_LIST@@1@Z 0052ca90 f   lock.obj
 0001:0012bc70       ?lock_global_read_lock@@YA_NPAVTHD@@@Z 0052cc70 f   lock.obj
 0001:0012be60       ?unlock_global_read_lock@@YAXPAVTHD@@@Z 0052ce60 f   lock.obj
 0001:0012c010       ?wait_if_global_read_lock@@YA_NPAVTHD@@_N1@Z 0052d010 f   lock.obj
 0001:0012c2c0       ?start_waiting_global_read_lock@@YAXPAVTHD@@@Z 0052d2c0 f   lock.obj
 0001:0012c440       ?make_global_read_lock_block_commit@@YA_NPAVTHD@@@Z 0052d440 f   lock.obj
 0001:0012c640       ?broadcast_refresh@@YAXXZ  0052d640 f   lock.obj
 0001:0012d1e0       ?lock_time@THD@@QAEXXZ     0052e1e0 f i lock.obj
 0001:0012d220       ?safe_time@THD@@SAXPAJ@Z   0052e220 f i lock.obj
 0001:0012d270       ?ha_external_lock@handler@@QAEHPAVTHD@@H@Z 0052e270 f i lock.obj
 0001:0012d3d0       ?placeholder@TABLE_LIST@@QAE_NXZ 0052e3d0 f i lock.obj
 0001:0012d460       ?str_to_hex@@YAPADPADPBDI@Z 0052e460 f   log_event.obj
 0001:0012d4c0       ?append_query_string@@YAHPAUcharset_info_st@@PBVString@@PAV2@@Z 0052e4c0 f   log_event.obj
 0001:0012d5d0       ?get_type_str@Log_event@@QAEPBDXZ 0052e5d0 f   log_event.obj
 0001:0012d700       ??0Log_event@@QAE@PAVTHD@@G_N@Z 0052e700 f   log_event.obj
 0001:0012d790       ??0Log_event@@QAE@XZ       0052e790 f   log_event.obj
 0001:0012d820       ??0Log_event@@QAE@PBDPBVFormat_description_log_event@@@Z 0052e820 f   log_event.obj
 0001:0012d950       ?exec_event@Log_event@@UAEHPAUst_relay_log_info@@@Z 0052e950 f   log_event.obj
 0001:0012db40       ?pack_info@Log_event@@UAEXPAVProtocol@@@Z 0052eb40 f   log_event.obj
 0001:0012db70       ?net_send@Log_event@@QAEHPAVProtocol@@PBD_K@Z 0052eb70 f   log_event.obj
 0001:0012dc80       ?init_show_field_list@Log_event@@SAXPAV?$List@VItem@@@@@Z 0052ec80 f   log_event.obj
 0001:0012de10       ?write_header@Log_event@@QAE_NPAUst_io_cache@@K@Z 0052ee10 f   log_event.obj
 0001:0012dff0       ?read_log_event@Log_event@@SAHPAUst_io_cache@@PAVString@@PAU_RTL_CRITICAL_SECTION@@@Z 0052eff0 f   log_event.obj
 0001:0012e2b0       ?read_log_event@Log_event@@SAPAV1@PAUst_io_cache@@PAU_RTL_CRITICAL_SECTION@@PBVFormat_description_log_event@@@Z 0052f2b0 f   log_event.obj
 0001:0012e720       ?read_log_event@Log_event@@SAPAV1@PBDIPAPBDPBVFormat_description_log_event@@@Z 0052f720 f   log_event.obj
 0001:0012eee0       ?pack_info@Query_log_event@@UAEXPAVProtocol@@@Z 0052fee0 f   log_event.obj
 0001:0012f030       ?write@Query_log_event@@UAE_NPAUst_io_cache@@@Z 00530030 f   log_event.obj
 0001:0012f5c0       ??0Query_log_event@@QAE@XZ 005305c0 f   log_event.obj
 0001:0012f600       ??0Query_log_event@@QAE@PAVTHD@@PBDK_N2W4killed_state@1@@Z 00530600 f   log_event.obj
 0001:0012fa00       ??0Query_log_event@@QAE@PBDIPBVFormat_description_log_event@@W4Log_event_type@@@Z 00530a00 f   log_event.obj
 0001:00130920       ?exec_event@Query_log_event@@UAEHPAUst_relay_log_info@@@Z 00531920 f   log_event.obj
 0001:00130960       ?exec_event@Query_log_event@@QAEHPAUst_relay_log_info@@PBDK@Z 00531960 f   log_event.obj
 0001:00131390       ??0Muted_query_log_event@@QAE@XZ 00532390 f   log_event.obj
 0001:001313c0       ??0Start_log_event_v3@@QAE@XZ 005323c0 f   log_event.obj
 0001:00131430       ?pack_info@Start_log_event_v3@@UAEXPAVProtocol@@@Z 00532430 f   log_event.obj
 0001:00131520       ??0Start_log_event_v3@@QAE@PBDPBVFormat_description_log_event@@@Z 00532520 f   log_event.obj
 0001:001315e0       ?write@Start_log_event_v3@@UAE_NPAUst_io_cache@@@Z 005325e0 f   log_event.obj
 0001:001316b0       ?exec_event@Start_log_event_v3@@UAEHPAUst_relay_log_info@@@Z 005326b0 f   log_event.obj
 0001:001319c0       ??0Format_description_log_event@@QAE@EPBD@Z 005329c0 f   log_event.obj
 0001:00131ca0       ??0Format_description_log_event@@QAE@PBDIPBV0@@Z 00532ca0 f   log_event.obj
 0001:00131e50       ?write@Format_description_log_event@@UAE_NPAUst_io_cache@@@Z 00532e50 f   log_event.obj
 0001:00131f40       ?exec_event@Format_description_log_event@@UAEHPAUst_relay_log_info@@@Z 00532f40 f   log_event.obj
 0001:00132140       ?calc_server_version_split@Format_description_log_event@@QAEXXZ 00533140 f   log_event.obj
 0001:00132290       ?get_query_buffer_length@Load_log_event@@AAEIXZ 00533290 f   log_event.obj
 0001:00132310       ?print_query@Load_log_event@@AAEX_NPADPAPAD22@Z 00533310 f   log_event.obj
 0001:00132930       ?pack_info@Load_log_event@@UAEXPAVProtocol@@@Z 00533930 f   log_event.obj
 0001:00132a10       ?write_data_header@Load_log_event@@UAE_NPAUst_io_cache@@@Z 00533a10 f   log_event.obj
 0001:00132ad0       ?write_data_body@Load_log_event@@UAE_NPAUst_io_cache@@@Z 00533ad0 f   log_event.obj
 0001:00132bf0       ??0Load_log_event@@QAE@PAVTHD@@PAVsql_exchange@@PBD2AAV?$List@VItem@@@@W4enum_duplicates@@_N5@Z 00533bf0 f   log_event.obj
 0001:001330c0       ??0Load_log_event@@QAE@PBDIPBVFormat_description_log_event@@@Z 005340c0 f   log_event.obj
 0001:00133280       ?copy_log_event@Load_log_event@@IAEHPBDKHPBVFormat_description_log_event@@@Z 00534280 f   log_event.obj
 0001:00133530       ?set_fields@Load_log_event@@QAEXPBDAAV?$List@VItem@@@@PAUName_resolution_context@@@Z 00534530 f   log_event.obj
 0001:001335f0       ?exec_event@Load_log_event@@QAEHPAUst_net@@PAUst_relay_log_info@@_N@Z 005345f0 f   log_event.obj
 0001:00133f80       ?pack_info@Rotate_log_event@@UAEXPAVProtocol@@@Z 00534f80 f   log_event.obj
 0001:001340d0       ??0Rotate_log_event@@QAE@PAVTHD@@PBDI_KI@Z 005350d0 f   log_event.obj
 0001:001342a0       ??0Rotate_log_event@@QAE@PBDIPBVFormat_description_log_event@@@Z 005352a0 f   log_event.obj
 0001:00134490       ?write@Rotate_log_event@@UAE_NPAUst_io_cache@@@Z 00535490 f   log_event.obj
 0001:00134570       ?exec_event@Rotate_log_event@@UAEHPAUst_relay_log_info@@@Z 00535570 f   log_event.obj
 0001:00134820       ?pack_info@Intvar_log_event@@UAEXPAVProtocol@@@Z 00535820 f   log_event.obj
 0001:00134920       ??0Intvar_log_event@@QAE@PBDPBVFormat_description_log_event@@@Z 00535920 f   log_event.obj
 0001:00134990       ?get_var_type_name@Intvar_log_event@@QAEPBDXZ 00535990 f   log_event.obj
 0001:001349e0       ?write@Intvar_log_event@@UAE_NPAUst_io_cache@@@Z 005359e0 f   log_event.obj
 0001:00134ab0       ?exec_event@Intvar_log_event@@UAEHPAUst_relay_log_info@@@Z 00535ab0 f   log_event.obj
 0001:00134b30       ?pack_info@Rand_log_event@@UAEXPAVProtocol@@@Z 00535b30 f   log_event.obj
 0001:00134c40       ??0Rand_log_event@@QAE@PBDPBVFormat_description_log_event@@@Z 00535c40 f   log_event.obj
 0001:00134cb0       ?write@Rand_log_event@@UAE_NPAUst_io_cache@@@Z 00535cb0 f   log_event.obj
 0001:00134d80       ?exec_event@Rand_log_event@@UAEHPAUst_relay_log_info@@@Z 00535d80 f   log_event.obj
 0001:00134dd0       ?pack_info@Xid_log_event@@UAEXPAVProtocol@@@Z 00535dd0 f   log_event.obj
 0001:00134ed0       ??0Xid_log_event@@QAE@PBDPBVFormat_description_log_event@@@Z 00535ed0 f   log_event.obj
 0001:00134f30       ?write@Xid_log_event@@UAE_NPAUst_io_cache@@@Z 00535f30 f   log_event.obj
 0001:00134fc0       ?exec_event@Xid_log_event@@UAEHPAUst_relay_log_info@@@Z 00535fc0 f   log_event.obj
 0001:00135040       ?pack_info@User_var_log_event@@UAEXPAVProtocol@@@Z 00536040 f   log_event.obj
 0001:00135420       ??0User_var_log_event@@QAE@PBDPBVFormat_description_log_event@@@Z 00536420 f   log_event.obj
 0001:00135510       ?write@User_var_log_event@@UAE_NPAUst_io_cache@@@Z 00536510 f   log_event.obj
 0001:001357a0       ?exec_event@User_var_log_event@@UAEHPAUst_relay_log_info@@@Z 005367a0 f   log_event.obj
 0001:00135bc0       ?pack_info@Slave_log_event@@UAEXPAVProtocol@@@Z 00536bc0 f   log_event.obj
 0001:00135d50       ??0Slave_log_event@@QAE@PAVTHD@@PAUst_relay_log_info@@@Z 00536d50 f   log_event.obj
 0001:00136040       ??1Slave_log_event@@UAE@XZ 00537040 f   log_event.obj
 0001:00136090       ?get_data_size@Slave_log_event@@UAEHXZ 00537090 f   log_event.obj
 0001:001360c0       ?write@Slave_log_event@@UAE_NPAUst_io_cache@@@Z 005370c0 f   log_event.obj
 0001:00136180       ?init_from_mem_pool@Slave_log_event@@IAEXH@Z 00537180 f   log_event.obj
 0001:00136230       ??0Slave_log_event@@QAE@PBDI@Z 00537230 f   log_event.obj
 0001:001362f0       ?exec_event@Slave_log_event@@UAEHPAUst_relay_log_info@@@Z 005372f0 f   log_event.obj
 0001:00136340       ?exec_event@Stop_log_event@@UAEHPAUst_relay_log_info@@@Z 00537340 f   log_event.obj
 0001:001363c0       ??0Create_file_log_event@@QAE@PAVTHD@@PAVsql_exchange@@PBD2AAV?$List@VItem@@@@W4enum_duplicates@@_NPADI5@Z 005373c0 f   log_event.obj
 0001:00136540       ?write_data_body@Create_file_log_event@@UAE_NPAUst_io_cache@@@Z 00537540 f   log_event.obj
 0001:001365f0       ?write_data_header@Create_file_log_event@@UAE_NPAUst_io_cache@@@Z 005375f0 f   log_event.obj
 0001:001366a0       ?write_base@Create_file_log_event@@QAE_NPAUst_io_cache@@@Z 005376a0 f   log_event.obj
 0001:00136700       ??0Create_file_log_event@@QAE@PBDIPBVFormat_description_log_event@@@Z 00537700 f   log_event.obj
 0001:00136980       ?pack_info@Create_file_log_event@@UAEXPAVProtocol@@@Z 00537980 f   log_event.obj
 0001:00136b10       ?exec_event@Create_file_log_event@@UAEHPAUst_relay_log_info@@@Z 00537b10 f   log_event.obj
 0001:00136f50       ??0Append_block_log_event@@QAE@PAVTHD@@PBDPADI_N@Z 00537f50 f   log_event.obj
 0001:00136fc0       ??0Append_block_log_event@@QAE@PBDIPBVFormat_description_log_event@@@Z 00537fc0 f   log_event.obj
 0001:00137140       ?write@Append_block_log_event@@UAE_NPAUst_io_cache@@@Z 00538140 f   log_event.obj
 0001:00137210       ?pack_info@Append_block_log_event@@UAEXPAVProtocol@@@Z 00538210 f   log_event.obj
 0001:001372d0       ?get_create_or_append@Append_block_log_event@@UBEHXZ 005382d0 f   log_event.obj
 0001:001372f0       ?exec_event@Append_block_log_event@@UAEHPAUst_relay_log_info@@@Z 005382f0 f   log_event.obj
 0001:00137630       ??0Delete_file_log_event@@QAE@PAVTHD@@PBD_N@Z 00538630 f   log_event.obj
 0001:00137690       ??0Delete_file_log_event@@QAE@PBDIPBVFormat_description_log_event@@@Z 00538690 f   log_event.obj
 0001:00137720       ?write@Delete_file_log_event@@UAE_NPAUst_io_cache@@@Z 00538720 f   log_event.obj
 0001:001377c0       ?pack_info@Delete_file_log_event@@UAEXPAVProtocol@@@Z 005387c0 f   log_event.obj
 0001:00137870       ?exec_event@Delete_file_log_event@@UAEHPAUst_relay_log_info@@@Z 00538870 f   log_event.obj
 0001:00137950       ??0Execute_load_log_event@@QAE@PAVTHD@@PBD_N@Z 00538950 f   log_event.obj
 0001:001379b0       ??0Execute_load_log_event@@QAE@PBDIPBVFormat_description_log_event@@@Z 005389b0 f   log_event.obj
 0001:00137a40       ?write@Execute_load_log_event@@UAE_NPAUst_io_cache@@@Z 00538a40 f   log_event.obj
 0001:00137ae0       ?pack_info@Execute_load_log_event@@UAEXPAVProtocol@@@Z 00538ae0 f   log_event.obj
 0001:00137b90       ?exec_event@Execute_load_log_event@@UAEHPAUst_relay_log_info@@@Z 00538b90 f   log_event.obj
 0001:00137f00       ??0Begin_load_query_log_event@@QAE@PAVTHD@@PBDPADI_N@Z 00538f00 f   log_event.obj
 0001:00137f70       ??0Begin_load_query_log_event@@QAE@PBDIPBVFormat_description_log_event@@@Z 00538f70 f   log_event.obj
 0001:00137fb0       ?get_create_or_append@Begin_load_query_log_event@@UBEHXZ 00538fb0 f   log_event.obj
 0001:00137fd0       ??0Execute_load_query_log_event@@QAE@PAVTHD@@PBDKIIW4enum_load_dup_handling@@_N3W4killed_state@1@@Z 00538fd0 f   log_event.obj
 0001:00138050       ??0Execute_load_query_log_event@@QAE@PBDIPBVFormat_description_log_event@@@Z 00539050 f   log_event.obj
 0001:00138150       ?get_post_header_size_for_derived@Execute_load_query_log_event@@UAEKXZ 00539150 f   log_event.obj
 0001:00138170       ?write_post_header_for_derived@Execute_load_query_log_event@@UAE_NPAUst_io_cache@@@Z 00539170 f   log_event.obj
 0001:00138230       ?pack_info@Execute_load_query_log_event@@UAEXPAVProtocol@@@Z 00539230 f   log_event.obj
 0001:001383a0       ?exec_event@Execute_load_query_log_event@@UAEHPAUst_relay_log_info@@@Z 005393a0 f   log_event.obj
 0001:001385b0       ?write_data@sql_ex_info@@QAE_NPAUst_io_cache@@@Z 005395b0 f   log_event.obj
 0001:00138800       ?init@sql_ex_info@@QAEPADPAD0_N@Z 00539800 f   log_event.obj
 0001:0013b7e0       ?inc_event_relay_log_pos@st_relay_log_info@@QAEXXZ 0053c7e0 f i log_event.obj
 0001:0013b820       ?store@Protocol@@QAE_NK@Z  0053c820 f i log_event.obj
 0001:0013b870       ??0Item_return_int@@QAE@PBDIW4enum_field_types@@@Z 0053c870 f i log_event.obj
 0001:0013b8e0       ?field_type@Item_return_int@@UBE?AW4enum_field_types@@XZ 0053c8e0 f i log_event.obj
 0001:0013b900       ??_GItem_return_int@@UAEPAXI@Z 0053c900 f i log_event.obj
 0001:0013b900       ??_EItem_return_int@@UAEPAXI@Z 0053c900 f i log_event.obj
 0001:0013b950       ??1Item_return_int@@UAE@XZ 0053c950 f i log_event.obj
 0001:0013b980       ?register_temp_buf@Log_event@@QAEXPAD@Z 0053c980 f i log_event.obj
 0001:0013b9b0       ??2Log_event@@SAPAXI@Z     0053c9b0 f i log_event.obj
 0001:0013b9e0       ??0Stop_log_event@@QAE@PBDPBVFormat_description_log_event@@@Z 0053c9e0 f i log_event.obj
 0001:0013ba30       ?next_query_id@@YA_KXZ     0053ca30 f i log_event.obj
 0001:0013ba90       ?set_time@THD@@QAEXJ@Z     0053ca90 f i log_event.obj
 0001:0013bae0       ?set_db@THD@@QAE_NPBDI@Z   0053cae0 f i log_event.obj
 0001:0013bc30       ?ignored_error_code@@YAHH@Z 0053cc30 f i log_event.obj
 0001:0013bca0       ?write@Muted_query_log_event@@UAE_NPAUst_io_cache@@@Z 0053cca0 f i log_event.obj
 0001:0013bcc0       ?write_post_header_for_derived@Muted_query_log_event@@UAE_NPAUst_io_cache@@@Z 0053ccc0 f i log_event.obj
 0001:0013bce0       ??_EMuted_query_log_event@@UAEPAXI@Z 0053cce0 f i log_event.obj
 0001:0013bce0       ??_GMuted_query_log_event@@UAEPAXI@Z 0053cce0 f i log_event.obj
 0001:0013bd40       ?check_fname_outside_temp_buf@Load_log_event@@QAEHXZ 0053cd40 f i log_event.obj
 0001:0013bd70       ??0sql_ex_info@@QAE@XZ     0053cd70 f i log_event.obj
 0001:0013bd90       ?get_db@Load_log_event@@UAEPBDXZ 0053cd90 f i log_event.obj
 0001:0013bdb0       ?exec_event@Load_log_event@@UAEHPAUst_relay_log_info@@@Z 0053cdb0 f i log_event.obj
 0001:0013be00       ?get_type_code@Load_log_event@@UAE?AW4Log_event_type@@XZ 0053ce00 f i log_event.obj
 0001:0013be50       ?new_format@sql_ex_info@@QAE_NXZ 0053ce50 f i log_event.obj
 0001:0013bf10       ?is_valid@Load_log_event@@UBE_NXZ 0053cf10 f i log_event.obj
 0001:0013bf40       ?get_data_size@Load_log_event@@UAEHXZ 0053cf40 f i log_event.obj
 0001:0013bfb0       ?data_size@sql_ex_info@@QAEHXZ 0053cfb0 f i log_event.obj
 0001:0013c040       ??_GLoad_log_event@@UAEPAXI@Z 0053d040 f i log_event.obj
 0001:0013c040       ??_ELoad_log_event@@UAEPAXI@Z 0053d040 f i log_event.obj
 0001:0013c0a0       ??1Load_log_event@@UAE@XZ  0053d0a0 f i log_event.obj
 0001:0013c100       ??0TABLE_LIST@@QAE@XZ      0053d100 f i log_event.obj
 0001:0013c120       ?resolve_in_table_list_only@Name_resolution_context@@QAEXPAUTABLE_LIST@@@Z 0053d120 f i log_event.obj
 0001:0013c160       ??1sql_exchange@@QAE@XZ    0053d160 f i log_event.obj
 0001:0013c190       ?notify_group_master_log_name_update@st_relay_log_info@@QAEXXZ 0053d190 f i log_event.obj
 0001:0013c1d0       ?is_valid@Slave_log_event@@UBE_NXZ 0053d1d0 f i log_event.obj
 0001:0013c200       ?get_type_code@Slave_log_event@@UAE?AW4Log_event_type@@XZ 0053d200 f i log_event.obj
 0001:0013c220       ??_GSlave_log_event@@UAEPAXI@Z 0053d220 f i log_event.obj
 0001:0013c220       ??_ESlave_log_event@@UAEPAXI@Z 0053d220 f i log_event.obj
 0001:0013c270       ?force_new_format@sql_ex_info@@QAEXXZ 0053d270 f i log_event.obj
 0001:0013c2a0       ?get_type_code@Create_file_log_event@@UAE?AW4Log_event_type@@XZ 0053d2a0 f i log_event.obj
 0001:0013c300       ?get_data_size@Create_file_log_event@@UAEHXZ 0053d300 f i log_event.obj
 0001:0013c380       ?is_valid@Create_file_log_event@@UBE_NXZ 0053d380 f i log_event.obj
 0001:0013c3e0       ??_ECreate_file_log_event@@UAEPAXI@Z 0053d3e0 f i log_event.obj
 0001:0013c3e0       ??_GCreate_file_log_event@@UAEPAXI@Z 0053d3e0 f i log_event.obj
 0001:0013c440       ??1Create_file_log_event@@UAE@XZ 0053d440 f i log_event.obj
 0001:0013c4a0       ?get_type_code@Append_block_log_event@@UAE?AW4Log_event_type@@XZ 0053d4a0 f i log_event.obj
 0001:0013c4c0       ?get_data_size@Append_block_log_event@@UAEHXZ 0053d4c0 f i log_event.obj
 0001:0013c4f0       ?is_valid@Append_block_log_event@@UBE_NXZ 0053d4f0 f i log_event.obj
 0001:0013c520       ?get_db@Append_block_log_event@@UAEPBDXZ 0053d520 f i log_event.obj
 0001:0013c540       ??_GAppend_block_log_event@@UAEPAXI@Z 0053d540 f i log_event.obj
 0001:0013c540       ??_EAppend_block_log_event@@UAEPAXI@Z 0053d540 f i log_event.obj
 0001:0013c590       ??1Append_block_log_event@@UAE@XZ 0053d590 f i log_event.obj
 0001:0013c5d0       ?get_type_code@Delete_file_log_event@@UAE?AW4Log_event_type@@XZ 0053d5d0 f i log_event.obj
 0001:0013c5f0       ?get_data_size@Delete_file_log_event@@UAEHXZ 0053d5f0 f i log_event.obj
 0001:0013c610       ?is_valid@Delete_file_log_event@@UBE_NXZ 0053d610 f i log_event.obj
 0001:0013c640       ?get_db@Delete_file_log_event@@UAEPBDXZ 0053d640 f i log_event.obj
 0001:0013c660       ??_EDelete_file_log_event@@UAEPAXI@Z 0053d660 f i log_event.obj
 0001:0013c660       ??_GDelete_file_log_event@@UAEPAXI@Z 0053d660 f i log_event.obj
 0001:0013c6b0       ??1Delete_file_log_event@@UAE@XZ 0053d6b0 f i log_event.obj
 0001:0013c6f0       ?get_type_code@Execute_load_log_event@@UAE?AW4Log_event_type@@XZ 0053d6f0 f i log_event.obj
 0001:0013c710       ?get_data_size@Execute_load_log_event@@UAEHXZ 0053d710 f i log_event.obj
 0001:0013c730       ?is_valid@Execute_load_log_event@@UBE_NXZ 0053d730 f i log_event.obj
 0001:0013c760       ?get_db@Execute_load_log_event@@UAEPBDXZ 0053d760 f i log_event.obj
 0001:0013c780       ??_GExecute_load_log_event@@UAEPAXI@Z 0053d780 f i log_event.obj
 0001:0013c780       ??_EExecute_load_log_event@@UAEPAXI@Z 0053d780 f i log_event.obj
 0001:0013c7d0       ??1Execute_load_log_event@@UAE@XZ 0053d7d0 f i log_event.obj
 0001:0013c810       ?get_type_code@Begin_load_query_log_event@@UAE?AW4Log_event_type@@XZ 0053d810 f i log_event.obj
 0001:0013c830       ??_GBegin_load_query_log_event@@UAEPAXI@Z 0053d830 f i log_event.obj
 0001:0013c830       ??_EBegin_load_query_log_event@@UAEPAXI@Z 0053d830 f i log_event.obj
 0001:0013c880       ??1Begin_load_query_log_event@@UAE@XZ 0053d880 f i log_event.obj
 0001:0013c8c0       ?get_type_code@Execute_load_query_log_event@@UAE?AW4Log_event_type@@XZ 0053d8c0 f i log_event.obj
 0001:0013c8e0       ?is_valid@Execute_load_query_log_event@@UBE_NXZ 0053d8e0 f i log_event.obj
 0001:0013c950       ??_EExecute_load_query_log_event@@UAEPAXI@Z 0053d950 f i log_event.obj
 0001:0013c950       ??_GExecute_load_query_log_event@@UAEPAXI@Z 0053d950 f i log_event.obj
 0001:0013c9b0       ??1Execute_load_query_log_event@@UAE@XZ 0053d9b0 f i log_event.obj
 0001:0013c9f0       ?is_empty@?$I_List@Vi_string_pair@@@@QAE_NXZ 0053d9f0 f i log_event.obj
 0001:0013ca20       ?is_empty@base_ilist@@QAE_NXZ 0053da20 f i log_event.obj
 0001:0013ca50       ??0?$I_List_iterator@Vi_string_pair@@@@QAE@AAV?$I_List@Vi_string_pair@@@@@Z 0053da50 f i log_event.obj
 0001:0013ca90       ??0base_ilist_iterator@@QAE@AAVbase_ilist@@@Z 0053da90 f i log_event.obj
 0001:0013cad0       ??E?$I_List_iterator@Vi_string_pair@@@@QAEPAVi_string_pair@@H@Z 0053dad0 f i log_event.obj
 0001:0013cb00       ?next@base_ilist_iterator@@QAEPAXXZ 0053db00 f i log_event.obj
 0001:0013cb60       __my_b_net_read            0053db60 f   mf_iocache.obj
 0001:0013cdc0       ?decimal_operation_results@@YAHH@Z 0053ddc0 f   my_decimal.obj
 0001:0013cf10       ?my_decimal2string@@YAHIPBVmy_decimal@@IIDPAVString@@@Z 0053df10 f   my_decimal.obj
 0001:0013d000       ?my_decimal2binary@@YAHIPBVmy_decimal@@PADHH@Z 0053e000 f   my_decimal.obj
 0001:0013d0e0       ?str2my_decimal@@YAHIPBDIPAUcharset_info_st@@PAVmy_decimal@@@Z 0053e0e0 f   my_decimal.obj
 0001:0013d280       ?date2my_decimal@@YAPAVmy_decimal@@PAUst_mysql_time@@PAV1@@Z 0053e280 f   my_decimal.obj
 0001:0013d380       ?print_decimal@@YAXPBVmy_decimal@@@Z 0053e380 f   my_decimal.obj
 0001:0013d410       ?print_decimal_buff@@YAXPBVmy_decimal@@PBEH@Z 0053e410 f   my_decimal.obj
 0001:0013d4a0       ?dbug_decimal_as_string@@YAPBDPADPBVmy_decimal@@@Z 0053e4a0 f   my_decimal.obj
 0001:0013d700       ?my_decimal_string_length@@YAHPBVmy_decimal@@@Z 0053e700 f i my_decimal.obj
 0001:0013d760       _calc_days_in_year         0053e760 f   my_time.obj
 0001:0013d7b0       _check_date                0053e7b0 f   my_time.obj
 0001:0013d860       _str_to_datetime           0053e860 f   my_time.obj
 0001:0013e3d0       _str_to_time               0053f3d0 f   my_time.obj
 0001:0013eac0       _check_time_range          0053fac0 f   my_time.obj
 0001:0013eb90       _my_init_time              0053fb90 f   my_time.obj
 0001:0013eca0       _year_2000_handling        0053fca0 f   my_time.obj
 0001:0013ecd0       _calc_daynr                0053fcd0 f   my_time.obj
 0001:0013eea0       _my_system_gmt_sec         0053fea0 f   my_time.obj
 0001:0013f260       _set_zero_time             00540260 f   my_time.obj
 0001:0013f290       _my_time_to_str            00540290 f   my_time.obj
 0001:0013f310       _my_date_to_str            00540310 f   my_time.obj
 0001:0013f350       _my_datetime_to_str        00540350 f   my_time.obj
 0001:0013f3a0       _my_TIME_to_str            005403a0 f   my_time.obj
 0001:0013f450       _number_to_datetime        00540450 f   my_time.obj
 0001:0013f7a0       _TIME_to_ulonglong_datetime 005407a0 f   my_time.obj
 0001:0013f7f0       _TIME_to_ulonglong_date    005407f0 f   my_time.obj
 0001:0013f820       _TIME_to_ulonglong_time    00540820 f   my_time.obj
 0001:0013f850       _TIME_to_ulonglong         00540850 f   my_time.obj
 0001:00140160       _myrg_rnext_same           00541160 f   myrg_rnext_same.obj
 0001:00140270       ?kill_mysql@@YAXXZ         00541270 f   mysqld.obj
 0001:001403d0       _kill_server_thread        005413d0 f   mysqld.obj
 0001:00140c10       _print_signal_warning      00541c10 f   mysqld.obj
 0001:00140c50       ?unireg_end@@YAXXZ         00541c50 f   mysqld.obj
 0001:00140c80       _unireg_abort              00541c80 f   mysqld.obj
 0001:00141490       ?close_connection@@YAXPAVTHD@@I_N@Z 00542490 f   mysqld.obj
 0001:00141670       _end_thread_signal         00542670 f   mysqld.obj
 0001:00141790       ?end_thread@@YAXPAVTHD@@_N@Z 00542790 f   mysqld.obj
 0001:00141aa0       ?flush_thread_cache@@YAXXZ 00542aa0 f   mysqld.obj
 0001:00141b20       ?win_install_sigabrt_handler@@YAXXZ 00542b20 f   mysqld.obj
 0001:00141b30       ?my_unhandler_exception_filter@@YGJPAU_EXCEPTION_POINTERS@@@Z 00542b30 f   mysqld.obj
 0001:00141c70       _handle_segfault           00542c70 f   mysqld.obj
 0001:00141f60       _handle_shutdown           00542f60 f   mysqld.obj
 0001:00142010       ?decrement_handler_count@@YAXXZ 00543010 f   mysqld.obj
 0001:00142070       ?win_main@@YAHHPAPAD@Z     00543070 f   mysqld.obj
 0001:00144700       ?mysql_service@@YAHPAX@Z   00545700 f   mysqld.obj
 0001:00144750       _main                      00545750 f   mysqld.obj
 0001:00145090       _handle_connections_sockets 00546090 f   mysqld.obj
 0001:00145ab0       _handle_connections_namedpipes 00546ab0 f   mysqld.obj
 0001:00145e10       _handle_connections_shared_memory 00546e10 f   mysqld.obj
 0001:001488e0       ?fn_format_relative_to_data_home@@YA_NPADPBD11@Z 005498e0 f   mysqld.obj
 0001:00149320       ?refresh_status@@YAXPAVTHD@@@Z 0054a320 f   mysqld.obj
 0001:0014b890       ?IsNT@NTService@@QAEHXZ    0054c890 f i mysqld.obj
 0001:0014b8b0       ?SetShutdownEvent@NTService@@QAEXPAX@Z 0054c8b0 f i mysqld.obj
 0001:0014b8e0       ?open_query_log@MYSQL_LOG@@QAE_NPBD@Z 0054c8e0 f i mysqld.obj
 0001:0014b9b0       ?open_slow_log@MYSQL_LOG@@QAE_NPBD@Z 0054c9b0 f i mysqld.obj
 0001:0014ba80       ?result_size_limit@Query_cache@@QAEXK@Z 0054ca80 f i mysqld.obj
 0001:0014bab0       ??2ilink@@SAPAXI@Z         0054cab0 f i mysqld.obj
 0001:0014bae0       ??0i_string@@QAE@PAD@Z     0054cae0 f i mysqld.obj
 0001:0014bb30       ??0ilink@@QAE@XZ           0054cb30 f i mysqld.obj
 0001:0014bb70       ??_Gilink@@UAEPAXI@Z       0054cb70 f i mysqld.obj
 0001:0014bb70       ??_Eilink@@UAEPAXI@Z       0054cb70 f i mysqld.obj
 0001:0014bbc0       ??3ilink@@SAXPAXI@Z        0054cbc0 f i mysqld.obj
 0001:0014bbf0       ??1ilink@@UAE@XZ           0054cbf0 f i mysqld.obj
 0001:0014bc30       ?unlink@ilink@@QAEXXZ      0054cc30 f i mysqld.obj
 0001:0014bca0       ??_Gi_string@@UAEPAXI@Z    0054cca0 f i mysqld.obj
 0001:0014bca0       ??_Ei_string@@UAEPAXI@Z    0054cca0 f i mysqld.obj
 0001:0014bcf0       ??1i_string@@UAE@XZ        0054ccf0 f i mysqld.obj
 0001:0014bd20       ??0i_string_pair@@QAE@PAD0@Z 0054cd20 f i mysqld.obj
 0001:0014bd80       ??_Gi_string_pair@@UAEPAXI@Z 0054cd80 f i mysqld.obj
 0001:0014bd80       ??_Ei_string_pair@@UAEPAXI@Z 0054cd80 f i mysqld.obj
 0001:0014bdd0       ??1i_string_pair@@UAE@XZ   0054cdd0 f i mysqld.obj
 0001:0014be00       ?empty@?$I_List@VNAMED_LIST@@@@QAEXXZ 0054ce00 f i mysqld.obj
 0001:0014be30       ?empty@base_ilist@@QAEXXZ  0054ce30 f i mysqld.obj
 0001:0014be60       ?empty@?$I_List@VTHD@@@@QAEXXZ 0054ce60 f i mysqld.obj
 0001:0014be90       ?append@?$I_List@VTHD@@@@QAEXPAVTHD@@@Z 0054ce90 f i mysqld.obj
 0001:0014bed0       ?append@base_ilist@@QAEXPAUilink@@@Z 0054ced0 f i mysqld.obj
 0001:0014bf20       ?get@?$I_List@VTHD@@@@QAEPAVTHD@@XZ 0054cf20 f i mysqld.obj
 0001:0014bf50       ?get@base_ilist@@QAEPAUilink@@XZ 0054cf50 f i mysqld.obj
 0001:0014bfb0       ?empty@?$I_List@Vi_string@@@@QAEXXZ 0054cfb0 f i mysqld.obj
 0001:0014bfe0       ?push_back@?$I_List@Vi_string@@@@QAEXPAVi_string@@@Z 0054cfe0 f i mysqld.obj
 0001:0014c020       ?push_back@base_ilist@@QAEXPAUilink@@@Z 0054d020 f i mysqld.obj
 0001:0014c080       ?empty@?$I_List@Vi_string_pair@@@@QAEXXZ 0054d080 f i mysqld.obj
 0001:0014c0b0       ?push_back@?$I_List@Vi_string_pair@@@@QAEXPAVi_string_pair@@@Z 0054d0b0 f i mysqld.obj
 0001:0014c0f0       ??0?$I_List_iterator@VTHD@@@@QAE@AAV?$I_List@VTHD@@@@@Z 0054d0f0 f i mysqld.obj
 0001:0014c130       ??E?$I_List_iterator@VTHD@@@@QAEPAVTHD@@H@Z 0054d130 f i mysqld.obj
 0001:0014c160       ??0?$I_List@VTHD@@@@QAE@XZ 0054d160 f i mysqld.obj
 0001:0014c190       ??0base_ilist@@QAE@XZ      0054d190 f i mysqld.obj
 0001:0014c1d0       ??0Eq_creator@@QAE@XZ      0054d1d0 f i mysqld.obj
 0001:0014c210       ??0Comp_creator@@QAE@XZ    0054d210 f i mysqld.obj
 0001:0014c240       ??_EComp_creator@@UAEPAXI@Z 0054d240 f i mysqld.obj
 0001:0014c240       ??_GComp_creator@@UAEPAXI@Z 0054d240 f i mysqld.obj
 0001:0014c290       ??1Comp_creator@@UAE@XZ    0054d290 f i mysqld.obj
 0001:0014c2c0       ?symbol@Eq_creator@@UBEPBD_N@Z 0054d2c0 f i mysqld.obj
 0001:0014c310       ?eqne_op@Eq_creator@@UBE_NXZ 0054d310 f i mysqld.obj
 0001:0014c330       ?l_op@Eq_creator@@UBE_NXZ  0054d330 f i mysqld.obj
 0001:0014c350       ??_GEq_creator@@UAEPAXI@Z  0054d350 f i mysqld.obj
 0001:0014c350       ??_EEq_creator@@UAEPAXI@Z  0054d350 f i mysqld.obj
 0001:0014c3a0       ??1Eq_creator@@UAE@XZ      0054d3a0 f i mysqld.obj
 0001:0014c3e0       ??0Ne_creator@@QAE@XZ      0054d3e0 f i mysqld.obj
 0001:0014c420       ?symbol@Ne_creator@@UBEPBD_N@Z 0054d420 f i mysqld.obj
 0001:0014c470       ?eqne_op@Ne_creator@@UBE_NXZ 0054d470 f i mysqld.obj
 0001:0014c490       ?l_op@Ne_creator@@UBE_NXZ  0054d490 f i mysqld.obj
 0001:0014c4b0       ??_ENe_creator@@UAEPAXI@Z  0054d4b0 f i mysqld.obj
 0001:0014c4b0       ??_GNe_creator@@UAEPAXI@Z  0054d4b0 f i mysqld.obj
 0001:0014c500       ??1Ne_creator@@UAE@XZ      0054d500 f i mysqld.obj
 0001:0014c540       ??0Gt_creator@@QAE@XZ      0054d540 f i mysqld.obj
 0001:0014c580       ?symbol@Gt_creator@@UBEPBD_N@Z 0054d580 f i mysqld.obj
 0001:0014c5d0       ?eqne_op@Gt_creator@@UBE_NXZ 0054d5d0 f i mysqld.obj
 0001:0014c5f0       ?l_op@Gt_creator@@UBE_NXZ  0054d5f0 f i mysqld.obj
 0001:0014c610       ??_GGt_creator@@UAEPAXI@Z  0054d610 f i mysqld.obj
 0001:0014c610       ??_EGt_creator@@UAEPAXI@Z  0054d610 f i mysqld.obj
 0001:0014c660       ??1Gt_creator@@UAE@XZ      0054d660 f i mysqld.obj
 0001:0014c6a0       ??0Lt_creator@@QAE@XZ      0054d6a0 f i mysqld.obj
 0001:0014c6e0       ?symbol@Lt_creator@@UBEPBD_N@Z 0054d6e0 f i mysqld.obj
 0001:0014c730       ?eqne_op@Lt_creator@@UBE_NXZ 0054d730 f i mysqld.obj
 0001:0014c750       ?l_op@Lt_creator@@UBE_NXZ  0054d750 f i mysqld.obj
 0001:0014c770       ??_ELt_creator@@UAEPAXI@Z  0054d770 f i mysqld.obj
 0001:0014c770       ??_GLt_creator@@UAEPAXI@Z  0054d770 f i mysqld.obj
 0001:0014c7c0       ??1Lt_creator@@UAE@XZ      0054d7c0 f i mysqld.obj
 0001:0014c800       ??0Ge_creator@@QAE@XZ      0054d800 f i mysqld.obj
 0001:0014c840       ?symbol@Ge_creator@@UBEPBD_N@Z 0054d840 f i mysqld.obj
 0001:0014c890       ?eqne_op@Ge_creator@@UBE_NXZ 0054d890 f i mysqld.obj
 0001:0014c8b0       ?l_op@Ge_creator@@UBE_NXZ  0054d8b0 f i mysqld.obj
 0001:0014c8d0       ??_EGe_creator@@UAEPAXI@Z  0054d8d0 f i mysqld.obj
 0001:0014c8d0       ??_GGe_creator@@UAEPAXI@Z  0054d8d0 f i mysqld.obj
 0001:0014c920       ??1Ge_creator@@UAE@XZ      0054d920 f i mysqld.obj
 0001:0014c960       ??0Le_creator@@QAE@XZ      0054d960 f i mysqld.obj
 0001:0014c9a0       ?symbol@Le_creator@@UBEPBD_N@Z 0054d9a0 f i mysqld.obj
 0001:0014c9f0       ?eqne_op@Le_creator@@UBE_NXZ 0054d9f0 f i mysqld.obj
 0001:0014ca10       ?l_op@Le_creator@@UBE_NXZ  0054da10 f i mysqld.obj
 0001:0014ca30       ??_ELe_creator@@UAEPAXI@Z  0054da30 f i mysqld.obj
 0001:0014ca30       ??_GLe_creator@@UAEPAXI@Z  0054da30 f i mysqld.obj
 0001:0014ca80       ??1Le_creator@@UAE@XZ      0054da80 f i mysqld.obj
 0001:0014cac0       ??0?$I_List@Vi_string_pair@@@@QAE@XZ 0054dac0 f i mysqld.obj
 0001:0014caf0       ??0?$I_List@Vi_string@@@@QAE@XZ 0054daf0 f i mysqld.obj
 0001:0014cb20       ??0?$I_List@VNAMED_LIST@@@@QAE@XZ 0054db20 f i mysqld.obj
 0001:0014cb50       ??0File_parser_dummy_hook@@QAE@XZ 0054db50 f i mysqld.obj
 0001:0014cb90       ??0Unknown_key_hook@@QAE@XZ 0054db90 f i mysqld.obj
 0001:0014cbc0       ??_GUnknown_key_hook@@UAEPAXI@Z 0054dbc0 f i mysqld.obj
 0001:0014cbc0       ??_EUnknown_key_hook@@UAEPAXI@Z 0054dbc0 f i mysqld.obj
 0001:0014cc10       ??1Unknown_key_hook@@UAE@XZ 0054dc10 f i mysqld.obj
 0001:0014cc40       ??_EFile_parser_dummy_hook@@UAEPAXI@Z 0054dc40 f i mysqld.obj
 0001:0014cc40       ??_GFile_parser_dummy_hook@@UAEPAXI@Z 0054dc40 f i mysqld.obj
 0001:0014cc90       ??1File_parser_dummy_hook@@UAE@XZ 0054dc90 f i mysqld.obj
 0001:0014ccc0       ??1?$I_List@VTHD@@@@QAE@XZ 0054dcc0 f i mysqld.obj
 0001:0014ccf0       ??1base_ilist@@QAE@XZ      0054dcf0 f i mysqld.obj
 0001:0014cd20       ??1?$I_List@Vi_string_pair@@@@QAE@XZ 0054dd20 f i mysqld.obj
 0001:0014cd50       ??1?$I_List@Vi_string@@@@QAE@XZ 0054dd50 f i mysqld.obj
 0001:0014cd80       ??1?$I_List@VNAMED_LIST@@@@QAE@XZ 0054dd80 f i mysqld.obj
 0001:0014cdb0       _my_net_init               0054ddb0 f   net_serv.obj
 0001:0014cfe0       _net_end                   0054dfe0 f   net_serv.obj
 0001:0014d0e0       _net_realloc               0054e0e0 f   net_serv.obj
 0001:0014d300       _net_clear                 0054e300 f   net_serv.obj
 0001:0014d5e0       _net_flush                 0054e5e0 f   net_serv.obj
 0001:0014d720       _my_net_write              0054e720 f   net_serv.obj
 0001:0014d8a0       _net_write_command         0054e8a0 f   net_serv.obj
 0001:0014dcf0       _net_real_write            0054ecf0 f   net_serv.obj
 0001:0014e0f0       _my_net_read               0054f0f0 f   net_serv.obj
 0001:0014e9c0       _my_net_set_read_timeout   0054f9c0 f   net_serv.obj
 0001:0014eb00       _my_net_set_write_timeout  0054fb00 f   net_serv.obj
 0001:0014f3e0       ??0NTService@@QAE@XZ       005503e0 f   nt_servc.obj
 0001:0014f510       ??1NTService@@QAE@XZ       00550510 f   nt_servc.obj
 0001:0014f560       ?GetOS@NTService@@QAEHXZ   00550560 f   nt_servc.obj
 0001:0014f5e0       ?Init@NTService@@QAEJPBDPAX@Z 005505e0 f   nt_servc.obj
 0001:0014f6d0       ?Install@NTService@@QAEHHPBD0000@Z 005506d0 f   nt_servc.obj
 0001:0014f870       ?Remove@NTService@@QAEHPBD@Z 00550870 f   nt_servc.obj
 0001:0014f990       ?Stop@NTService@@QAEXXZ    00550990 f   nt_servc.obj
 0001:0014f9e0       ?ServiceMain@NTService@@KAXKPAPAD@Z 005509e0 f   nt_servc.obj
 0001:0014fb90       ?StartServiceA@NTService@@IAEHXZ 00550b90 f   nt_servc.obj
 0001:0014fbf0       ?StopService@NTService@@IAEXXZ 00550bf0 f   nt_servc.obj
 0001:0014fc60       ?PauseService@NTService@@IAEXXZ 00550c60 f   nt_servc.obj
 0001:0014fcb0       ?ResumeService@NTService@@IAEXXZ 00550cb0 f   nt_servc.obj
 0001:0014fd00       ?SetStatus@NTService@@IAEHKKKKK@Z 00550d00 f   nt_servc.obj
 0001:0014fdf0       ?ServiceCtrlHandler@NTService@@KAXK@Z 00550df0 f   nt_servc.obj
 0001:0014fe90       ?Exit@NTService@@IAEXK@Z   00550e90 f   nt_servc.obj
 0001:0014ff00       ?SeekStatus@NTService@@QAEHPBDH@Z 00550f00 f   nt_servc.obj
 0001:00150170       ?IsService@NTService@@QAEHPBD@Z 00551170 f   nt_servc.obj
 0001:00150220       ?got_service_option@NTService@@QAEHPAPADPAD@Z 00551220 f   nt_servc.obj
 0001:00150290       ?is_super_user@NTService@@QAEHXZ 00551290 f   nt_servc.obj
