 mysqlmanager

 Timestamp is 4896fdcd (Mon Aug 04 14:02:05 2008)

 Preferred load address is 00400000

 Start         Length     Name                   Class
 0001:00000000 00099b32H .text                   CODE
 0001:00099b40 00001078H .text$yc                CODE
 0002:00000000 00018b70H .rdata                  DATA
 0002:00018b70 000001b2H .rdata$debug            DATA
 0002:00018d24 00001f55H .rdata$r                DATA
 0002:0001ac80 00000109H .rdata$sxdata           DATA
 0002:0001ad8c 00000104H .rtc$IAA                DATA
 0002:0001ae90 00000104H .rtc$IZZ                DATA
 0002:0001af94 00000104H .rtc$TAA                DATA
 0002:0001b098 00000104H .rtc$TZZ                DATA
 0002:0001b19c 00000000H .edata                  DATA
 0003:00000000 00000104H .CRT$XCA                DATA
 0003:00000104 00000104H .CRT$XCAA               DATA
 0003:00000208 00000109H .CRT$XCU                DATA
 0003:00000314 00000104H .CRT$XCZ                DATA
 0003:00000418 00000104H .CRT$XIA                DATA
 0003:0000051c 00000113H .CRT$XIC                DATA
 0003:00000630 00000104H .CRT$XIZ                DATA
 0003:00000734 00000004H .CRT$XLA                DATA
 0003:00000738 00000004H .CRT$XLZ                DATA
 0003:0000073c 00000104H .CRT$XPA                DATA
 0003:00000840 00000109H .CRT$XPX                DATA
 0003:0000094c 00000104H .CRT$XPZ                DATA
 0003:00000a50 00000104H .CRT$XTA                DATA
 0003:00000b54 00000104H .CRT$XTZ                DATA
 0003:00000c60 0012e260H .data                   DATA
 0003:0012eec0 00003e24H .bss                    DATA
 0004:00000000 00000050H .idata$2                DATA
 0004:00000050 00000014H .idata$3                DATA
 0004:00000064 000003d0H .idata$4                DATA
 0004:00000434 000003d0H .idata$5                DATA
 0004:00000804 00000cb4H .idata$6                DATA
 0005:00000000 00000101H .tls                    DATA
 0005:00000108 00000186H .tls$                   DATA
 0005:0000028e 00000101H .tls$ZZZ                DATA

  Address         Publics by Value              Rva+Base     Lib:Object

 0000:00000000       __except_list              00000000     <absolute>
 0000:00000002       ___safe_se_handler_count   00000002     <absolute>
 0000:0000002c       __tls_array                0000002c     <absolute>
 0001:00000ae0       ?reserve@Buffer@@QAEHII@Z  00401ae0 f   buffer.obj
 0001:00000bb0       ?get_size@Buffer@@QAEHXZ   00401bb0 f   buffer.obj
 0001:00000bc0       ?is_error@Buffer@@QAEHXZ   00401bc0 f   buffer.obj
 0001:00000bd0       ?append@Buffer@@QAEHIPBDI@Z 00401bd0 f   buffer.obj
 0001:00000c20       ??0Command@@QAE@PAVInstance_map@@@Z 00401c20 f   command.obj
 0001:00000c40       ??1Command@@UAE@XZ         00401c40 f   command.obj
 0001:00000c50       ??_GCommand@@UAEPAXI@Z     00401c50 f i command.obj
 0001:00000c50       ??_ECommand@@UAEPAXI@Z     00401c50 f i command.obj
 0001:00000c80       ??0Buffer@@QAE@I@Z         00401c80 f i commands.obj
 0001:00000cc0       ??1Buffer@@QAE@XZ          00401cc0 f i commands.obj
 0001:00000cd0       ??0Iterator@Instance_map@@QAE@PAV1@@Z 00401cd0 f i commands.obj
 0001:00000cf0       ?execute@Show_instances@@UAEHPAUst_net@@K@Z 00401cf0 f   commands.obj
 0001:00000ec0       ?execute@Flush_instances@@UAEHPAUst_net@@K@Z 00401ec0 f   commands.obj
 0001:00000f00       ??0Show_instance_status@@QAE@PAVInstance_map@@PBDI@Z 00401f00 f   commands.obj
 0001:00000f60       ?execute@Show_instance_status@@UAEHPAUst_net@@K@Z 00401f60 f   commands.obj
 0001:000011b0       ??0Show_instance_options@@QAE@PAVInstance_map@@PBDI@Z 004021b0 f   commands.obj
 0001:00001210       ?execute@Show_instance_options@@UAEHPAUst_net@@K@Z 00402210 f   commands.obj
 0001:000015c0       ??0Start_instance@@QAE@PAVInstance_map@@PBDI@Z 004025c0 f   commands.obj
 0001:00001610       ?execute@Start_instance@@UAEHPAUst_net@@K@Z 00402610 f   commands.obj
 0001:00001680       ??0Show_instance_log@@QAE@PAVInstance_map@@PBDIW4Log_type@@11@Z 00402680 f   commands.obj
 0001:00001720       ?execute@Show_instance_log@@UAEHPAUst_net@@K@Z 00402720 f   commands.obj
 0001:00001a40       ??0Show_instance_log_files@@QAE@PAVInstance_map@@PBDI@Z 00402a40 f   commands.obj
 0001:00001aa0       ?execute@Show_instance_log_files@@UAEHPAUst_net@@K@Z 00402aa0 f   commands.obj
 0001:00001dd0       ??0Set_option@@QAE@PAVInstance_map@@PBDI1I1I@Z 00402dd0 f   commands.obj
 0001:00001ea0       ??_GSet_option@@UAEPAXI@Z  00402ea0 f i commands.obj
 0001:00001ea0       ??_ESet_option@@UAEPAXI@Z  00402ea0 f i commands.obj
 0001:00001ed0       ?correct_file@Set_option@@IAEHH@Z 00402ed0 f   commands.obj
 0001:00001f10       ?do_command@Set_option@@UAEHPAUst_net@@@Z 00402f10 f   commands.obj
 0001:00001f70       ?execute@Set_option@@UAEHPAUst_net@@K@Z 00402f70 f   commands.obj
 0001:00001fc0       ?do_command@Unset_option@@UAEHPAUst_net@@@Z 00402fc0 f   commands.obj
 0001:00002000       ??0Stop_instance@@QAE@PAVInstance_map@@PBDI@Z 00403000 f   commands.obj
 0001:00002050       ?execute@Stop_instance@@UAEHPAUst_net@@K@Z 00403050 f   commands.obj
 0001:000020c0       ?execute@Syntax_error@@UAEHPAUst_net@@K@Z 004030c0 f   commands.obj
 0001:000020d0       ??_GShow_instance_status@@UAEPAXI@Z 004030d0 f i commands.obj
 0001:000020d0       ??_EShow_instance_status@@UAEPAXI@Z 004030d0 f i commands.obj
 0001:00002100       ??_GShow_instance_options@@UAEPAXI@Z 00403100 f i commands.obj
 0001:00002100       ??_EShow_instance_options@@UAEPAXI@Z 00403100 f i commands.obj
 0001:00002130       ??_GStart_instance@@UAEPAXI@Z 00403130 f i commands.obj
 0001:00002130       ??_EStart_instance@@UAEPAXI@Z 00403130 f i commands.obj
 0001:00002160       ??_GShow_instance_log@@UAEPAXI@Z 00403160 f i commands.obj
 0001:00002160       ??_EShow_instance_log@@UAEPAXI@Z 00403160 f i commands.obj
 0001:00002190       ??_GShow_instance_log_files@@UAEPAXI@Z 00403190 f i commands.obj
 0001:00002190       ??_EShow_instance_log_files@@UAEPAXI@Z 00403190 f i commands.obj
 0001:000021c0       ??_EStop_instance@@UAEPAXI@Z 004031c0 f i commands.obj
 0001:000021c0       ??_GStop_instance@@UAEPAXI@Z 004031c0 f i commands.obj
 0001:000021f0       ??0Guardian_thread_args@@QAE@AAVThread_registry@@PAVInstance_map@@I@Z 004031f0 f i guardian.obj
 0001:00002210       ??0Guardian_thread@@QAE@AAVThread_registry@@PAVInstance_map@@I@Z 00403210 f   guardian.obj
 0001:000022a0       ??1Guardian_thread@@QAE@XZ 004032a0 f   guardian.obj
 0001:000022f0       ?process_instance@Guardian_thread@@AAEXPAVInstance@@PAUGUARD_NODE@1@PAPAUst_list@@PAU4@@Z 004032f0 f   guardian.obj
 0001:00002560       ?run@Guardian_thread@@QAEXXZ 00403560 f   guardian.obj
 0001:000026a0       ?is_stopped@Guardian_thread@@QAEHXZ 004036a0 f   guardian.obj
 0001:000026d0       ?guard@Guardian_thread@@QAEHPAVInstance@@_N@Z 004036d0 f   guardian.obj
 0001:00002790       ?stop_guard@Guardian_thread@@QAEHPAVInstance@@@Z 00403790 f   guardian.obj
 0001:00002800       ?stop_instances@Guardian_thread@@AAEHXZ 00403800 f   guardian.obj
 0001:00002880       ?lock@Guardian_thread@@QAEXXZ 00403880 f   guardian.obj
 0001:00002890       ?unlock@Guardian_thread@@QAEXXZ 00403890 f   guardian.obj
 0001:000028a0       _guardian                  004038a0 f   guardian.obj
 0001:000028b0       ?request_shutdown@Guardian_thread@@QAEXXZ 004038b0 f   guardian.obj
 0001:000028e0       ?init@Guardian_thread@@QAEHXZ 004038e0 f   guardian.obj
 0001:000029e0       ??0Instance_options@@QAE@XZ 004039e0 f i instance.obj
 0001:00002c40       ?get_map@Instance@@QAEPAVInstance_map@@XZ 00403c40 f   instance.obj
 0001:00002c50       ?remove_pid@Instance@@AAEXXZ 00403c50 f   instance.obj
 0001:00002c90       ?set_crash_flag_n_wake_all@Instance@@QAEXXZ 00403c90 f   instance.obj
 0001:00002cf0       ??0Instance@@QAE@XZ        00403cf0 f   instance.obj
 0001:00002d90       ??1Instance@@QAE@XZ        00403d90 f   instance.obj
 0001:00002dc0       ?is_crashed@Instance@@QAEHXZ 00403dc0 f   instance.obj
 0001:00002df0       ?is_running@Instance@@QAE_NXZ 00403df0 f   instance.obj
 0001:00002f30       ?SafeTerminateProcess@@YAHPAXI@Z 00403f30 f   instance.obj
 0001:00003070       ?kill@@YAHHH@Z             00404070 f   instance.obj
 0001:000030b0       ?kill_instance@Instance@@QAEXH@Z 004040b0 f   instance.obj
 0001:00003130       ?init@Instance@@QAEHPBD@Z  00404130 f   instance.obj
 0001:00003140       ?complete_initialization@Instance@@QAEHPAVInstance_map@@PBDI@Z 00404140 f   instance.obj
 0001:00003280       ?stop@Instance@@QAEHXZ     00404280 f   instance.obj
 0001:000033e0       _proxy                     004043e0 f   instance.obj
 0001:00003400       ?start@Instance@@QAEHXZ    00404400 f   instance.obj
 0001:00003520       ??_GInstance@@QAEPAXI@Z    00404520 f i instance_map.obj
 0001:00003550       ?process_one_option@Instance_map@@QAEHPBD0@Z 00404550 f   instance_map.obj
 0001:00003660       ??0Instance_map@@QAE@PBD@Z 00404660 f   instance_map.obj
 0001:00003680       ??1Instance_map@@QAE@XZ    00404680 f   instance_map.obj
 0001:000036c0       ?lock@Instance_map@@QAEXXZ 004046c0 f   instance_map.obj
 0001:000036d0       ?unlock@Instance_map@@QAEXXZ 004046d0 f   instance_map.obj
 0001:000036e0       ?find@Instance_map@@QAEPAVInstance@@PBDI@Z 004046e0 f   instance_map.obj
 0001:00003730       ?complete_initialization@Instance_map@@AAEHXZ 00404730 f   instance_map.obj
 0001:00003810       ?go_to_first@Iterator@Instance_map@@QAEXXZ 00404810 f   instance_map.obj
 0001:00003820       ?next@Iterator@Instance_map@@QAEPAVInstance@@XZ 00404820 f   instance_map.obj
 0001:000038a0       ?init@Instance_map@@QAEHXZ 004048a0 f   instance_map.obj
 0001:000038e0       ?load@Instance_map@@AAEHXZ 004048e0 f   instance_map.obj
 0001:000039f0       ?flush_instances@Instance_map@@QAEHXZ 004049f0 f   instance_map.obj
 0001:00003b00       ?get_default_option@Instance_options@@AAEHPADIPBD@Z 00404b00 f   instance_options.obj
 0001:00003bf0       ?fill_instance_version@Instance_options@@AAEHXZ 00404bf0 f   instance_options.obj
 0001:00003d60       ?fill_mysqld_real_path@Instance_options@@AAEHXZ 00404d60 f   instance_options.obj
 0001:00003f00       ?fill_log_options@Instance_options@@AAEHXZ 00404f00 f   instance_options.obj
 0001:000042a0       ?get_pid_filename@Instance_options@@QAEHPAD@Z 004052a0 f   instance_options.obj
 0001:00004380       ?unlink_pidfile@Instance_options@@QAEHXZ 00405380 f   instance_options.obj
 0001:00004390       ?get_pid@Instance_options@@QAEHXZ 00405390 f   instance_options.obj
 0001:00004400       ?add_option@Instance_options@@QAEHPBD@Z 00405400 f   instance_options.obj
 0001:00004680       ?add_to_argv@Instance_options@@AAEHPBD@Z 00405680 f   instance_options.obj
 0001:000046b0       ?print_argv@Instance_options@@QAEXXZ 004056b0 f   instance_options.obj
 0001:00004720       ?init@Instance_options@@QAEHPBD@Z 00405720 f   instance_options.obj
 0001:000047c0       ??1Instance_options@@QAE@XZ 004057c0 f   instance_options.obj
 0001:000047f0       ?complete_initialization@Instance_options@@QAEHPBDI@Z 004057f0 f   instance_options.obj
 0001:00004b40       ??0Listener_thread_args@@QAE@AAVThread_registry@@ABUOptions@@ABVUser_map@@AAVInstance_map@@@Z 00405b40 f i listener.obj
 0001:00004b70       ?is_shutdown@Thread_registry@@QAE_NXZ 00405b70 f i listener.obj
 0001:00004bd0       ??0Listener_thread@@QAE@ABUListener_thread_args@@@Z 00405bd0 f   listener.obj
 0001:00004c20       ??1Listener_thread@@QAE@XZ 00405c20 f   listener.obj
 0001:00004c30       ?create_tcp_socket@Listener_thread@@AAEHXZ 00405c30 f   listener.obj
 0001:00004e00       ?handle_new_mysql_connection@Listener_thread@@AAEXPAUst_vio@@@Z 00405e00 f   listener.obj
 0001:00004ed0       ?run@Listener_thread@@QAEXXZ 00405ed0 f   listener.obj
 0001:00005180       _listener                  00406180 f   listener.obj
 0001:000053a0       ?log_error@@YAXPBDZZ       004063a0 f   log.obj
 0001:000053c0       ?log_info@@YAXPBDZZ        004063c0 f   log.obj
 0001:000053e0       ?print_info@@YAXPBDZZ      004063e0 f   log.obj
 0001:00005400       ?print_error@@YAXPBDZZ     00406400 f   log.obj
 0001:00005420       ?log_init@@YAXXZ           00406420 f   log.obj
 0001:00005440       ?die@@YAXPBDZZ             00406440 f   log.obj
 0001:000054a0       ??0User_map@@QAE@XZ        004064a0 f i manager.obj
 0001:000054b0       ?create_pid_file@@YAHPBDH@Z 004064b0 f   manager.obj
 0001:00005540       ?onsignal@@YAXH@Z          00406540 f   manager.obj
 0001:00005550       ?set_signals@@YAXPAH@Z     00406550 f   manager.obj
 0001:00005580       ?my_sigwait@@YAHPBHPAH@Z   00406580 f   manager.obj
 0001:000055b0       ?stop_all@@YAXPAVGuardian_thread@@PAVThread_registry@@@Z 004065b0 f   manager.obj
 0001:000055f0       ?manager@@YAHABUOptions@@@Z 004065f0 f   manager.obj
 0001:00005a90       ?message@@YAPBDI@Z         00406a90 f   messages.obj
 0001:00005aa0       ?errno_to_sqlstate@@YAPBDI@Z 00406aa0 f   messages.obj
 0001:00005ab0       ??0Mysql_connection_thread_args@@QAE@PAUst_vio@@AAVThread_registry@@ABVUser_map@@KAAVInstance_map@@@Z 00406ab0 f   mysql_connection.obj
 0001:00005ae0       ??0Mysql_connection_thread@@QAE@ABUMysql_connection_thread_args@@@Z 00406ae0 f   mysql_connection.obj
 0001:00005b40       _my_net_local_init         00406b40 f   mysql_connection.obj
 0001:00005b90       ?init@Mysql_connection_thread@@QAEHXZ 00406b90 f   mysql_connection.obj
 0001:00005c30       ?cleanup@Mysql_connection_thread@@QAEXXZ 00406c30 f   mysql_connection.obj
 0001:00005c40       ??1Mysql_connection_thread@@QAE@XZ 00406c40 f   mysql_connection.obj
 0001:00005c60       ?check_connection@Mysql_connection_thread@@AAEHXZ 00406c60 f   mysql_connection.obj
 0001:00005ec0       ?dispatch_command@Mysql_connection_thread@@AAEHW4enum_server_command@@PBDI@Z 00406ec0 f   mysql_connection.obj
 0001:00006040       ?do_command@Mysql_connection_thread@@AAEHXZ 00407040 f   mysql_connection.obj
 0001:00006130       ?run@Mysql_connection_thread@@QAEXXZ 00407130 f   mysql_connection.obj
 0001:000061f0       _mysql_connection          004071f0 f   mysql_connection.obj
 0001:000062f0       ??0Options@@QAE@XZ         004072f0 f i mysqlmanager.obj
 0001:00006330       _main                      00407330 f   mysqlmanager.obj
 0001:00006710       ?cleanup@Options@@QAEXXZ   00407710 f   options.obj
 0001:00006730       ?setup_windows_defaults@Options@@QAEHXZ 00407730 f   options.obj
 0001:00006810       ?load@Options@@QAEHHPAPAD@Z 00407810 f   options.obj
 0001:00006930       ?get_word@@YAXPAPBDPAIH@Z  00407930 f i parse.obj
 0001:00006a00       ??0Show_instances@@QAE@PAVInstance_map@@@Z 00407a00 f i parse.obj
 0001:00006a20       ??0Flush_instances@@QAE@PAVInstance_map@@@Z 00407a20 f i parse.obj
 0001:00006a40       ??0Syntax_error@@QAE@XZ    00407a40 f i parse.obj
 0001:00006a60       ??1Set_option@@UAE@XZ      00407a60 f i parse.obj
 0001:00006a70       ?find_token@@YA?AW4Token@@PBDI@Z 00407a70 f i parse.obj
 0001:00006ad0       ?get_token@@YA?AW4Token@@PAPBDPAI@Z 00407ad0 f   parse.obj
 0001:00006b10       ?shift_token@@YA?AW4Token@@PAPBDPAI@Z 00407b10 f   parse.obj
 0001:00006b70       ?get_text_id@@YAHPAPBDPAI0@Z 00407b70 f   parse.obj
 0001:00006bb0       ??_EShow_instances@@UAEPAXI@Z 00407bb0 f i parse.obj
 0001:00006bb0       ??_GShow_instances@@UAEPAXI@Z 00407bb0 f i parse.obj
 0001:00006be0       ??_EFlush_instances@@UAEPAXI@Z 00407be0 f i parse.obj
 0001:00006be0       ??_GFlush_instances@@UAEPAXI@Z 00407be0 f i parse.obj
 0001:00006c10       ??_GSyntax_error@@UAEPAXI@Z 00407c10 f i parse.obj
 0001:00006c10       ??_ESyntax_error@@UAEPAXI@Z 00407c10 f i parse.obj
 0001:00006c40       ??0Unset_option@@QAE@PAVInstance_map@@PBDI1I1I@Z 00407c40 f i parse.obj
 0001:00006c90       ??_GUnset_option@@UAEPAXI@Z 00407c90 f i parse.obj
 0001:00006c90       ??_EUnset_option@@UAEPAXI@Z 00407c90 f i parse.obj
 0001:00006cc0       ?parse_command@@YAPAVCommand@@PAVInstance_map@@PBD@Z 00407cc0 f   parse.obj
 0001:000074c0       ?trim_space@@YAXPAPBDPAI@Z 004084c0 f   parse_output.obj
 0001:00007530       ?parse_output_and_get_value@@YAHPBD0PADII@Z 00408530 f   parse_output.obj
 0001:000076c0       ?set_stacksize_n_create_thread@@YAHPAPAXPAUthread_attr@@P6APAXPAX@Z2@Z 004086c0 f   priv.obj
 0001:000076d0       ?net_send_error@@YAHPAUst_net@@I@Z 004086d0 f   protocol.obj
 0001:000077b0       ?net_send_error_323@@YAHPAUst_net@@I@Z 004087b0 f   protocol.obj
 0001:00007870       ?net_store_length@@YAPADPADI@Z 00408870 f   protocol.obj
 0001:000078a0       ?store_to_protocol_packet@@YAHPAVBuffer@@PBDPAII@Z 004088a0 f   protocol.obj
 0001:00007920       ?store_to_protocol_packet@@YAHPAVBuffer@@PBDPAI@Z 00408920 f   protocol.obj
 0001:00007960       ?send_eof@@YAHPAUst_net@@@Z 00408960 f   protocol.obj
 0001:000079b0       ?send_fields@@YAHPAUst_net@@PAUst_list@@@Z 004089b0 f   protocol.obj
 0001:00007d90       ?net_send_ok@@YAHPAUst_net@@KPBD@Z 00408d90 f   protocol.obj
 0001:00007ee0       ??0Thread_info@@QAE@XZ     00408ee0 f   thread_registry.obj
 0001:00007ef0       ??0Thread_info@@QAE@PAX@Z  00408ef0 f   thread_registry.obj
 0001:00007f00       ??0Thread_registry@@QAE@XZ 00408f00 f   thread_registry.obj
 0001:00007f50       ??1Thread_registry@@QAE@XZ 00408f50 f   thread_registry.obj
 0001:00007f90       ?register_thread@Thread_registry@@QAEXPAVThread_info@@@Z 00408f90 f   thread_registry.obj
 0001:00007fe0       ?unregister_thread@Thread_registry@@QAEXPAVThread_info@@@Z 00408fe0 f   thread_registry.obj
 0001:00008040       ?cond_wait@Thread_registry@@QAEHPAVThread_info@@PAUpthread_cond_t@@PAU_RTL_CRITICAL_SECTION@@@Z 00409040 f   thread_registry.obj
 0001:000080c0       ?cond_timedwait@Thread_registry@@QAEHPAVThread_info@@PAUpthread_cond_t@@PAU_RTL_CRITICAL_SECTION@@PAUtimespec@@@Z 004090c0 f   thread_registry.obj
 0001:00008150       ?deliver_shutdown@Thread_registry@@QAEXXZ 00409150 f   thread_registry.obj
 0001:00008270       ?request_shutdown@Thread_registry@@QAEXXZ 00409270 f   thread_registry.obj
 0001:00008290       ?get_error_status@Thread_registry@@QAEHXZ 00409290 f   thread_registry.obj
 0001:000082c0       ?set_error_status@Thread_registry@@QAEXXZ 004092c0 f   thread_registry.obj
 0001:000082f0       ??0User@@QAE@XZ            004092f0 f i user_map.obj
 0001:00008300       ?init@User@@QAEHPBD@Z      00409300 f   user_map.obj
 0001:00008480       ?init@User_map@@QAEHXZ     00409480 f   user_map.obj
 0001:000084c0       ??1User_map@@QAE@XZ        004094c0 f   user_map.obj
 0001:000084d0       ?load@User_map@@QAEHPBD@Z  004094d0 f   user_map.obj
 0001:00008630       ?authenticate@User_map@@QBEHPBDI00@Z 00409630 f   user_map.obj
 0001:00008680       ??0IMService@@QAE@XZ       00409680 f   IMService.obj
 0001:000086c0       ?Shutdown@WindowsService@@MAEXXZ 004096c0 f i IMService.obj
 0001:000086d0       ?Pause@WindowsService@@MAEXXZ 004096d0 f i IMService.obj
 0001:000086e0       ?Continue@WindowsService@@MAEXXZ 004096e0 f i IMService.obj
 0001:000086f0       ??1IMService@@QAE@XZ       004096f0 f   IMService.obj
 0001:00008700       ?Stop@IMService@@MAEXXZ    00409700 f   IMService.obj
 0001:00008720       ?Run@IMService@@MAEXKPAPAD@Z 00409720 f   IMService.obj
 0001:00008790       ?Log@IMService@@MAEXPBD@Z  00409790 f   IMService.obj
 0001:000087b0       ?HandleServiceOptions@@YAHUOptions@@@Z 004097b0 f   IMService.obj
 0001:000088f0       ??0WindowsService@@QAE@XZ  004098f0 f   WindowsService.obj
 0001:00008930       ?Stop@WindowsService@@MAEXXZ 00409930 f i WindowsService.obj
 0001:00008940       ?Log@WindowsService@@MAEXPBD@Z 00409940 f i WindowsService.obj
 0001:00008950       ??1WindowsService@@QAE@XZ  00409950 f   WindowsService.obj
 0001:00008960       ?IsInstalled@WindowsService@@QAEHXZ 00409960 f   WindowsService.obj
 0001:000089b0       ?SetAcceptedControls@WindowsService@@QAEXK@Z 004099b0 f   WindowsService.obj
 0001:000089c0       ?ReportStatus@WindowsService@@IAEHKKK@Z 004099c0 f   WindowsService.obj
 0001:00008a80       ?HandleControlCode@WindowsService@@IAEXK@Z 00409a80 f   WindowsService.obj
 0001:00008b10       ?ControlHandler@WindowsService@@SGXK@Z 00409b10 f   WindowsService.obj
 0001:00008b20       ?Install@WindowsService@@QAEHXZ 00409b20 f   WindowsService.obj
 0001:00008c60       ?Remove@WindowsService@@QAEHXZ 00409c60 f   WindowsService.obj
 0001:00008d20       ?RegisterAndRun@WindowsService@@IAEXKPAPAD@Z 00409d20 f   WindowsService.obj
 0001:00008e10       ?ServiceMain@WindowsService@@SGXKPAPAD@Z 00409e10 f   WindowsService.obj
 0001:00008e20       ?Init@WindowsService@@QAEHXZ 00409e20 f   WindowsService.obj
 0001:00008e70       _my_net_init               00409e70 f   net_serv.obj
 0001:00008f30       _net_end                   00409f30 f   net_serv.obj
 0001:00008f50       _net_realloc               00409f50 f   net_serv.obj
 0001:00009090       _net_clear                 0040a090 f   net_serv.obj
 0001:00009110       _net_real_write            0040a110 f   net_serv.obj
 0001:000095c0       _my_net_read               0040a5c0 f   net_serv.obj
 0001:00009830       _my_net_set_read_timeout   0040a830 f   net_serv.obj
 0001:00009860       _my_net_set_write_timeout  0040a860 f   net_serv.obj
 0001:00009890       _net_flush                 0040a890 f   net_serv.obj
 0001:00009a20       _my_net_write              0040aa20 f   net_serv.obj
 0001:00009b20       _net_write_command         0040ab20 f   net_serv.obj
 0001:00009cf0       _net_field_length@4        0040acf0 f   pack.obj
 0001:00009d60       _net_field_length_ll       0040ad60 f   pack.obj
 0001:00009dd0       _net_store_length          0040add0 f   pack.obj
 0001:00009e70       _randominit                0040ae70 f   password.obj
 0001:00009eb0       _my_rnd                    0040aeb0 f   password.obj
 0001:00009f00       _hash_password             0040af00 f   password.obj
 0001:00009fa0       _make_scrambled_password_323 0040afa0 f   password.obj
 0001:0000a000       _scramble_323              0040b000 f   password.obj
 0001:0000a1c0       _check_scramble_323        0040b1c0 f   password.obj
 0001:0000a3a0       _get_salt_from_password_323 0040b3a0 f   password.obj
 0001:0000a500       _make_password_from_salt_323 0040b500 f   password.obj
 0001:0000a530       _create_random_string      0040b530 f   password.obj
 0001:0000a5b0       _octet2hex                 0040b5b0 f   password.obj
 0001:0000a6c0       _make_scrambled_password   0040b6c0 f   password.obj
 0001:0000a790       _scramble                  0040b790 f   password.obj
 0001:0000a8d0       _check_scramble            0040b8d0 f   password.obj
 0001:0000a9d0       _get_salt_from_password    0040b9d0 f   password.obj
 0001:0000a9f0       _make_password_from_salt   0040b9f0 f   password.obj
 0001:0000aa10       _mysql_errno_to_sqlstate   0040ba10 f   sql_state.obj
 0001:0000aa70       _my_connect                0040ba70 f   client.obj
 0001:0000aa90       _create_named_pipe         0040ba90 f   client.obj
 0001:0000ad80       _free_rows                 0040bd80 f   client.obj
 0001:0000adb0       _free_old_query            0040bdb0 f   client.obj
 0001:0000ae20       _set_mysql_error           0040be20 f   client.obj
 0001:0000af20       _end_server                0040bf20 f   client.obj
 0001:0000af70       _mysql_free_result@4       0040bf70 f   client.obj
 0001:0000b0c0       _mysql_read_default_options 0040c0c0 f   client.obj
 0001:0000b670       _unpack_fields             0040c670 f   client.obj
 0001:0000ba80       _mysql_init@4              0040ca80 f   client.obj
 0001:0000bb70       _mysql_ssl_set@24          0040cb70 f   client.obj
 0001:0000bcf0       _mysql_get_ssl_cipher@4    0040ccf0 f   client.obj
 0001:0000be70       _mysql_init_character_set  0040ce70 f   client.obj
 0001:0000c140       _mysql_select_db@8         0040d140 f   client.obj
 0001:0000c340       _mysql_detach_stmt_list    0040d340 f   client.obj
 0001:0000c350       _mysql_close@4             0040d350 f   client.obj
 0001:0000c430       _mysql_send_query@12       0040d430 f   client.obj
 0001:0000c470       _mysql_real_query@12       0040d470 f   client.obj
 0001:0000c4e0       _mysql_store_result@4      0040d4e0 f   client.obj
 0001:0000c770       _mysql_fetch_lengths@4     0040d770 f   client.obj
 0001:0000c7b0       _mysql_options@12          0040d7b0 f   client.obj
 0001:0000cb10       _mysql_num_rows@4          0040db10 f   client.obj
 0001:0000cb20       _mysql_num_fields@4        0040db20 f   client.obj
 0001:0000cb30       _mysql_errno@4             0040db30 f   client.obj
 0001:0000cb50       _mysql_error@4             0040db50 f   client.obj
 0001:0000cb70       _mysql_get_server_version@4 0040db70 f   client.obj
 0001:0000cbe0       _mysql_set_character_set@8 0040dbe0 f   client.obj
 0001:0000cd50       _cli_safe_read             0040dd50 f   client.obj
 0001:0000cf50       _cli_read_rows             0040df50 f   client.obj
 0001:0000d3e0       _mysql_real_connect@32     0040e3e0 f   client.obj
 0001:0000e4a0       _mysql_reconnect           0040f4a0 f   client.obj
 0001:0000e9e0       _mysql_fetch_row@4         0040f9e0 f   client.obj
 0001:0000eae0       _cli_advanced_command      0040fae0 f   client.obj
 0001:0000ed00       _get_tty_password          0040fd00 f   get_password.obj
 0001:0000ee10       _init_client_errs          0040fe10 f   errmsg.obj
 0001:0000ee30       _finish_client_errs        0040fe30 f   errmsg.obj
 0001:0000ee48       _InitializeCriticalSection@4 0040fe48 f   kernel32:KERNEL32.dll
 0001:0000ee4e       _DeleteCriticalSection@4   0040fe4e f   kernel32:KERNEL32.dll
 0001:0000ee54       _LeaveCriticalSection@4    0040fe54 f   kernel32:KERNEL32.dll
 0001:0000ee5a       _EnterCriticalSection@4    0040fe5a f   kernel32:KERNEL32.dll
 0001:0000ee60       _GetSystemTimeAsFileTime@4 0040fe60 f   kernel32:KERNEL32.dll
 0001:0000ee66       _CloseHandle@4             0040fe66 f   kernel32:KERNEL32.dll
 0001:0000ee6c       _GetExitCodeProcess@8      0040fe6c f   kernel32:KERNEL32.dll
 0001:0000ee72       _WaitForSingleObject@8     0040fe72 f   kernel32:KERNEL32.dll
 0001:0000ee78       _CreateProcessA@40         0040fe78 f   kernel32:KERNEL32.dll
 0001:0000ee7e       _SetLastError@4            0040fe7e f   kernel32:KERNEL32.dll
 0001:0000ee84       _GetLastError@0            0040fe84 f   kernel32:KERNEL32.dll
 0001:0000ee8a       _CreateRemoteThread@28     0040fe8a f   kernel32:KERNEL32.dll
 0001:0000ee90       _GetProcAddress@8          0040fe90 f   kernel32:KERNEL32.dll
 0001:0000ee96       _DuplicateHandle@28        0040fe96 f   kernel32:KERNEL32.dll
 0001:0000ee9c       _GetCurrentProcess@0       0040fe9c f   kernel32:KERNEL32.dll
 0001:0000eea2       _GetModuleHandleA@4        0040fea2 f   kernel32:KERNEL32.dll
 0001:0000eea8       _TerminateProcess@8        0040fea8 f   kernel32:KERNEL32.dll
 0001:0000eeae       _OpenProcess@12            0040feae f   kernel32:KERNEL32.dll
 0001:0000eeb4       _Sleep@4                   0040feb4 f   kernel32:KERNEL32.dll
 0001:0000eeba       _GetCurrentThreadId@0      0040feba f   kernel32:KERNEL32.dll
 0001:0000eec0       _GetModuleFileNameA@12     0040fec0 f   kernel32:KERNEL32.dll
 0001:0000eec6       _SetNamedPipeHandleState@16 0040fec6 f   kernel32:KERNEL32.dll
 0001:0000eecc       _WaitNamedPipeA@8          0040fecc f   kernel32:KERNEL32.dll
 0001:0000eed2       _CreateFileA@28            0040fed2 f   kernel32:KERNEL32.dll
 0001:0000eed8       _CloseServiceHandle@4      0040fed8 f   advapi32:ADVAPI32.dll
 0001:0000eede       _OpenServiceA@12           0040fede f   advapi32:ADVAPI32.dll
 0001:0000eee4       _OpenSCManagerA@12         0040fee4 f   advapi32:ADVAPI32.dll
 0001:0000eeea       _SetServiceStatus@8        0040feea f   advapi32:ADVAPI32.dll
 0001:0000eef0       _CreateServiceA@52         0040fef0 f   advapi32:ADVAPI32.dll
 0001:0000eef6       _DeleteService@4           0040fef6 f   advapi32:ADVAPI32.dll
 0001:0000eefc       _RegisterServiceCtrlHandlerA@8 0040fefc f   advapi32:ADVAPI32.dll
 0001:0000ef02       _StartServiceCtrlDispatcherA@4 0040ff02 f   advapi32:ADVAPI32.dll
 0001:0000ef10       _my_realloc                0040ff10 f   mysys:my_realloc.obj
 0001:0000ef90       _my_malloc                 0040ff90 f   mysys:my_malloc.obj
 0001:0000f020       _my_no_flags_free          00410020 f   mysys:my_malloc.obj
 0001:0000f040       _my_memdup                 00410040 f   mysys:my_malloc.obj
 0001:0000f080       _my_strdup                 00410080 f   mysys:my_malloc.obj
 0001:0000f0d0       _my_strdup_with_length     004100d0 f   mysys:my_malloc.obj
 0001:0000f110       _list_add                  00410110 f   mysys:list.obj
 0001:0000f140       _list_delete               00410140 f   mysys:list.obj
 0001:0000f170       _list_free                 00410170 f   mysys:list.obj
 0001:0000f1b0       _list_cons                 004101b0 f   mysys:list.obj
 0001:0000f1f0       _list_reverse              004101f0 f   mysys:list.obj
 0001:0000f220       _list_length               00410220 f   mysys:list.obj
 0001:0000f240       _list_walk                 00410240 f   mysys:list.obj
 0001:0000f270       _init_dynamic_array        00410270 f   mysys:array.obj
 0001:0000f2e0       _alloc_dynamic             004102e0 f   mysys:array.obj
 0001:0000f330       _pop_dynamic               00410330 f   mysys:array.obj
 0001:0000f350       _set_dynamic               00410350 f   mysys:array.obj
 0001:0000f3f0       _get_dynamic               004103f0 f   mysys:array.obj
 0001:0000f440       _delete_dynamic            00410440 f   mysys:array.obj
 0001:0000f470       _delete_dynamic_element    00410470 f   mysys:array.obj
 0001:0000f4b0       _freeze_size               004104b0 f   mysys:array.obj
 0001:0000f4f0       _insert_dynamic            004104f0 f   mysys:array.obj
 0001:0000f540       _my_read                   00410540 f   mysys:my_read.obj
 0001:0000f660       _my_seek                   00410660 f   mysys:my_seek.obj
 0001:0000f700       _my_tell                   00410700 f   mysys:my_seek.obj
 0001:0000f740       _my_dirend                 00410740 f   mysys:my_lib.obj
 0001:0000f7c0       _my_dir                    004107c0 f   mysys:my_lib.obj
 0001:0000fa70       _my_fstat                  00410a70 f   mysys:my_lib.obj
 0001:0000fa90       _my_stat                   00410a90 f   mysys:my_lib.obj
 0001:0000fb20       _my_close                  00410b20 f   mysys:my_open.obj
 0001:0000fbf0       _my_register_filename      00410bf0 f   mysys:my_open.obj
 0001:0000fd10       _my_sopen                  00410d10 f   mysys:my_open.obj
 0001:0000ffb0       _my_open                   00410fb0 f   mysys:my_open.obj
 0001:00010080       _modify_defaults_file      00411080 f   mysys:default_modify.obj
 0001:000104d0       _init_alloc_root           004114d0 f   mysys:my_alloc.obj
 0001:00010530       _reset_root_defaults       00411530 f   mysys:my_alloc.obj
 0001:000105d0       _alloc_root                004115d0 f   mysys:my_alloc.obj
 0001:000106b0       _multi_alloc_root          004116b0 f   mysys:my_alloc.obj
 0001:00010770       _free_root                 00411770 f   mysys:my_alloc.obj
 0001:00010810       _set_prealloc_root         00411810 f   mysys:my_alloc.obj
 0001:00010860       _strmake_root              00411860 f   mysys:my_alloc.obj
 0001:000108a0       _memdup_root               004118a0 f   mysys:my_alloc.obj
 0001:000108e0       _strdup_root               004118e0 f   mysys:my_alloc.obj
 0001:00010930       _pthread_cond_init         00411930 f   mysys:my_wincond.obj
 0001:000109a0       _pthread_cond_destroy      004119a0 f   mysys:my_wincond.obj
 0001:000109f0       _pthread_cond_timedwait    004119f0 f   mysys:my_wincond.obj
 0001:00010ad0       _pthread_cond_signal       00411ad0 f   mysys:my_wincond.obj
 0001:00010b00       _pthread_cond_broadcast    00411b00 f   mysys:my_wincond.obj
 0001:00010b40       _pthread_attr_init         00411b40 f   mysys:my_wincond.obj
 0001:00010b60       _pthread_attr_setstacksize 00411b60 f   mysys:my_wincond.obj
 0001:00010b70       _pthread_attr_setprio      00411b70 f   mysys:my_wincond.obj
 0001:00010b80       _pthread_attr_destroy      00411b80 f   mysys:my_wincond.obj
 0001:00010b90       _localtime_r               00411b90 f   mysys:my_wincond.obj
 0001:00010c00       _pthread_cond_wait         00411c00 f   mysys:my_wincond.obj
 0001:00010c20       _my_thread_global_end      00411c20 f   mysys:my_thr_init.obj
 0001:00010d20       _my_thread_init            00411d20 f   mysys:my_thr_init.obj
 0001:00010da0       _my_thread_end             00411da0 f   mysys:my_thr_init.obj
 0001:00010e10       __my_thread_var            00411e10 f   mysys:my_thr_init.obj
 0001:00010e30       _my_thread_id              00411e30 f   mysys:my_thr_init.obj
 0001:00010e50       _my_thread_name            00411e50 f   mysys:my_thr_init.obj
 0001:00010e70       _my_thread_global_init     00411e70 f   mysys:my_thr_init.obj
 0001:00010f20       _win_pthread_init          00411f20 f   mysys:my_winthread.obj
 0001:00010f30       _win_pthread_mutex_trylock 00411f30 f   mysys:my_winthread.obj
 0001:00010f60       _pthread_exit              00411f60 f   mysys:my_winthread.obj
 0001:00010f70       _win_pthread_setspecific   00411f70 f   mysys:my_winthread.obj
 0001:00010fa0       _pthread_start             00411fa0 f   mysys:my_winthread.obj
 0001:00010ff0       _pthread_create            00411ff0 f   mysys:my_winthread.obj
 0001:00011080       _gmtime_r                  00412080 f   mysys:my_pthread.obj
 0001:000110c0       _pthread_no_free           004120c0 f   mysys:my_pthread.obj
 0001:000110d0       _pthread_dummy             004120d0 f   mysys:my_pthread.obj
 0001:00011120       __hash_init                00412120 f   mysys:hash.obj
 0001:000111d0       _hash_free                 004121d0 f   mysys:hash.obj
 0001:000111f0       _my_hash_reset             004121f0 f   mysys:hash.obj
 0001:000113a0       _my_hash_insert            004123a0 f   mysys:hash.obj
 0001:00011640       _hash_delete               00412640 f   mysys:hash.obj
 0001:00011880       _hash_update               00412880 f   mysys:hash.obj
 0001:00011a10       _hash_element              00412a10 f   mysys:hash.obj
 0001:00011a30       _hash_replace              00412a30 f   mysys:hash.obj
 0001:00011a50       _hash_first                00412a50 f   mysys:hash.obj
 0001:00011b70       _hash_next                 00412b70 f   mysys:hash.obj
 0001:00011c10       _hash_search               00412c10 f   mysys:hash.obj
 0001:00011c30       _my_charset_same           00412c30 f   mysys:charset.obj
 0001:000122d0       _get_charsets_dir          004132d0 f   mysys:charset.obj
 0001:00012390       _add_compiled_collation    00413390 f   mysys:charset.obj
 0001:00012490       _free_charsets             00413490 f   mysys:charset.obj
 0001:000124a0       _get_collation_number      004134a0 f   mysys:charset.obj
 0001:000124c0       _get_charset_number        004134c0 f   mysys:charset.obj
 0001:00012520       _get_charset_name          00413520 f   mysys:charset.obj
 0001:00012640       _get_charset               00413640 f   mysys:charset.obj
 0001:00012710       _get_charset_by_name       00413710 f   mysys:charset.obj
 0001:000127b0       _get_charset_by_csname     004137b0 f   mysys:charset.obj
 0001:00012850       _escape_string_for_mysql   00413850 f   mysys:charset.obj
 0001:00012a00       _fs_character_set          00413a00 f   mysys:charset.obj
 0001:00012a90       _escape_quotes_for_mysql   00413a90 f   mysys:charset.obj
 0001:00012b60       _get_compatible_charset_with_ctype 00413b60 f   mysys:charset.obj
 0001:00012c70       _get_defaults_options      00413c70 f   mysys:default.obj
 0001:00012d40       _free_defaults             00413d40 f   mysys:default.obj
 0001:000137c0       _my_print_default_files    004147c0 f   mysys:default.obj
 0001:00013940       _print_defaults            00414940 f   mysys:default.obj
 0001:00013a70       _my_search_option_files    00414a70 f   mysys:default.obj
 0001:00013d00       _load_defaults             00414d00 f   mysys:default.obj
 0001:00013fb0       _strlength                 00414fb0 f   mysys:mf_format.obj
 0001:00013ff0       _fn_format                 00414ff0 f   mysys:mf_format.obj
 0001:00014240       _my_load_path              00415240 f   mysys:mf_loadpath.obj
 0001:00014370       _my_fclose                 00415370 f   mysys:my_fopen.obj
 0001:00014480       _my_fopen                  00415480 f   mysys:my_fopen.obj
 0001:000145f0       _my_fdopen                 004155f0 f   mysys:my_fopen.obj
 0001:000146f0       _dirname_length            004156f0 f   mysys:mf_dirname.obj
 0001:00014730       _convert_dirname           00415730 f   mysys:mf_dirname.obj
 0001:000147e0       _dirname_part              004157e0 f   mysys:mf_dirname.obj
 0001:00014810       _my_delete                 00415810 f   mysys:my_delete.obj
 0001:00014870       _nt_share_delete           00415870 f   mysys:my_delete.obj
 0001:000149a0       _my_end                    004159a0 f   mysys:my_init.obj
 0001:00014a10       _setEnvString              00415a10 f   mysys:my_init.obj
 0001:00014a30       _my_parameter_handler      00415a30 f   mysys:my_init.obj
 0001:00014c70       _my_init                   00415c70 f   mysys:my_init.obj
 0001:00014da0       _my_getopt_register_get_addr 00415da0 f   mysys:my_getopt.obj
 0001:00014e00       _getopt_compare_strings    00415e00 f   mysys:my_getopt.obj
 0001:00015050       _getopt_ull_limit_value    00416050 f   mysys:my_getopt.obj
 0001:000152e0       _my_print_help             004162e0 f   mysys:my_getopt.obj
 0001:00015520       _my_print_variables        00416520 f   mysys:my_getopt.obj
 0001:00015950       _handle_options            00416950 f   mysys:my_getopt.obj
 0001:00016350       _my_compress_alloc         00417350 f   mysys:my_compress.obj
 0001:000163c0       _my_uncompress             004173c0 f   mysys:my_compress.obj
 0001:00016430       _my_compress               00417430 f   mysys:my_compress.obj
 0001:00016490       _mysql_sha1_reset          00417490 f   mysys:sha1.obj
 0001:00016c60       _mysql_sha1_result         00417c60 f   mysys:sha1.obj
 0001:00016cc0       _mysql_sha1_input          00417cc0 f   mysys:sha1.obj
 0001:00016d10       _find_type                 00417d10 f   mysys:typelib.obj
 0001:00016e70       _get_type                  00417e70 f   mysys:typelib.obj
 0001:00016e90       _copy_typelib              00417e90 f   mysys:typelib.obj
 0001:00016f60       _make_type                 00417f60 f   mysys:typelib.obj
 0001:00016fb0       _my_error                  00417fb0 f   mysys:my_error.obj
 0001:00017060       _my_printf_error           00418060 f   mysys:my_error.obj
 0001:000170c0       _my_message                004180c0 f   mysys:my_error.obj
 0001:000170d0       _my_error_register         004180d0 f   mysys:my_error.obj
 0001:00017150       _my_error_unregister       00418150 f   mysys:my_error.obj
 0001:000171a0       _my_multi_malloc           004181a0 f   mysys:mulalloc.obj
 0001:00017210       _my_gethostbyname_r        00418210 f   mysys:my_gethostbyname.obj
 0001:00017240       _my_gethostbyname_r_free   00418240 f   mysys:my_gethostbyname.obj
 0001:00017250       _thr_alarm_kill            00418250 f   mysys:thr_alarm.obj
 0001:00017260       _process_alarm             00418260 f   mysys:thr_alarm.obj
 0001:00017270       _thr_alarm                 00418270 f   mysys:thr_alarm.obj
 0001:000172c0       _thr_got_alarm             004182c0 f   mysys:thr_alarm.obj
 0001:00017330       _thr_end_alarm             00418330 f   mysys:thr_alarm.obj
 0001:00017360       _end_thr_alarm             00418360 f   mysys:thr_alarm.obj
 0001:00017370       _init_thr_alarm            00418370 f   mysys:thr_alarm.obj
 0001:00017380       _thr_alarm_info            00418380 f   mysys:thr_alarm.obj
 0001:00017390       _resize_thr_alarm          00418390 f   mysys:thr_alarm.obj
 0001:000173a0       _my_filename               004183a0 f   mysys:my_div.obj
 0001:000173e0       _my_qsort                  004183e0 f   mysys:mf_qsort.obj
 0001:00017a00       _my_access                 00418a00 f   mysys:my_access.obj
 0001:00017a50       _check_if_legal_filename   00418a50 f   mysys:my_access.obj
 0001:00017af0       _my_fread                  00418af0 f   mysys:my_fstream.obj
 0001:00017bc0       _my_fseek                  00418bc0 f   mysys:my_fstream.obj
 0001:00017bf0       _my_ftell                  00418bf0 f   mysys:my_fstream.obj
 0001:00017c00       _my_fwrite                 00418c00 f   mysys:my_fstream.obj
 0001:00017d00       _my_chsize                 00418d00 f   mysys:my_chsize.obj
 0001:00017e80       _my_once_alloc             00418e80 f   mysys:my_once.obj
 0001:00017f30       _my_once_strdup            00418f30 f   mysys:my_once.obj
 0001:00017f80       _my_once_memdup            00418f80 f   mysys:my_once.obj
 0001:00017fc0       _my_once_free              00418fc0 f   mysys:my_once.obj
 0001:00017ff0       _my_getwd                  00418ff0 f   mysys:my_getwd.obj
 0001:00018090       _test_if_hard_path         00419090 f   mysys:my_getwd.obj
 0001:000180e0       _has_path                  004190e0 f   mysys:my_getwd.obj
 0001:00018120       _my_setwd                  00419120 f   mysys:my_getwd.obj
 0001:000181d0       _init_compiled_charsets    004191d0 f   mysys:charset-def.obj
 0001:000184a0       _array_append_string_unique 004194a0 f   mysys:mf_arr_appstr.obj
 0001:00018530       _cleanup_dirname           00419530 f   mysys:mf_pack.obj
 0001:00018800       _symdirget                 00419800 f   mysys:mf_pack.obj
 0001:00018940       _system_filename           00419940 f   mysys:mf_pack.obj
 0001:00018960       _intern_filename           00419960 f   mysys:mf_pack.obj
 0001:000189f0       _pack_dirname              004199f0 f   mysys:mf_pack.obj
 0001:00018be0       _normalize_dirname         00419be0 f   mysys:mf_pack.obj
 0001:00018c60       _unpack_dirname            00419c60 f   mysys:mf_pack.obj
 0001:00018d50       _unpack_filename           00419d50 f   mysys:mf_pack.obj
 0001:00018e10       _fn_ext                    00419e10 f   mysys:mf_fn_ext.obj
 0001:00018e70       _my_readlink               00419e70 f   mysys:my_symlink.obj
 0001:00018e90       _my_symlink                00419e90 f   mysys:my_symlink.obj
 0001:00018ea0       _my_is_symlink             00419ea0 f   mysys:my_symlink.obj
 0001:00018eb0       _my_realpath               00419eb0 f   mysys:my_symlink.obj
 0001:00018ed0       _my_message_no_curses      00419ed0 f   mysys:my_messnc.obj
 0001:00018f50       _init_glob_errs            00419f50 f   mysys:errors.obj
 0001:00018f60       _my_write                  00419f60 f   mysys:my_write.obj
 0001:000190d0       _strnmov                   0041a0d0 f   strings:strnmov.obj
 0001:00019100       _int2str                   0041a100 f   strings:int2str.obj
 0001:000191e0       _int10_to_str              0041a1e0 f   strings:int2str.obj
 0001:00019290       _strmake                   0041a290 f   strings:strmake.obj
 0001:000192c0       _strmov                    0041a2c0 f   strings:strmov.obj
 0001:000192e0       _strxnmov                  0041a2e0 f   strings:strxnmov.obj
 0001:00019330       _strend                    0041a330 f   strings:strend.obj
 0001:00019340       _is_prefix                 0041a340 f   strings:is_prefix.obj
 0001:00019600       _my_hash_sort_latin1_de    0041a600 f   strings:ctype-latin1.obj
 0001:000196b0       _my_vsnprintf              0041a6b0 f   strings:my_vsnprintf.obj
 0001:000199c0       _my_snprintf               0041a9c0 f   strings:my_vsnprintf.obj
 0001:000199e0       _strcend                   0041a9e0 f   strings:strcend.obj
 0001:00019a00       _my_strnxfrmlen_simple     0041aa00 f   strings:ctype-simple.obj
 0001:00019a20       _my_strnxfrm_simple        0041aa20 f   strings:ctype-simple.obj
 0001:00019aa0       _my_strnncoll_simple       0041aaa0 f   strings:ctype-simple.obj
 0001:00019b10       _my_strnncollsp_simple     0041ab10 f   strings:ctype-simple.obj
 0001:00019bc0       _my_caseup_str_8bit        0041abc0 f   strings:ctype-simple.obj
 0001:00019c00       _my_casedn_str_8bit        0041ac00 f   strings:ctype-simple.obj
 0001:00019c40       _my_caseup_8bit            0041ac40 f   strings:ctype-simple.obj
 0001:00019c70       _my_casedn_8bit            0041ac70 f   strings:ctype-simple.obj
 0001:00019ca0       _my_strcasecmp_8bit        0041aca0 f   strings:ctype-simple.obj
 0001:00019d00       _my_mb_wc_8bit             0041ad00 f   strings:ctype-simple.obj
 0001:00019d40       _my_wc_mb_8bit             0041ad40 f   strings:ctype-simple.obj
 0001:00019da0       _my_snprintf_8bit          0041ada0 f   strings:ctype-simple.obj
 0001:00019dc0       _my_hash_sort_simple       0041adc0 f   strings:ctype-simple.obj
 0001:00019e40       _my_strntol_8bit           0041ae40 f   strings:ctype-simple.obj
 0001:00019f90       _my_strntoul_8bit          0041af90 f   strings:ctype-simple.obj
 0001:0001a0d0       _my_strntoll_8bit          0041b0d0 f   strings:ctype-simple.obj
 0001:0001a2a0       _my_strntoull_8bit         0041b2a0 f   strings:ctype-simple.obj
 0001:0001a430       _my_strntod_8bit           0041b430 f   strings:ctype-simple.obj
 0001:0001a460       _my_long10_to_str_8bit     0041b460 f   strings:ctype-simple.obj
 0001:0001a530       _my_longlong10_to_str_8bit 0041b530 f   strings:ctype-simple.obj
 0001:0001a650       _my_wildcmp_8bit           0041b650 f   strings:ctype-simple.obj
 0001:0001a7e0       _my_like_range_simple      0041b7e0 f   strings:ctype-simple.obj
 0001:0001a8f0       _my_scan_8bit              0041b8f0 f   strings:ctype-simple.obj
 0001:0001a950       _my_fill_8bit              0041b950 f   strings:ctype-simple.obj
 0001:0001a980       _my_numchars_8bit          0041b980 f   strings:ctype-simple.obj
 0001:0001a990       _my_numcells_8bit          0041b990 f   strings:ctype-simple.obj
 0001:0001a9a0       _my_charpos_8bit           0041b9a0 f   strings:ctype-simple.obj
 0001:0001a9b0       _my_well_formed_len_8bit   0041b9b0 f   strings:ctype-simple.obj
 0001:0001a9d0       _my_lengthsp_8bit          0041b9d0 f   strings:ctype-simple.obj
 0001:0001a9f0       _my_instr_simple           0041b9f0 f   strings:ctype-simple.obj
 0001:0001afc0       _my_strtoll10_8bit         0041bfc0 f   strings:ctype-simple.obj
 0001:0001afe0       _my_strntoull10rnd_8bit    0041bfe0 f   strings:ctype-simple.obj
 0001:0001b450       _my_propagate_simple       0041c450 f   strings:ctype-simple.obj
 0001:0001b460       _my_propagate_complex      0041c460 f   strings:ctype-simple.obj
 0001:0001b4d0       _my_lengthsp_binary        0041c4d0 f   strings:ctype-bin.obj
 0001:0001b670       _my_mbcharlen_8bit         0041c670 f   strings:ctype-bin.obj
 0001:0001b6d0       _my_hash_sort_8bit_bin     0041c6d0 f   strings:ctype-bin.obj
 0001:0001b730       _my_hash_sort_bin          0041c730 f   strings:ctype-bin.obj
 0001:0001b780       _my_wildcmp_bin            0041c780 f   strings:ctype-bin.obj
 0001:0001c080       _my_parse_charset_xml      0041d080 f   strings:ctype.obj
 0001:0001c130       _my_string_repertoire      0041d130 f   strings:ctype.obj
 0001:0001c1b0       _my_charset_is_ascii_based 0041d1b0 f   strings:ctype.obj
 0001:0001c1f0       _my_charset_is_8bit_pure_ascii 0041d1f0 f   strings:ctype.obj
 0001:0001d520       _strxmov                   0041e520 f   strings:strxmov.obj
 0001:0001dd90       _str2int                   0041ed90 f   strings:str2int.obj
 0001:0001df40       _strtoll                   0041ef40 f   strings:strtoll.obj
 0001:0001e170       _llstr                     0041f170 f   strings:llstr.obj
 0001:0001e190       _ullstr                    0041f190 f   strings:llstr.obj
 0001:0001e1b0       _longlong2str              0041f1b0 f   strings:longlong2str.obj
 0001:0001e2f0       _longlong10_to_str         0041f2f0 f   strings:longlong2str.obj
 0001:0001e3f0       _my_wildcmp_unicode        0041f3f0 f   strings:ctype-utf8.obj
 0001:000215f0       _my_strntol_ucs2           004225f0 f   strings:ctype-ucs2.obj
 0001:00021800       _my_strntoul_ucs2          00422800 f   strings:ctype-ucs2.obj
 0001:000219f0       _my_strntoll_ucs2          004229f0 f   strings:ctype-ucs2.obj
 0001:00021ca0       _my_strntoull_ucs2         00422ca0 f   strings:ctype-ucs2.obj
 0001:00021f10       _my_strntod_ucs2           00422f10 f   strings:ctype-ucs2.obj
 0001:00021fe0       _my_strntoull10rnd_ucs2    00422fe0 f   strings:ctype-ucs2.obj
 0001:000220b0       _my_l10tostr_ucs2          004230b0 f   strings:ctype-ucs2.obj
 0001:00022180       _my_ll10tostr_ucs2         00423180 f   strings:ctype-ucs2.obj
 0001:000222a0       _my_strtoll10_ucs2         004232a0 f   strings:ctype-ucs2.obj
 0001:00022990       _my_like_range_ucs2        00423990 f   strings:ctype-ucs2.obj
 0001:00022c80       _my_scan_ucs2              00423c80 f   strings:ctype-ucs2.obj
 0001:000238b0       _my_strnncoll_gbk_internal 004248b0 f   strings:ctype-gbk.obj
 0001:000239e0       _my_strnncoll_gbk          004249e0 f   strings:ctype-gbk.obj
 0001:00027700       _bchange                   00428700 f   strings:bchange.obj
 0001:00027760       _bmove_upp                 00428760 f   strings:bmove_upp.obj
 0001:00027780       _my_strtod                 00428780 f   strings:strtod.obj
 0001:00027b00       _my_atof                   00428b00 f   strings:strtod.obj
 0001:00027b30       _my_strtoll10              00428b30 f   strings:my_strtoll10.obj
 0001:00028320       _my_xml_parse              00429320 f   strings:xml.obj
 0001:000286d0       _my_xml_parser_create      004296d0 f   strings:xml.obj
 0001:000286e0       _my_xml_parser_free        004296e0 f   strings:xml.obj
 0001:000286f0       _my_xml_set_value_handler  004296f0 f   strings:xml.obj
 0001:00028700       _my_xml_set_enter_handler  00429700 f   strings:xml.obj
 0001:00028710       _my_xml_set_leave_handler  00429710 f   strings:xml.obj
 0001:00028720       _my_xml_set_user_data      00429720 f   strings:xml.obj
 0001:00028730       _my_xml_error_string       00429730 f   strings:xml.obj
 0001:00028740       _my_xml_error_pos          00429740 f   strings:xml.obj
 0001:00028770       _my_xml_error_lineno       00429770 f   strings:xml.obj
 0001:000287a0       _my_caseup_str_mb          004297a0 f   strings:ctype-mb.obj
 0001:000287f0       _my_casedn_str_mb          004297f0 f   strings:ctype-mb.obj
 0001:00028840       _my_caseup_mb              00429840 f   strings:ctype-mb.obj
 0001:00028890       _my_casedn_mb              00429890 f   strings:ctype-mb.obj
 0001:000288e0       _my_strcasecmp_mb          004298e0 f   strings:ctype-mb.obj
 0001:00028970       _my_wildcmp_mb             00429970 f   strings:ctype-mb.obj
 0001:00028c90       _my_numchars_mb            00429c90 f   strings:ctype-mb.obj
 0001:00028cd0       _my_charpos_mb             00429cd0 f   strings:ctype-mb.obj
 0001:00028d30       _my_well_formed_len_mb     00429d30 f   strings:ctype-mb.obj
 0001:00028da0       _my_instr_mb               00429da0 f   strings:ctype-mb.obj
 0001:00029110       _my_like_range_mb          0042a110 f   strings:ctype-mb.obj
 0001:00029650       _my_numcells_mb            0042a650 f   strings:ctype-mb.obj
 0001:000296f0       _vio_delete                0042a6f0 f   vio:vio.obj
 0001:00029720       _vio_end                   0042a720 f   vio:vio.obj
 0001:000298a0       _vio_reset                 0042a8a0 f   vio:vio.obj
 0001:000298d0       _vio_new                   0042a8d0 f   vio:vio.obj
 0001:00029950       _vio_new_win32pipe         0042a950 f   vio:vio.obj
 0001:00029a20       _vio_new_win32shared_memory 0042aa20 f   vio:vio.obj
 0001:00029b40       _vio_errno                 0042ab40 f   vio:viosocket.obj
 0001:00029b50       _vio_read                  0042ab50 f   vio:viosocket.obj
 0001:00029b70       _vio_read_buff             0042ab70 f   vio:viosocket.obj
 0001:00029c20       _vio_write                 0042ac20 f   vio:viosocket.obj
 0001:00029c40       _vio_blocking              0042ac40 f   vio:viosocket.obj
 0001:00029cc0       _vio_is_blocking           0042acc0 f   vio:viosocket.obj
 0001:00029cd0       _vio_fastsend              0042acd0 f   vio:viosocket.obj
 0001:00029d00       _vio_keepalive             0042ad00 f   vio:viosocket.obj
 0001:00029d40       _vio_should_retry          0042ad40 f   vio:viosocket.obj
 0001:00029d70       _vio_was_interrupted       0042ad70 f   vio:viosocket.obj
 0001:00029da0       _vio_close                 0042ada0 f   vio:viosocket.obj
 0001:00029e10       _vio_description           0042ae10 f   vio:viosocket.obj
 0001:00029e20       _vio_type                  0042ae20 f   vio:viosocket.obj
 0001:00029e30       _vio_fd                    0042ae30 f   vio:viosocket.obj
 0001:00029e40       _vio_peer_addr             0042ae40 f   vio:viosocket.obj
 0001:00029ec0       _vio_in_addr               0042aec0 f   vio:viosocket.obj
 0001:00029ee0       _vio_poll_read             0042aee0 f   vio:viosocket.obj
 0001:00029ef0       _vio_timeout               0042aef0 f   vio:viosocket.obj
 0001:00029f30       _vio_read_pipe             0042af30 f   vio:viosocket.obj
 0001:00029f60       _vio_write_pipe            0042af60 f   vio:viosocket.obj
 0001:00029f90       _vio_close_pipe            0042af90 f   vio:viosocket.obj
 0001:00029fb0       _vio_ignore_timeout        0042afb0 f   vio:viosocket.obj
 0001:00029fc0       _vio_read_shared_memory    0042afc0 f   vio:viosocket.obj
 0001:0002a0e0       _vio_write_shared_memory   0042b0e0 f   vio:viosocket.obj
 0001:0002a190       _vio_close_shared_memory   0042b190 f   vio:viosocket.obj
 0001:0002a260       _vio_ssl_read              0042b260 f   vio:viossl.obj
 0001:0002a280       _vio_ssl_write             0042b280 f   vio:viossl.obj
 0001:0002a2a0       _vio_ssl_close             0042b2a0 f   vio:viossl.obj
 0001:0002a2e0       _vio_ssl_delete            0042b2e0 f   vio:viossl.obj
 0001:0002a420       _sslaccept                 0042b420 f   vio:viossl.obj
 0001:0002a440       _sslconnect                0042b440 f   vio:viossl.obj
 0001:0002a460       _vio_ssl_blocking          0042b460 f   vio:viossl.obj
 0001:0002a7d0       _new_VioSSLConnectorFd     0042b7d0 f   vio:viosslfactories.obj
 0001:0002a830       _new_VioSSLAcceptorFd      0042b830 f   vio:viosslfactories.obj
 0001:0002a890       ??2@YAPAXIPAUDummy@@@Z     0042b890 f i yassl:ssl.obj
 0001:0002a8a0       ??1Message@yaSSL@@UAE@XZ   0042b8a0 f i yassl:ssl.obj
 0001:0002a8b0       ??_GMessage@yaSSL@@UAEPAXI@Z 0042b8b0 f i yassl:ssl.obj
 0001:0002a8b0       ??_EMessage@yaSSL@@UAEPAXI@Z 0042b8b0 f i yassl:ssl.obj
 0001:0002a8d0       ??1Alert@yaSSL@@UAE@XZ     0042b8d0 f i yassl:ssl.obj
 0001:0002a8e0       ??1HandShakeBase@yaSSL@@UAE@XZ 0042b8e0 f i yassl:ssl.obj
 0001:0002a8f0       ??_EHandShakeBase@yaSSL@@UAEPAXI@Z 0042b8f0 f i yassl:ssl.obj
 0001:0002a8f0       ??_GHandShakeBase@yaSSL@@UAEPAXI@Z 0042b8f0 f i yassl:ssl.obj
 0001:0002a910       ??0EncryptedInfo@yaSSL@@QAE@XZ 0042b910 f i yassl:ssl.obj
 0001:0002a920       ?min@TaoCrypt@@YAIII@Z     0042b920 f i yassl:ssl.obj
 0001:0002a930       ??0Error@TaoCrypt@@QAE@W4ErrorNumber@1@@Z 0042b930 f i yassl:ssl.obj
 0001:0002a940       ?assign@BIGNUM@yaSSL@@QAEXPBEI@Z 0042b940 f i yassl:ssl.obj
 0001:0002a950       ??1Finished@yaSSL@@UAE@XZ  0042b950 f i yassl:ssl.obj
 0001:0002a960       ??1HASH@TaoCrypt@@UAE@XZ   0042b960 f i yassl:ssl.obj
 0001:0002a970       ??_EHASH@TaoCrypt@@UAEPAXI@Z 0042b970 f i yassl:ssl.obj
 0001:0002a970       ??_GHASH@TaoCrypt@@UAEPAXI@Z 0042b970 f i yassl:ssl.obj
 0001:0002a990       ??1HASHwithTransform@TaoCrypt@@UAE@XZ 0042b990 f i yassl:ssl.obj
 0001:0002a9a0       ??0MD5@TaoCrypt@@QAE@XZ    0042b9a0 f i yassl:ssl.obj
 0001:0002a9c0       ?getByteOrder@MD5@TaoCrypt@@UBE?AW4ByteOrder@2@XZ 0042b9c0 f i yassl:ssl.obj
 0001:0002a9d0       ?getBlockSize@MD5@TaoCrypt@@UBEIXZ 0042b9d0 f i yassl:ssl.obj
 0001:0002a9e0       ?getDigestSize@MD5@TaoCrypt@@UBEIXZ 0042b9e0 f i yassl:ssl.obj
 0001:0002a9f0       ?getPadSize@MD5@TaoCrypt@@UBEIXZ 0042b9f0 f i yassl:ssl.obj
 0001:0002aa00       ??0MD4@TaoCrypt@@QAE@XZ    0042ba00 f i yassl:ssl.obj
 0001:0002aa20       ?getByteOrder@MD4@TaoCrypt@@UBE?AW4ByteOrder@2@XZ 0042ba20 f i yassl:ssl.obj
 0001:0002aa30       ?getBlockSize@MD4@TaoCrypt@@UBEIXZ 0042ba30 f i yassl:ssl.obj
 0001:0002aa40       ?getDigestSize@MD4@TaoCrypt@@UBEIXZ 0042ba40 f i yassl:ssl.obj
 0001:0002aa50       ?getPadSize@MD4@TaoCrypt@@UBEIXZ 0042ba50 f i yassl:ssl.obj
 0001:0002aa60       _yaSSLv3_server_method     0042ba60 f   yassl:ssl.obj
 0001:0002aaa0       _yaSSLv3_client_method     0042baa0 f   yassl:ssl.obj
 0001:0002aae0       _yaTLSv1_server_method     0042bae0 f   yassl:ssl.obj
 0001:0002ab20       _yaTLSv1_client_method     0042bb20 f   yassl:ssl.obj
 0001:0002ab60       _yaTLSv1_1_server_method   0042bb60 f   yassl:ssl.obj
 0001:0002aba0       _yaTLSv1_1_client_method   0042bba0 f   yassl:ssl.obj
 0001:0002abe0       _yaSSLv23_server_method    0042bbe0 f   yassl:ssl.obj
 0001:0002ac20       _yaSSLv23_client_method    0042bc20 f   yassl:ssl.obj
 0001:0002ac60       _yaSSL_CTX_new             0042bc60 f   yassl:ssl.obj
 0001:0002ac90       _yaSSL_new                 0042bc90 f   yassl:ssl.obj
 0001:0002acc0       _yaSSL_set_fd              0042bcc0 f   yassl:ssl.obj
 0001:0002ace0       _yaSSL_get_fd              0042bce0 f   yassl:ssl.obj
 0001:0002acf0       _yaSSL_connect             0042bcf0 f   yassl:ssl.obj
 0001:0002af40       _yaSSL_write               0042bf40 f   yassl:ssl.obj
 0001:0002af50       ??1Data@yaSSL@@UAE@XZ      0042bf50 f i yassl:ssl.obj
 0001:0002af60       _yaSSL_accept              0042bf60 f   yassl:ssl.obj
 0001:0002b1e0       _yaSSL_do_handshake        0042c1e0 f   yassl:ssl.obj
 0001:0002b210       _yaSSL_clear               0042c210 f   yassl:ssl.obj
 0001:0002b230       _yaSSL_shutdown            0042c230 f   yassl:ssl.obj
 0001:0002b2a0       _yaSSL_set_quiet_shutdown  0042c2a0 f   yassl:ssl.obj
 0001:0002b2c0       _yaSSL_get_quiet_shutdown  0042c2c0 f   yassl:ssl.obj
 0001:0002b2d0       _yaSSL_CTX_set_session_cache_mode 0042c2d0 f   yassl:ssl.obj
 0001:0002b2f0       _yaSSL_get_session         0042c2f0 f   yassl:ssl.obj
 0001:0002b340       _yaSSL_set_session         0042c340 f   yassl:ssl.obj
 0001:0002b380       _yaSSL_session_reused      0042c380 f   yassl:ssl.obj
 0001:0002b3a0       _yaSSL_SESSION_set_timeout 0042c3a0 f   yassl:ssl.obj
 0001:0002b3c0       _yaSSL_get_default_timeout 0042c3c0 f   yassl:ssl.obj
 0001:0002b3d0       _yaSSL_get_cipher          0042c3d0 f   yassl:ssl.obj
 0001:0002b3f0       _yaSSL_get_shared_ciphers  0042c3f0 f   yassl:ssl.obj
 0001:0002b410       _yaSSL_get_cipher_list     0042c410 f   yassl:ssl.obj
 0001:0002b470       _yaSSL_CTX_set_cipher_list 0042c470 f   yassl:ssl.obj
 0001:0002b490       _yaSSL_get_version         0042c490 f   yassl:ssl.obj
 0001:0002b4b0       _yaSSLeay_version          0042c4b0 f   yassl:ssl.obj
 0001:0002b4c0       _yaSSL_get_error           0042c4c0 f   yassl:ssl.obj
 0001:0002b4d0       _yaSSL_set_compression     0042c4d0 f   yassl:ssl.obj
 0001:0002b4e0       _yaSSL_get_peer_certificate 0042c4e0 f   yassl:ssl.obj
 0001:0002b500       _yaX509_free               0042c500 f   yassl:ssl.obj
 0001:0002b510       _yaX509_STORE_CTX_get_current_cert 0042c510 f   yassl:ssl.obj
 0001:0002b520       _yaX509_STORE_CTX_get_error 0042c520 f   yassl:ssl.obj
 0001:0002b530       _yaX509_STORE_CTX_get_error_depth 0042c530 f   yassl:ssl.obj
 0001:0002b540       _yaX509_NAME_oneline       0042c540 f   yassl:ssl.obj
 0001:0002b5d0       _yaX509_get_issuer_name    0042c5d0 f   yassl:ssl.obj
 0001:0002b5e0       _yaX509_get_subject_name   0042c5e0 f   yassl:ssl.obj
 0001:0002b5f0       _yaSSL_load_error_strings  0042c5f0 f   yassl:ssl.obj
 0001:0002b600       _yaSSL_set_connect_state   0042c600 f   yassl:ssl.obj
 0001:0002b610       _yaSSL_set_accept_state    0042c610 f   yassl:ssl.obj
 0001:0002b630       _yaSSL_get_verify_result   0042c630 f   yassl:ssl.obj
 0001:0002b640       _yaSSL_CTX_sess_set_cache_size 0042c640 f   yassl:ssl.obj
 0001:0002b650       _yaSSL_CTX_get_session_cache_mode 0042c650 f   yassl:ssl.obj
 0001:0002b660       _yaSSL_CTX_set_tmp_dh      0042c660 f   yassl:ssl.obj
 0001:0002b680       _yaSSL_CTX_set_verify      0042c680 f   yassl:ssl.obj
 0001:0002b6c0       _yaSSL_CTX_set_default_verify_paths 0042c6c0 f   yassl:ssl.obj
 0001:0002b6d0       _yaSSL_CTX_set_session_id_context 0042c6d0 f   yassl:ssl.obj
 0001:0002b6e0       _yaSSL_CTX_check_private_key 0042c6e0 f   yassl:ssl.obj
 0001:0002b6f0       _yaSSL_CTX_sess_accept     0042c6f0 f   yassl:ssl.obj
 0001:0002b700       _yaSSL_CTX_sess_connect    0042c700 f   yassl:ssl.obj
 0001:0002b710       _yaSSL_CTX_sess_accept_good 0042c710 f   yassl:ssl.obj
 0001:0002b720       _yaSSL_CTX_sess_connect_good 0042c720 f   yassl:ssl.obj
 0001:0002b730       _yaSSL_CTX_sess_accept_renegotiate 0042c730 f   yassl:ssl.obj
 0001:0002b740       _yaSSL_CTX_sess_connect_renegotiate 0042c740 f   yassl:ssl.obj
 0001:0002b750       _yaSSL_CTX_sess_hits       0042c750 f   yassl:ssl.obj
 0001:0002b760       _yaSSL_CTX_sess_cb_hits    0042c760 f   yassl:ssl.obj
 0001:0002b770       _yaSSL_CTX_sess_cache_full 0042c770 f   yassl:ssl.obj
 0001:0002b780       _yaSSL_CTX_sess_misses     0042c780 f   yassl:ssl.obj
 0001:0002b790       _yaSSL_CTX_sess_timeouts   0042c790 f   yassl:ssl.obj
 0001:0002b7a0       _yaSSL_CTX_sess_number     0042c7a0 f   yassl:ssl.obj
 0001:0002b7b0       _yaSSL_CTX_sess_get_cache_size 0042c7b0 f   yassl:ssl.obj
 0001:0002b7c0       _yaSSL_CTX_get_verify_mode 0042c7c0 f   yassl:ssl.obj
 0001:0002b7d0       _yaSSL_get_verify_mode     0042c7d0 f   yassl:ssl.obj
 0001:0002b7f0       _yaSSL_CTX_get_verify_depth 0042c7f0 f   yassl:ssl.obj
 0001:0002b800       _yaSSL_get_verify_depth    0042c800 f   yassl:ssl.obj
 0001:0002b820       _yaSSL_CTX_set_options     0042c820 f   yassl:ssl.obj
 0001:0002b830       _yaSSL_CTX_set_info_callback 0042c830 f   yassl:ssl.obj
 0001:0002b840       _yaOpenSSL_add_all_algorithms 0042c840 f   yassl:ssl.obj
 0001:0002b850       _yaSSL_library_init        0042c850 f   yassl:ssl.obj
 0001:0002b860       _yaDH_new                  0042c860 f   yassl:ssl.obj
 0001:0002b880       ??0BIGNUM@yaSSL@@QAE@XZ    0042c880 f i yassl:ssl.obj
 0001:0002b890       _yaERR_get_error_line_data 0042c890 f   yassl:ssl.obj
 0001:0002b8a0       _yaERR_print_errors_fp     0042c8a0 f   yassl:ssl.obj
 0001:0002b8b0       _yaERR_error_string        0042c8b0 f   yassl:ssl.obj
 0001:0002b8e0       _yaX509_verify_cert_error_string 0042c8e0 f   yassl:ssl.obj
 0001:0002b8f0       _yaEVP_md5                 0042c8f0 f   yassl:ssl.obj
 0001:0002b900       _yaEVP_des_ede3_cbc        0042c900 f   yassl:ssl.obj
 0001:0002b910       _yaEVP_BytesToKey          0042c910 f   yassl:ssl.obj
 0001:0002bb70       _yaDES_set_key_unchecked   0042cb70 f   yassl:ssl.obj
 0001:0002bb90       _yaDES_ede3_cbc_encrypt    0042cb90 f   yassl:ssl.obj
 0001:0002bc60       _yaRAND_status             0042cc60 f   yassl:ssl.obj
 0001:0002bc70       _yaDES_set_key             0042cc70 f   yassl:ssl.obj
 0001:0002bc90       _yaDES_set_odd_parity      0042cc90 f   yassl:ssl.obj
 0001:0002bca0       _yaDES_ecb_encrypt         0042cca0 f   yassl:ssl.obj
 0001:0002bd10       _yaSSL_CTX_set_default_passwd_cb_userdata 0042cd10 f   yassl:ssl.obj
 0001:0002bd20       _yaSSL_get_certificate     0042cd20 f   yassl:ssl.obj
 0001:0002bd30       _yaSSL_get_privatekey      0042cd30 f   yassl:ssl.obj
 0001:0002bd40       _yaSSL_SESSION_free        0042cd40 f   yassl:ssl.obj
 0001:0002bd50       _yaX509_get_pubkey         0042cd50 f   yassl:ssl.obj
 0001:0002bd60       _yaEVP_PKEY_copy_parameters 0042cd60 f   yassl:ssl.obj
 0001:0002bd70       _yaEVP_PKEY_free           0042cd70 f   yassl:ssl.obj
 0001:0002bd80       _yaERR_error_string_n      0042cd80 f   yassl:ssl.obj
 0001:0002bda0       _yaERR_free_strings        0042cda0 f   yassl:ssl.obj
 0001:0002bdb0       _yaEVP_cleanup             0042cdb0 f   yassl:ssl.obj
 0001:0002bdc0       _yaX509_get_notBefore      0042cdc0 f   yassl:ssl.obj
 0001:0002bdd0       _yaX509_get_notAfter       0042cdd0 f   yassl:ssl.obj
 0001:0002bde0       _yaSSLv2_client_method     0042cde0 f   yassl:ssl.obj
 0001:0002bdf0       _yaSSL_get1_session        0042cdf0 f   yassl:ssl.obj
 0001:0002be40       _yaGENERAL_NAMES_free      0042ce40 f   yassl:ssl.obj
 0001:0002be50       _yask_GENERAL_NAME_num     0042ce50 f   yassl:ssl.obj
 0001:0002be60       _yask_GENERAL_NAME_value   0042ce60 f   yassl:ssl.obj
 0001:0002be70       _yaASN1_STRING_data        0042ce70 f   yassl:ssl.obj
 0001:0002be80       _yaASN1_STRING_length      0042ce80 f   yassl:ssl.obj
 0001:0002be90       _yaASN1_STRING_type        0042ce90 f   yassl:ssl.obj
 0001:0002bea0       _yaX509_NAME_get_index_by_NID 0042cea0 f   yassl:ssl.obj
 0001:0002bee0       _yaX509_NAME_ENTRY_get_data 0042cee0 f   yassl:ssl.obj
 0001:0002bef0       _yaX509_NAME_get_entry     0042cef0 f   yassl:ssl.obj
 0001:0002bf00       _yaASN1_STRING_to_UTF8     0042cf00 f   yassl:ssl.obj
 0001:0002bf50       _yaX509_get_ext_d2i        0042cf50 f   yassl:ssl.obj
 0001:0002bf60       _yaMD4_Init                0042cf60 f   yassl:ssl.obj
 0001:0002bf90       _yaMD4_Update              0042cf90 f   yassl:ssl.obj
 0001:0002bfb0       _yaMD4_Final               0042cfb0 f   yassl:ssl.obj
 0001:0002bfc0       _yaMD5_Init                0042cfc0 f   yassl:ssl.obj
 0001:0002bff0       _yaMD5_Update              0042cff0 f   yassl:ssl.obj
 0001:0002c010       _yaMD5_Final               0042d010 f   yassl:ssl.obj
 0001:0002c020       _yaRAND_bytes              0042d020 f   yassl:ssl.obj
 0001:0002c070       _yaSSL_peek                0042d070 f   yassl:ssl.obj
 0001:0002c0b0       _yaSSL_pending             0042d0b0 f   yassl:ssl.obj
 0001:0002c0f0       _yaSSL_CTX_set_default_passwd_cb 0042d0f0 f   yassl:ssl.obj
 0001:0002c100       _yaSSLeay_add_ssl_algorithms 0042d100 f   yassl:ssl.obj
 0001:0002c110       _yaERR_remove_state        0042d110 f   yassl:ssl.obj
 0001:0002c120       _yaERR_GET_REASON          0042d120 f   yassl:ssl.obj
 0001:0002c130       _err_helper                0042d130 f   yassl:ssl.obj
 0001:0002c160       _yaERR_peek_error          0042d160 f   yassl:ssl.obj
 0001:0002c190       _yaERR_get_error           0042d190 f   yassl:ssl.obj
 0001:0002c1c0       _yaRAND_screen             0042d1c0 f   yassl:ssl.obj
 0001:0002c1d0       _yaRAND_file_name          0042d1d0 f   yassl:ssl.obj
 0001:0002c1e0       _yaRAND_write_file         0042d1e0 f   yassl:ssl.obj
 0001:0002c1f0       _yaRAND_load_file          0042d1f0 f   yassl:ssl.obj
 0001:0002c200       _yaRSA_free                0042d200 f   yassl:ssl.obj
 0001:0002c210       _yaRSA_generate_key        0042d210 f   yassl:ssl.obj
 0001:0002c220       _yaX509_LOOKUP_add_dir     0042d220 f   yassl:ssl.obj
 0001:0002c230       _yaX509_LOOKUP_load_file   0042d230 f   yassl:ssl.obj
 0001:0002c240       _yaX509_LOOKUP_hash_dir    0042d240 f   yassl:ssl.obj
 0001:0002c250       _yaX509_LOOKUP_file        0042d250 f   yassl:ssl.obj
 0001:0002c260       _yaX509_STORE_add_lookup   0042d260 f   yassl:ssl.obj
 0001:0002c270       _yaX509_STORE_get_by_subject 0042d270 f   yassl:ssl.obj
 0001:0002c280       _yaX509_STORE_new          0042d280 f   yassl:ssl.obj
 0001:0002c290       _yaSSL_alert_type_string_long 0042d290 f   yassl:ssl.obj
 0001:0002c2a0       _yaSSL_alert_desc_string_long 0042d2a0 f   yassl:ssl.obj
 0001:0002c2b0       _yaSSL_state_string_long   0042d2b0 f   yassl:ssl.obj
 0001:0002c2c0       _yaSSL_CTX_set_tmp_rsa_callback 0042d2c0 f   yassl:ssl.obj
 0001:0002c2d0       _yaSSL_CTX_set_timeout     0042d2d0 f   yassl:ssl.obj
 0001:0002c2e0       _yaSSL_CTX_use_certificate_chain_file 0042d2e0 f   yassl:ssl.obj
 0001:0002c2f0       _yaSSL_CTX_use_RSAPrivateKey_file 0042d2f0 f   yassl:ssl.obj
 0001:0002c300       _yaSSL_set_rfd             0042d300 f   yassl:ssl.obj
 0001:0002c310       _yaSSL_set_wfd             0042d310 f   yassl:ssl.obj
 0001:0002c320       _yaSSL_want_read           0042d320 f   yassl:ssl.obj
 0001:0002c330       _yaSSL_want_write          0042d330 f   yassl:ssl.obj
 0001:0002c340       _yaSSL_set_shutdown        0042d340 f   yassl:ssl.obj
 0001:0002c350       _yaSSL_get_current_cipher  0042d350 f   yassl:ssl.obj
 0001:0002c360       _yaSSL_CIPHER_description  0042d360 f   yassl:ssl.obj
 0001:0002c370       ?size@?$Block@EV?$AllocatorWithCleanup@E@TaoCrypt@@@TaoCrypt@@QBEIXZ 0042d370 f i yassl:ssl.obj
 0001:0002c380       ?get_buffer@?$Block@EV?$AllocatorWithCleanup@E@TaoCrypt@@@TaoCrypt@@QBEPAEXZ 0042d380 f i yassl:ssl.obj
 0001:0002c390       ??0?$auto_ptr@UBulkCipher@yaSSL@@@mySTL@@QAE@PAUBulkCipher@yaSSL@@@Z 0042d390 f i yassl:ssl.obj
 0001:0002c3a0       ??C?$auto_ptr@UBulkCipher@yaSSL@@@mySTL@@QBEPAUBulkCipher@yaSSL@@XZ 0042d3a0 f i yassl:ssl.obj
 0001:0002c3b0       ??0?$auto_ptr@Vx509@yaSSL@@@mySTL@@QAE@PAVx509@yaSSL@@@Z 0042d3b0 f i yassl:ssl.obj
 0001:0002c3c0       ??C?$auto_ptr@Vx509@yaSSL@@@mySTL@@QBEPAVx509@yaSSL@@XZ 0042d3c0 f i yassl:ssl.obj
 0001:0002c3d0       ?release@?$auto_ptr@Vx509@yaSSL@@@mySTL@@QAEPAVx509@yaSSL@@XZ 0042d3d0 f i yassl:ssl.obj
 0001:0002c3e0       ??0?$auto_ptr@UBIGNUM@yaSSL@@@mySTL@@QAE@PAUBIGNUM@yaSSL@@@Z 0042d3e0 f i yassl:ssl.obj
 0001:0002c3f0       ?get@?$auto_ptr@UBIGNUM@yaSSL@@@mySTL@@QBEPAUBIGNUM@yaSSL@@XZ 0042d3f0 f i yassl:ssl.obj
 0001:0002c400       ?release@?$auto_ptr@UBIGNUM@yaSSL@@@mySTL@@QAEPAUBIGNUM@yaSSL@@XZ 0042d400 f i yassl:ssl.obj
 0001:0002c410       ?CheckSize@?$AllocatorBase@E@TaoCrypt@@KAXI@Z 0042d410 f i yassl:ssl.obj
 0001:0002c420       ??$tcArrayDelete@E@TaoCrypt@@YAXPAE@Z 0042d420 f i yassl:ssl.obj
 0001:0002c430       ??$ysDelete@UDH@yaSSL@@@yaSSL@@YAXPAUDH@0@@Z 0042d430 f i yassl:ssl.obj
 0001:0002c440       ??$swap@V?$AllocatorWithCleanup@E@TaoCrypt@@@mySTL@@YAXAAV?$AllocatorWithCleanup@E@TaoCrypt@@0@Z 0042d440 f i yassl:ssl.obj
 0001:0002c450       ??$ysDelete@UBulkCipher@yaSSL@@@yaSSL@@YAXPAUBulkCipher@0@@Z 0042d450 f i yassl:ssl.obj
 0001:0002c460       ??_Gx509@yaSSL@@QAEPAXI@Z  0042d460 f i yassl:ssl.obj
 0001:0002c480       ??_GSSL_CTX@yaSSL@@QAEPAXI@Z 0042d480 f i yassl:ssl.obj
 0001:0002c4a0       ??1BIGNUM@yaSSL@@QAE@XZ    0042d4a0 f i yassl:ssl.obj
 0001:0002c4b0       ??1Security@yaSSL@@QAE@XZ  0042d4b0 f i yassl:ssl.obj
 0001:0002c4d0       ??1sslHashes@yaSSL@@QAE@XZ 0042d4d0 f i yassl:ssl.obj
 0001:0002c4f0       ??_EMD5@TaoCrypt@@UAEPAXI@Z 0042d4f0 f i yassl:ssl.obj
 0001:0002c4f0       ??_GMD5@TaoCrypt@@UAEPAXI@Z 0042d4f0 f i yassl:ssl.obj
 0001:0002c510       ??_EMD4@TaoCrypt@@UAEPAXI@Z 0042d510 f i yassl:ssl.obj
 0001:0002c510       ??_GMD4@TaoCrypt@@UAEPAXI@Z 0042d510 f i yassl:ssl.obj
 0001:0002c530       ?size@Source@TaoCrypt@@QBEIXZ 0042d530 f i yassl:ssl.obj
 0001:0002c540       ?get_buffer@Source@TaoCrypt@@QBEPBEXZ 0042d540 f i yassl:ssl.obj
 0001:0002c550       _yaSSLv3_method            0042d550 f   yassl:ssl.obj
 0001:0002c590       _yaSSL_read                0042d590 f   yassl:ssl.obj
 0001:0002c5d0       _yaSSL_get_cipher_name     0042d5d0 f   yassl:ssl.obj
 0001:0002c5f0       ?allocate@?$AllocatorWithCleanup@E@TaoCrypt@@QAEPAEIPBX@Z 0042d5f0 f i yassl:ssl.obj
 0001:0002c610       ?deallocate@?$AllocatorWithCleanup@E@TaoCrypt@@QAEXPAXI@Z 0042d610 f i yassl:ssl.obj
 0001:0002c640       ?Destroy@?$auto_ptr@UBulkCipher@yaSSL@@@mySTL@@AAEXXZ 0042d640 f i yassl:ssl.obj
 0001:0002c650       ??$ysDelete@Vx509@yaSSL@@@yaSSL@@YAXPAVx509@0@@Z 0042d650 f i yassl:ssl.obj
 0001:0002c670       ??$ysDelete@VSSL_CTX@yaSSL@@@yaSSL@@YAXPAVSSL_CTX@0@@Z 0042d670 f i yassl:ssl.obj
 0001:0002c690       ??$StdReallocate@EV?$AllocatorWithCleanup@E@TaoCrypt@@@TaoCrypt@@YAPAEAAV?$AllocatorWithCleanup@E@0@PAEII_N@Z 0042d690 f i yassl:ssl.obj
 0001:0002c740       ??_GBIGNUM@yaSSL@@QAEPAXI@Z 0042d740 f i yassl:ssl.obj
 0001:0002c760       ??1SSL@yaSSL@@QAE@XZ       0042d760 f i yassl:ssl.obj
 0001:0002c7c0       _yaSSL_CTX_free            0042d7c0 f   yassl:ssl.obj
 0001:0002c7e0       ??0?$Block@EV?$AllocatorWithCleanup@E@TaoCrypt@@@TaoCrypt@@QAE@PBEI@Z 0042d7e0 f i yassl:ssl.obj
 0001:0002c820       ??1?$Block@EV?$AllocatorWithCleanup@E@TaoCrypt@@@TaoCrypt@@QAE@XZ 0042d820 f i yassl:ssl.obj
 0001:0002c850       ??1?$auto_ptr@UBulkCipher@yaSSL@@@mySTL@@QAE@XZ 0042d850 f i yassl:ssl.obj
 0001:0002c860       ?reset@?$auto_ptr@UBulkCipher@yaSSL@@@mySTL@@QAEXPAUBulkCipher@yaSSL@@@Z 0042d860 f i yassl:ssl.obj
 0001:0002c880       ?reallocate@?$AllocatorWithCleanup@E@TaoCrypt@@QAEPAEPAEII_N@Z 0042d880 f i yassl:ssl.obj
 0001:0002c8a0       ?Destroy@?$auto_ptr@Vx509@yaSSL@@@mySTL@@AAEXXZ 0042d8a0 f i yassl:ssl.obj
 0001:0002c8c0       ?New@?$Block@EV?$AllocatorWithCleanup@E@TaoCrypt@@@TaoCrypt@@QAEXI@Z 0042d8c0 f i yassl:ssl.obj
 0001:0002c920       ??$ysDelete@UBIGNUM@yaSSL@@@yaSSL@@YAXPAUBIGNUM@0@@Z 0042d920 f i yassl:ssl.obj
 0001:0002c940       ??_GSSL@yaSSL@@QAEPAXI@Z   0042d940 f i yassl:ssl.obj
 0001:0002c960       ??0Source@TaoCrypt@@QAE@PBEI@Z 0042d960 f i yassl:ssl.obj
 0001:0002c9b0       ??1Source@TaoCrypt@@QAE@XZ 0042d9b0 f i yassl:ssl.obj
 0001:0002c9e0       ??1HexDecoder@TaoCrypt@@QAE@XZ 0042d9e0 f i yassl:ssl.obj
 0001:0002ca10       _yaDH_free                 0042da10 f   yassl:ssl.obj
 0001:0002ca50       ??1?$auto_ptr@Vx509@yaSSL@@@mySTL@@QAE@XZ 0042da50 f i yassl:ssl.obj
 0001:0002ca70       ?CleanNew@?$Block@EV?$AllocatorWithCleanup@E@TaoCrypt@@@TaoCrypt@@QAEXI@Z 0042da70 f i yassl:ssl.obj
 0001:0002caa0       ?Destroy@?$auto_ptr@UBIGNUM@yaSSL@@@mySTL@@AAEXXZ 0042daa0 f i yassl:ssl.obj
 0001:0002cac0       ??$ysDelete@VSSL@yaSSL@@@yaSSL@@YAXPAVSSL@0@@Z 0042dac0 f i yassl:ssl.obj
 0001:0002cae0       _yaSSL_free                0042dae0 f   yassl:ssl.obj
 0001:0002cb00       ??0?$Block@EV?$AllocatorWithCleanup@E@TaoCrypt@@@TaoCrypt@@QAE@I@Z 0042db00 f i yassl:ssl.obj
 0001:0002cb40       ??1?$auto_ptr@UBIGNUM@yaSSL@@@mySTL@@QAE@XZ 0042db40 f i yassl:ssl.obj
 0001:0002cb60       ?reset@?$auto_ptr@UBIGNUM@yaSSL@@@mySTL@@QAEXPAUBIGNUM@yaSSL@@@Z 0042db60 f i yassl:ssl.obj
 0001:0002cb90       ??0HexDecoder@TaoCrypt@@QAE@AAVSource@1@@Z 0042db90 f i yassl:ssl.obj
 0001:0002cbe0       ?read_file@yaSSL@@YAHPAVSSL_CTX@1@PBDHW4CertType@1@@Z 0042dbe0 f   yassl:ssl.obj
 0001:0002d060       _yaSSL_CTX_use_certificate_file 0042e060 f   yassl:ssl.obj
 0001:0002d080       _yaSSL_CTX_use_PrivateKey_file 0042e080 f   yassl:ssl.obj
 0001:0002d0a0       _yaSSL_CTX_load_verify_locations 0042e0a0 f   yassl:ssl.obj
 0001:0002d1e0       _yaBN_bin2bn               0042e1e0 f   yassl:ssl.obj
 0001:0002d250       ??0Lock@Mutex@yaSSL@@QAE@AAV12@@Z 0042e250 f i yassl:yassl_int.obj
 0001:0002d260       ??0Ciphers@yaSSL@@QAE@XZ   0042e260 f i yassl:yassl_int.obj
 0001:0002d270       ??0DH_Parms@yaSSL@@QAE@XZ  0042e270 f i yassl:yassl_int.obj
 0001:0002d290       ??0Stats@yaSSL@@QAE@XZ     0042e290 f i yassl:yassl_int.obj
 0001:0002d2d0       ?c32to24@yaSSL@@YAXIAAY02E@Z 0042e2d0 f   yassl:yassl_int.obj
 0001:0002d2f0       ?c24to32@yaSSL@@YAXQBEAAI@Z 0042e2f0 f   yassl:yassl_int.obj
 0001:0002d320       ?c24to32@yaSSL@@YAIQBE@Z   0042e320 f   yassl:yassl_int.obj
 0001:0002d340       ?ato16@yaSSL@@YAXPBEAAG@Z  0042e340 f   yassl:yassl_int.obj
 0001:0002d360       ?ato24@yaSSL@@YAXPBEAAY02E@Z 0042e360 f   yassl:yassl_int.obj
 0001:0002d380       ?c16toa@yaSSL@@YAXGPAE@Z   0042e380 f   yassl:yassl_int.obj
 0001:0002d390       ?c24toa@yaSSL@@YAXQBEPAE@Z 0042e390 f   yassl:yassl_int.obj
 0001:0002d3b0       ?c32toa@yaSSL@@YAXIPAE@Z   0042e3b0 f   yassl:yassl_int.obj
 0001:0002d3e0       ??0States@yaSSL@@QAE@XZ    0042e3e0 f   yassl:yassl_int.obj
 0001:0002d410       ?getRecord@States@yaSSL@@QBEABW4RecordLayerState@2@XZ 0042e410 f   yassl:yassl_int.obj
 0001:0002d420       ?getHandShake@States@yaSSL@@QBEABW4HandShakeState@2@XZ 0042e420 f   yassl:yassl_int.obj
 0001:0002d430       ?getClient@States@yaSSL@@QBEABW4ClientState@2@XZ 0042e430 f   yassl:yassl_int.obj
 0001:0002d440       ?getServer@States@yaSSL@@QBEABW4ServerState@2@XZ 0042e440 f   yassl:yassl_int.obj
 0001:0002d450       ?GetConnect@States@yaSSL@@QBEABW4ConnectState@2@XZ 0042e450 f   yassl:yassl_int.obj
 0001:0002d460       ?GetAccept@States@yaSSL@@QBEABW4AcceptState@2@XZ 0042e460 f   yassl:yassl_int.obj
 0001:0002d470       ?getString@States@yaSSL@@QBEPBDXZ 0042e470 f   yassl:yassl_int.obj
 0001:0002d480       ?What@States@yaSSL@@QBE?AW4YasslError@2@XZ 0042e480 f   yassl:yassl_int.obj
 0001:0002d490       ?useRecord@States@yaSSL@@QAEAAW4RecordLayerState@2@XZ 0042e490 f   yassl:yassl_int.obj
 0001:0002d4a0       ?useHandShake@States@yaSSL@@QAEAAW4HandShakeState@2@XZ 0042e4a0 f   yassl:yassl_int.obj
 0001:0002d4b0       ?useClient@States@yaSSL@@QAEAAW4ClientState@2@XZ 0042e4b0 f   yassl:yassl_int.obj
 0001:0002d4c0       ?useServer@States@yaSSL@@QAEAAW4ServerState@2@XZ 0042e4c0 f   yassl:yassl_int.obj
 0001:0002d4d0       ?UseConnect@States@yaSSL@@QAEAAW4ConnectState@2@XZ 0042e4d0 f   yassl:yassl_int.obj
 0001:0002d4e0       ?UseAccept@States@yaSSL@@QAEAAW4AcceptState@2@XZ 0042e4e0 f   yassl:yassl_int.obj
 0001:0002d4f0       ?useString@States@yaSSL@@QAEPADXZ 0042e4f0 f   yassl:yassl_int.obj
 0001:0002d500       ?SetError@States@yaSSL@@QAEXW4YasslError@2@@Z 0042e500 f   yassl:yassl_int.obj
 0001:0002d510       ?getMessage@sslFactory@yaSSL@@QBEABV?$Factory@UMessage@yaSSL@@HP6APAU12@XZ@2@XZ 0042e510 f   yassl:yassl_int.obj
 0001:0002d520       ?getHandShake@sslFactory@yaSSL@@QBEABV?$Factory@VHandShakeBase@yaSSL@@HP6APAV12@XZ@2@XZ 0042e520 f   yassl:yassl_int.obj
 0001:0002d530       ?getServerKey@sslFactory@yaSSL@@QBEABV?$Factory@UServerKeyBase@yaSSL@@HP6APAU12@XZ@2@XZ 0042e530 f   yassl:yassl_int.obj
 0001:0002d540       ?getClientKey@sslFactory@yaSSL@@QBEABV?$Factory@UClientKeyBase@yaSSL@@HP6APAU12@XZ@2@XZ 0042e540 f   yassl:yassl_int.obj
 0001:0002d550       ?SetCompression@SSL@yaSSL@@QAEHXZ 0042e550 f   yassl:yassl_int.obj
 0001:0002d560       ?SetError@SSL@yaSSL@@QAEXW4YasslError@2@@Z 0042e560 f   yassl:yassl_int.obj
 0001:0002d570       ?SetQuietShutdown@SSL@yaSSL@@QAEX_N@Z 0042e570 f   yassl:yassl_int.obj
 0001:0002d580       ?useBuffers@SSL@yaSSL@@QAEAAVBuffers@2@XZ 0042e580 f   yassl:yassl_int.obj
 0001:0002d640       ?order_error@SSL@yaSSL@@QAEXXZ 0042e640 f   yassl:yassl_int.obj
 0001:0002d650       ??0SumData@yassl_int_cpp_local1@yaSSL@@QAE@XZ 0042e650 f i yassl:yassl_int.obj
 0001:0002d660       ??RSumData@yassl_int_cpp_local1@yaSSL@@QAEXPAVinput_buffer@2@@Z 0042e660 f i yassl:yassl_int.obj
 0001:0002d680       ??0SumBuffer@yassl_int_cpp_local1@yaSSL@@QAE@XZ 0042e680 f i yassl:yassl_int.obj
 0001:0002d690       ??RSumBuffer@yassl_int_cpp_local1@yaSSL@@QAEXPAVoutput_buffer@2@@Z 0042e690 f i yassl:yassl_int.obj
 0001:0002d6b0       ?Send@SSL@yaSSL@@QAEXPBEI@Z 0042e6b0 f   yassl:yassl_int.obj
 0001:0002d6e0       ?getCrypto@SSL@yaSSL@@QBEABVCrypto@2@XZ 0042e6e0 f   yassl:yassl_int.obj
 0001:0002d6f0       ?getSecurity@SSL@yaSSL@@QBEABVSecurity@2@XZ 0042e6f0 f   yassl:yassl_int.obj
 0001:0002d700       ?getStates@SSL@yaSSL@@QBEABVStates@2@XZ 0042e700 f   yassl:yassl_int.obj
 0001:0002d710       ?getHashes@SSL@yaSSL@@QBEABVsslHashes@2@XZ 0042e710 f   yassl:yassl_int.obj
 0001:0002d720       ?getSocket@SSL@yaSSL@@QBEABVSocket@2@XZ 0042e720 f   yassl:yassl_int.obj
 0001:0002d730       ?GetError@SSL@yaSSL@@QBE?AW4YasslError@2@XZ 0042e730 f   yassl:yassl_int.obj
 0001:0002d740       ?GetQuietShutdown@SSL@yaSSL@@QBE_NXZ 0042e740 f   yassl:yassl_int.obj
 0001:0002d750       ?useCrypto@SSL@yaSSL@@QAEAAVCrypto@2@XZ 0042e750 f   yassl:yassl_int.obj
 0001:0002d760       ?useSecurity@SSL@yaSSL@@QAEAAVSecurity@2@XZ 0042e760 f   yassl:yassl_int.obj
 0001:0002d770       ?useStates@SSL@yaSSL@@QAEAAVStates@2@XZ 0042e770 f   yassl:yassl_int.obj
 0001:0002d780       ?useHashes@SSL@yaSSL@@QAEAAVsslHashes@2@XZ 0042e780 f   yassl:yassl_int.obj
 0001:0002d790       ?useSocket@SSL@yaSSL@@QAEAAVSocket@2@XZ 0042e790 f   yassl:yassl_int.obj
 0001:0002d7a0       ?useLog@SSL@yaSSL@@QAEAAVLog@2@XZ 0042e7a0 f   yassl:yassl_int.obj
 0001:0002d7b0       ?HasData@SSL@yaSSL@@QBE_NXZ 0042e7b0 f   yassl:yassl_int.obj
 0001:0002d7c0       ??0SSL_SESSION@yaSSL@@QAE@AAVRandomPool@1@@Z 0042e7c0 f   yassl:yassl_int.obj
 0001:0002d810       ?GetID@SSL_SESSION@yaSSL@@QBEPBEXZ 0042e810 f   yassl:yassl_int.obj
 0001:0002d820       ?GetSecret@SSL_SESSION@yaSSL@@QBEPBEXZ 0042e820 f   yassl:yassl_int.obj
 0001:0002d830       ?GetSuite@SSL_SESSION@yaSSL@@QBEPBEXZ 0042e830 f   yassl:yassl_int.obj
 0001:0002d840       ?GetPeerX509@SSL_SESSION@yaSSL@@QBEPAVX509@2@XZ 0042e840 f   yassl:yassl_int.obj
 0001:0002d850       ?GetBornOn@SSL_SESSION@yaSSL@@QBEIXZ 0042e850 f   yassl:yassl_int.obj
 0001:0002d860       ?GetTimeOut@SSL_SESSION@yaSSL@@QBEIXZ 0042e860 f   yassl:yassl_int.obj
 0001:0002d870       ?SetTimeOut@SSL_SESSION@yaSSL@@QAEXI@Z 0042e870 f   yassl:yassl_int.obj
 0001:0002d880       ??0sess_match@yassl_int_cpp_local2@yaSSL@@QAE@PBE@Z 0042e880 f i yassl:yassl_int.obj
 0001:0002d890       ??Rsess_match@yassl_int_cpp_local2@yaSSL@@QAE_NPAVSSL_SESSION@2@@Z 0042e890 f i yassl:yassl_int.obj
 0001:0002d8b0       ?GetSelf@yassl_int_cpp_local2@yaSSL@@YAKXZ 0042e8b0 f   yassl:yassl_int.obj
 0001:0002d8c0       ??0thr_match@yassl_int_cpp_local2@yaSSL@@QAE@XZ 0042e8c0 f i yassl:yassl_int.obj
 0001:0002d8d0       ??Rthr_match@yassl_int_cpp_local2@yaSSL@@QAE_NUThreadError@2@@Z 0042e8d0 f i yassl:yassl_int.obj
 0001:0002d8e0       ??0SSL_METHOD@yaSSL@@QAE@W4ConnectionEnd@1@UProtocolVersion@1@_N@Z 0042e8e0 f   yassl:yassl_int.obj
 0001:0002d910       ?getVersion@SSL_METHOD@yaSSL@@QBE?AUProtocolVersion@2@XZ 0042e910 f   yassl:yassl_int.obj
 0001:0002d920       ?getSide@SSL_METHOD@yaSSL@@QBE?AW4ConnectionEnd@2@XZ 0042e920 f   yassl:yassl_int.obj
 0001:0002d930       ?setVerifyPeer@SSL_METHOD@yaSSL@@QAEXXZ 0042e930 f   yassl:yassl_int.obj
 0001:0002d940       ?setVerifyNone@SSL_METHOD@yaSSL@@QAEXXZ 0042e940 f   yassl:yassl_int.obj
 0001:0002d950       ?setFailNoCert@SSL_METHOD@yaSSL@@QAEXXZ 0042e950 f   yassl:yassl_int.obj
 0001:0002d960       ?verifyPeer@SSL_METHOD@yaSSL@@QBE_NXZ 0042e960 f   yassl:yassl_int.obj
 0001:0002d970       ?verifyNone@SSL_METHOD@yaSSL@@QBE_NXZ 0042e970 f   yassl:yassl_int.obj
 0001:0002d980       ?failNoCert@SSL_METHOD@yaSSL@@QBE_NXZ 0042e980 f   yassl:yassl_int.obj
 0001:0002d990       ?multipleProtocol@SSL_METHOD@yaSSL@@QBE_NXZ 0042e990 f   yassl:yassl_int.obj
 0001:0002d9a0       ??1DH_Parms@yaSSL@@QAE@XZ  0042e9a0 f i yassl:yassl_int.obj
 0001:0002d9c0       ?GetCA_List@SSL_CTX@yaSSL@@QBEABV?$list@PAVx509@yaSSL@@@mySTL@@XZ 0042e9c0 f   yassl:yassl_int.obj
 0001:0002d9d0       ?getCert@SSL_CTX@yaSSL@@QBEPBVx509@2@XZ 0042e9d0 f   yassl:yassl_int.obj
 0001:0002d9e0       ?getKey@SSL_CTX@yaSSL@@QBEPBVx509@2@XZ 0042e9e0 f   yassl:yassl_int.obj
 0001:0002d9f0       ?getMethod@SSL_CTX@yaSSL@@QBEPBVSSL_METHOD@2@XZ 0042e9f0 f   yassl:yassl_int.obj
 0001:0002da00       ?GetCiphers@SSL_CTX@yaSSL@@QBEABUCiphers@2@XZ 0042ea00 f   yassl:yassl_int.obj
 0001:0002da10       ?GetDH_Parms@SSL_CTX@yaSSL@@QBEABUDH_Parms@2@XZ 0042ea10 f   yassl:yassl_int.obj
 0001:0002da20       ?GetStats@SSL_CTX@yaSSL@@QBEABUStats@2@XZ 0042ea20 f   yassl:yassl_int.obj
 0001:0002da30       ?GetPasswordCb@SSL_CTX@yaSSL@@QBEP6AHPADHHPAX@ZXZ 0042ea30 f   yassl:yassl_int.obj
 0001:0002da40       ?SetPasswordCb@SSL_CTX@yaSSL@@QAEXP6AHPADHHPAX@Z@Z 0042ea40 f   yassl:yassl_int.obj
 0001:0002da50       ?GetUserData@SSL_CTX@yaSSL@@QBEPAXXZ 0042ea50 f   yassl:yassl_int.obj
 0001:0002da60       ?GetSessionCacheOff@SSL_CTX@yaSSL@@QBE_NXZ 0042ea60 f   yassl:yassl_int.obj
 0001:0002da70       ?SetUserData@SSL_CTX@yaSSL@@QAEXPAX@Z 0042ea70 f   yassl:yassl_int.obj
 0001:0002da80       ?SetSessionCacheOff@SSL_CTX@yaSSL@@QAEXXZ 0042ea80 f   yassl:yassl_int.obj
 0001:0002da90       ?setVerifyPeer@SSL_CTX@yaSSL@@QAEXXZ 0042ea90 f   yassl:yassl_int.obj
 0001:0002daa0       ?setVerifyNone@SSL_CTX@yaSSL@@QAEXXZ 0042eaa0 f   yassl:yassl_int.obj
 0001:0002dab0       ?setFailNoCert@SSL_CTX@yaSSL@@QAEXXZ 0042eab0 f   yassl:yassl_int.obj
 0001:0002dac0       ?SetDH@SSL_CTX@yaSSL@@QAE_NABUDH@2@@Z 0042eac0 f   yassl:yassl_int.obj
 0001:0002daf0       ?SetCipherList@SSL_CTX@yaSSL@@QAE_NPBD@Z 0042eaf0 f   yassl:yassl_int.obj
 0001:0002dc20       ?IncrementStats@SSL_CTX@yaSSL@@QAEXW4StatsField@2@@Z 0042ec20 f   yassl:yassl_int.obj
 0001:0002dd00       ??0Crypto@yaSSL@@QAE@XZ    0042ed00 f   yassl:yassl_int.obj
 0001:0002dd30       ?get_digest@Crypto@yaSSL@@QBEABUDigest@2@XZ 0042ed30 f   yassl:yassl_int.obj
 0001:0002dd40       ?get_cipher@Crypto@yaSSL@@QBEABUBulkCipher@2@XZ 0042ed40 f   yassl:yassl_int.obj
 0001:0002dd50       ?get_dh@Crypto@yaSSL@@QBEABVDiffieHellman@2@XZ 0042ed50 f   yassl:yassl_int.obj
 0001:0002dd60       ?get_random@Crypto@yaSSL@@QBEABVRandomPool@2@XZ 0042ed60 f   yassl:yassl_int.obj
 0001:0002dd70       ?get_certManager@Crypto@yaSSL@@QBEABVCertManager@2@XZ 0042ed70 f   yassl:yassl_int.obj
 0001:0002dd80       ?use_digest@Crypto@yaSSL@@QAEAAUDigest@2@XZ 0042ed80 f   yassl:yassl_int.obj
 0001:0002dd90       ?use_cipher@Crypto@yaSSL@@QAEAAUBulkCipher@2@XZ 0042ed90 f   yassl:yassl_int.obj
 0001:0002dda0       ?use_dh@Crypto@yaSSL@@QAEAAVDiffieHellman@2@XZ 0042eda0 f   yassl:yassl_int.obj
 0001:0002ddb0       ?use_random@Crypto@yaSSL@@QAEAAVRandomPool@2@XZ 0042edb0 f   yassl:yassl_int.obj
 0001:0002ddc0       ?use_certManager@Crypto@yaSSL@@QAEAAVCertManager@2@XZ 0042edc0 f   yassl:yassl_int.obj
 0001:0002ddd0       ?SetDH@Crypto@yaSSL@@QAEXPAVDiffieHellman@2@@Z 0042edd0 f   yassl:yassl_int.obj
 0001:0002dde0       ?SetDH@Crypto@yaSSL@@QAEXABUDH_Parms@2@@Z 0042ede0 f   yassl:yassl_int.obj
 0001:0002de20       ?DhSet@Crypto@yaSSL@@QAE_NXZ 0042ee20 f   yassl:yassl_int.obj
 0001:0002de30       ?setDigest@Crypto@yaSSL@@QAEXPAUDigest@2@@Z 0042ee30 f   yassl:yassl_int.obj
 0001:0002de40       ?setCipher@Crypto@yaSSL@@QAEXPAUBulkCipher@2@@Z 0042ee40 f   yassl:yassl_int.obj
 0001:0002de50       ?get_MD5@sslHashes@yaSSL@@QBEABVMD5@2@XZ 0042ee50 f   yassl:yassl_int.obj
 0001:0002de60       ?get_SHA@sslHashes@yaSSL@@QBEABVSHA@2@XZ 0042ee60 f   yassl:yassl_int.obj
 0001:0002de70       ?get_verify@sslHashes@yaSSL@@QBEABVFinished@2@XZ 0042ee70 f   yassl:yassl_int.obj
 0001:0002de80       ?get_certVerify@sslHashes@yaSSL@@QBEABUHashes@2@XZ 0042ee80 f   yassl:yassl_int.obj
 0001:0002de90       ?use_MD5@sslHashes@yaSSL@@QAEAAVMD5@2@XZ 0042ee90 f   yassl:yassl_int.obj
 0001:0002dea0       ?use_SHA@sslHashes@yaSSL@@QAEAAVSHA@2@XZ 0042eea0 f   yassl:yassl_int.obj
 0001:0002deb0       ?use_verify@sslHashes@yaSSL@@QAEAAVFinished@2@XZ 0042eeb0 f   yassl:yassl_int.obj
 0001:0002dec0       ?use_certVerify@sslHashes@yaSSL@@QAEAAUHashes@2@XZ 0042eec0 f   yassl:yassl_int.obj
 0001:0002ded0       ?SetRawInput@Buffers@yaSSL@@QAEXPAVinput_buffer@2@@Z 0042eed0 f   yassl:yassl_int.obj
 0001:0002dee0       ?TakeRawInput@Buffers@yaSSL@@QAEPAVinput_buffer@2@XZ 0042eee0 f   yassl:yassl_int.obj
 0001:0002def0       ?getData@Buffers@yaSSL@@QBEABV?$list@PAVinput_buffer@yaSSL@@@mySTL@@XZ 0042eef0 f   yassl:yassl_int.obj
 0001:0002df00       ?getHandShake@Buffers@yaSSL@@QBEABV?$list@PAVoutput_buffer@yaSSL@@@mySTL@@XZ 0042ef00 f   yassl:yassl_int.obj
 0001:0002df10       ?useData@Buffers@yaSSL@@QAEAAV?$list@PAVinput_buffer@yaSSL@@@mySTL@@XZ 0042ef10 f   yassl:yassl_int.obj
 0001:0002df20       ?useHandShake@Buffers@yaSSL@@QAEAAV?$list@PAVoutput_buffer@yaSSL@@@mySTL@@XZ 0042ef20 f   yassl:yassl_int.obj
 0001:0002df30       ?get_connection@Security@yaSSL@@QBEABUConnection@2@XZ 0042ef30 f   yassl:yassl_int.obj
 0001:0002df40       ?GetContext@Security@yaSSL@@QBEPBVSSL_CTX@2@XZ 0042ef40 f   yassl:yassl_int.obj
 0001:0002df50       ?get_parms@Security@yaSSL@@QBEABUParameters@2@XZ 0042ef50 f   yassl:yassl_int.obj
 0001:0002df60       ?get_resume@Security@yaSSL@@QBEABVSSL_SESSION@2@XZ 0042ef60 f   yassl:yassl_int.obj
 0001:0002df70       ?get_resuming@Security@yaSSL@@QBE_NXZ 0042ef70 f   yassl:yassl_int.obj
 0001:0002df80       ?use_connection@Security@yaSSL@@QAEAAUConnection@2@XZ 0042ef80 f   yassl:yassl_int.obj
 0001:0002df90       ?use_parms@Security@yaSSL@@QAEAAUParameters@2@XZ 0042ef90 f   yassl:yassl_int.obj
 0001:0002dfa0       ?use_resume@Security@yaSSL@@QAEAAVSSL_SESSION@2@XZ 0042efa0 f   yassl:yassl_int.obj
 0001:0002dfb0       ?set_resuming@Security@yaSSL@@QAEX_N@Z 0042efb0 f   yassl:yassl_int.obj
 0001:0002dfc0       ??0X509_NAME@yaSSL@@QAE@PBDI@Z 0042efc0 f   yassl:yassl_int.obj
 0001:0002e010       ?GetName@X509_NAME@yaSSL@@QBEPBDXZ 0042f010 f   yassl:yassl_int.obj
 0001:0002e020       ?GetLength@X509_NAME@yaSSL@@QBEIXZ 0042f020 f   yassl:yassl_int.obj
 0001:0002e030       ?GetIssuer@X509@yaSSL@@QAEPAVX509_NAME@2@XZ 0042f030 f   yassl:yassl_int.obj
 0001:0002e040       ?GetSubject@X509@yaSSL@@QAEPAVX509_NAME@2@XZ 0042f040 f   yassl:yassl_int.obj
 0001:0002e050       ??0StringHolder@yaSSL@@QAE@PBDH@Z 0042f050 f   yassl:yassl_int.obj
 0001:0002e090       ?GetString@StringHolder@yaSSL@@QAEPAUASN1_STRING@2@XZ 0042f090 f   yassl:yassl_int.obj
 0001:0002e0a0       ?Compress@yaSSL@@YAHPBEHAAVinput_buffer@1@@Z 0042f0a0 f   yassl:yassl_int.obj
 0001:0002e0b0       ?DeCompress@yaSSL@@YAHAAVinput_buffer@1@H0@Z 0042f0b0 f   yassl:yassl_int.obj
 0001:0002e0c0       ??0?$list@PAVx509@yaSSL@@@mySTL@@QAE@XZ 0042f0c0 f i yassl:yassl_int.obj
 0001:0002e0d0       ??0?$list@PAVSSL_SESSION@yaSSL@@@mySTL@@QAE@XZ 0042f0d0 f i yassl:yassl_int.obj
 0001:0002e0e0       ??0?$list@UThreadError@yaSSL@@@mySTL@@QAE@XZ 0042f0e0 f i yassl:yassl_int.obj
 0001:0002e0f0       ??0?$list@PAVinput_buffer@yaSSL@@@mySTL@@QAE@XZ 0042f0f0 f i yassl:yassl_int.obj
 0001:0002e100       ?size@?$list@PAVinput_buffer@yaSSL@@@mySTL@@QBEIXZ 0042f100 f i yassl:yassl_int.obj
 0001:0002e110       ??0?$list@PAVoutput_buffer@yaSSL@@@mySTL@@QAE@XZ 0042f110 f i yassl:yassl_int.obj
 0001:0002e120       ?size@?$list@PAVoutput_buffer@yaSSL@@@mySTL@@QBEIXZ 0042f120 f i yassl:yassl_int.obj
 0001:0002e130       ??Diterator@?$list@PAVx509@yaSSL@@@mySTL@@QBEAAPAVx509@yaSSL@@XZ 0042f130 f i yassl:yassl_int.obj
 0001:0002e140       ??Eiterator@?$list@PAVx509@yaSSL@@@mySTL@@QAEAAV012@XZ 0042f140 f i yassl:yassl_int.obj
 0001:0002e150       ??9iterator@?$list@PAVx509@yaSSL@@@mySTL@@QBE_NABV012@@Z 0042f150 f i yassl:yassl_int.obj
 0001:0002e170       ??Diterator@?$list@PAVinput_buffer@yaSSL@@@mySTL@@QBEAAPAVinput_buffer@yaSSL@@XZ 0042f170 f i yassl:yassl_int.obj
 0001:0002e180       ??Eiterator@?$list@PAVinput_buffer@yaSSL@@@mySTL@@QAE?AV012@H@Z 0042f180 f i yassl:yassl_int.obj
 0001:0002e190       ??Diterator@?$list@PAVSSL_SESSION@yaSSL@@@mySTL@@QBEAAPAVSSL_SESSION@yaSSL@@XZ 0042f190 f i yassl:yassl_int.obj
 0001:0002e1a0       ??9iterator@?$list@PAVSSL_SESSION@yaSSL@@@mySTL@@QBE_NABV012@@Z 0042f1a0 f i yassl:yassl_int.obj
 0001:0002e1c0       ??9iterator@?$list@UThreadError@yaSSL@@@mySTL@@QBE_NABV012@@Z 0042f1c0 f i yassl:yassl_int.obj
 0001:0002e1e0       ??0iterator@?$list@PAVx509@yaSSL@@@mySTL@@QAE@PAUnode@12@@Z 0042f1e0 f i yassl:yassl_int.obj
 0001:0002e1f0       ??0iterator@?$list@PAVinput_buffer@yaSSL@@@mySTL@@QAE@PAUnode@12@@Z 0042f1f0 f i yassl:yassl_int.obj
 0001:0002e200       ??0iterator@?$list@PAVoutput_buffer@yaSSL@@@mySTL@@QAE@PAUnode@12@@Z 0042f200 f i yassl:yassl_int.obj
 0001:0002e210       ??0iterator@?$list@PAVSSL_SESSION@yaSSL@@@mySTL@@QAE@PAUnode@12@@Z 0042f210 f i yassl:yassl_int.obj
 0001:0002e220       ??0iterator@?$list@UThreadError@yaSSL@@@mySTL@@QAE@PAUnode@12@@Z 0042f220 f i yassl:yassl_int.obj
 0001:0002e230       ??Diterator@?$list@UThreadError@yaSSL@@@mySTL@@QBEAAUThreadError@yaSSL@@XZ 0042f230 f i yassl:yassl_int.obj
 0001:0002e240       ??0?$vector_base@U?$pair@HP6APAUMessage@yaSSL@@XZ@mySTL@@@mySTL@@QAE@XZ 0042f240 f i yassl:yassl_int.obj
 0001:0002e250       ??0?$vector_base@U?$pair@HP6APAVHandShakeBase@yaSSL@@XZ@mySTL@@@mySTL@@QAE@XZ 0042f250 f i yassl:yassl_int.obj
 0001:0002e260       ??0?$vector_base@U?$pair@HP6APAUServerKeyBase@yaSSL@@XZ@mySTL@@@mySTL@@QAE@XZ 0042f260 f i yassl:yassl_int.obj
 0001:0002e270       ??0?$vector_base@U?$pair@HP6APAUClientKeyBase@yaSSL@@XZ@mySTL@@@mySTL@@QAE@XZ 0042f270 f i yassl:yassl_int.obj
 0001:0002e280       ??$GetArrayMemory@E@mySTL@@YAPAEI@Z 0042f280 f i yassl:yassl_int.obj
 0001:0002e290       ?front@?$list@PAVinput_buffer@yaSSL@@@mySTL@@QBEPAVinput_buffer@yaSSL@@XZ 0042f290 f i yassl:yassl_int.obj
 0001:0002e2a0       ?front@?$list@PAVoutput_buffer@yaSSL@@@mySTL@@QBEPAVoutput_buffer@yaSSL@@XZ 0042f2a0 f i yassl:yassl_int.obj
 0001:0002e2b0       ??$ysDelete@VSSL_METHOD@yaSSL@@@yaSSL@@YAXPAVSSL_METHOD@0@@Z 0042f2b0 f i yassl:yassl_int.obj
 0001:0002e2c0       ??$ysDelete@UDigest@yaSSL@@@yaSSL@@YAXPAUDigest@0@@Z 0042f2c0 f i yassl:yassl_int.obj
 0001:0002e2d0       ??$ysArrayDelete@D@yaSSL@@YAXPAD@Z 0042f2d0 f i yassl:yassl_int.obj
 0001:0002e2e0       ??$ysArrayDelete@E@yaSSL@@YAXPAE@Z 0042f2e0 f i yassl:yassl_int.obj
 0001:0002e2f0       ??$FreeArrayMemory@U?$pair@HP6APAUMessage@yaSSL@@XZ@mySTL@@@mySTL@@YAXPAU?$pair@HP6APAUMessage@yaSSL@@XZ@0@@Z 0042f2f0 f i yassl:yassl_int.obj
 0001:0002e300       ??$FreeArrayMemory@U?$pair@HP6APAVHandShakeBase@yaSSL@@XZ@mySTL@@@mySTL@@YAXPAU?$pair@HP6APAVHandShakeBase@yaSSL@@XZ@0@@Z 0042f300 f i yassl:yassl_int.obj
 0001:0002e310       ??$FreeArrayMemory@U?$pair@HP6APAUServerKeyBase@yaSSL@@XZ@mySTL@@@mySTL@@YAXPAU?$pair@HP6APAUServerKeyBase@yaSSL@@XZ@0@@Z 0042f310 f i yassl:yassl_int.obj
 0001:0002e320       ??$FreeArrayMemory@U?$pair@HP6APAUClientKeyBase@yaSSL@@XZ@mySTL@@@mySTL@@YAXPAU?$pair@HP6APAUClientKeyBase@yaSSL@@XZ@0@@Z 0042f320 f i yassl:yassl_int.obj
 0001:0002e330       ??_Ginput_buffer@yaSSL@@QAEPAXI@Z 0042f330 f i yassl:yassl_int.obj
 0001:0002e350       ??_Goutput_buffer@yaSSL@@QAEPAXI@Z 0042f350 f i yassl:yassl_int.obj
 0001:0002e370       ??_GDiffieHellman@yaSSL@@QAEPAXI@Z 0042f370 f i yassl:yassl_int.obj
 0001:0002e390       ??Eiterator@?$list@PAVinput_buffer@yaSSL@@@mySTL@@QAEAAV012@XZ 0042f390 f i yassl:yassl_int.obj
 0001:0002e3a0       ??9iterator@?$list@PAVinput_buffer@yaSSL@@@mySTL@@QBE_NABV012@@Z 0042f3a0 f i yassl:yassl_int.obj
 0001:0002e3c0       ??Diterator@?$list@PAVoutput_buffer@yaSSL@@@mySTL@@QBEAAPAVoutput_buffer@yaSSL@@XZ 0042f3c0 f i yassl:yassl_int.obj
 0001:0002e3d0       ??Eiterator@?$list@PAVoutput_buffer@yaSSL@@@mySTL@@QAEAAV012@XZ 0042f3d0 f i yassl:yassl_int.obj
 0001:0002e3e0       ??9iterator@?$list@PAVoutput_buffer@yaSSL@@@mySTL@@QBE_NABV012@@Z 0042f3e0 f i yassl:yassl_int.obj
 0001:0002e400       ??Eiterator@?$list@PAVSSL_SESSION@yaSSL@@@mySTL@@QAEAAV012@XZ 0042f400 f i yassl:yassl_int.obj
 0001:0002e410       ??Eiterator@?$list@UThreadError@yaSSL@@@mySTL@@QAEAAV012@XZ 0042f410 f i yassl:yassl_int.obj
 0001:0002e420       ??0node@?$list@PAVx509@yaSSL@@@mySTL@@QAE@PAVx509@yaSSL@@@Z 0042f420 f i yassl:yassl_int.obj
 0001:0002e440       ??0node@?$list@PAVinput_buffer@yaSSL@@@mySTL@@QAE@PAVinput_buffer@yaSSL@@@Z 0042f440 f i yassl:yassl_int.obj
 0001:0002e460       ??0node@?$list@PAVSSL_SESSION@yaSSL@@@mySTL@@QAE@PAVSSL_SESSION@yaSSL@@@Z 0042f460 f i yassl:yassl_int.obj
 0001:0002e480       ??0node@?$list@UThreadError@yaSSL@@@mySTL@@QAE@UThreadError@yaSSL@@@Z 0042f480 f i yassl:yassl_int.obj
 0001:0002e4a0       ??0node@?$list@PAVoutput_buffer@yaSSL@@@mySTL@@QAE@PAVoutput_buffer@yaSSL@@@Z 0042f4a0 f i yassl:yassl_int.obj
 0001:0002e4c0       ??$destroy@Unode@?$list@PAVx509@yaSSL@@@mySTL@@@mySTL@@YAXPAUnode@?$list@PAVx509@yaSSL@@@0@@Z 0042f4c0 f i yassl:yassl_int.obj
 0001:0002e4d0       ??$destroy@Unode@?$list@PAVSSL_SESSION@yaSSL@@@mySTL@@@mySTL@@YAXPAUnode@?$list@PAVSSL_SESSION@yaSSL@@@0@@Z 0042f4d0 f i yassl:yassl_int.obj
 0001:0002e4e0       ??$destroy@Unode@?$list@UThreadError@yaSSL@@@mySTL@@@mySTL@@YAXPAUnode@?$list@UThreadError@yaSSL@@@0@@Z 0042f4e0 f i yassl:yassl_int.obj
 0001:0002e4f0       ??$destroy@Unode@?$list@PAVinput_buffer@yaSSL@@@mySTL@@@mySTL@@YAXPAUnode@?$list@PAVinput_buffer@yaSSL@@@0@@Z 0042f4f0 f i yassl:yassl_int.obj
 0001:0002e500       ??$destroy@Unode@?$list@PAVoutput_buffer@yaSSL@@@mySTL@@@mySTL@@YAXPAUnode@?$list@PAVoutput_buffer@yaSSL@@@0@@Z 0042f500 f i yassl:yassl_int.obj
 0001:0002e510       ??$swap@PAVSSL_SESSION@yaSSL@@@mySTL@@YAXAAPAVSSL_SESSION@yaSSL@@0@Z 0042f510 f i yassl:yassl_int.obj
 0001:0002e530       ??$destroy@U?$pair@HP6APAUMessage@yaSSL@@XZ@mySTL@@@mySTL@@YAXPAU?$pair@HP6APAUMessage@yaSSL@@XZ@0@@Z 0042f530 f i yassl:yassl_int.obj
 0001:0002e540       ??$destroy@U?$pair@HP6APAVHandShakeBase@yaSSL@@XZ@mySTL@@@mySTL@@YAXPAU?$pair@HP6APAVHandShakeBase@yaSSL@@XZ@0@@Z 0042f540 f i yassl:yassl_int.obj
 0001:0002e550       ??$destroy@U?$pair@HP6APAUServerKeyBase@yaSSL@@XZ@mySTL@@@mySTL@@YAXPAU?$pair@HP6APAUServerKeyBase@yaSSL@@XZ@0@@Z 0042f550 f i yassl:yassl_int.obj
 0001:0002e560       ??$destroy@U?$pair@HP6APAUClientKeyBase@yaSSL@@XZ@mySTL@@@mySTL@@YAXPAU?$pair@HP6APAUClientKeyBase@yaSSL@@XZ@0@@Z 0042f560 f i yassl:yassl_int.obj
 0001:0002e570       ??$swap@PAVx509@yaSSL@@@mySTL@@YAXAAPAVx509@yaSSL@@0@Z 0042f570 f i yassl:yassl_int.obj
 0001:0002e590       ??$swap@PAVoutput_buffer@yaSSL@@@mySTL@@YAXAAPAVoutput_buffer@yaSSL@@0@Z 0042f590 f i yassl:yassl_int.obj
 0001:0002e5b0       ??$swap@PAVinput_buffer@yaSSL@@@mySTL@@YAXAAPAVinput_buffer@yaSSL@@0@Z 0042f5b0 f i yassl:yassl_int.obj
 0001:0002e5d0       ?GetMemory@mySTL@@YAPAXI@Z 0042f5d0 f i yassl:yassl_int.obj
 0001:0002e5e0       ??0sslHashes@yaSSL@@QAE@XZ 0042f5e0 f i yassl:yassl_int.obj
 0001:0002e600       ?set_pending@SSL@yaSSL@@QAEXE@Z 0042f600 f   yassl:yassl_int.obj
 0001:0002f610       ?set_random@SSL@yaSSL@@QAEXPBEW4ConnectionEnd@2@@Z 00430610 f   yassl:yassl_int.obj
 0001:0002f640       ?set_preMaster@SSL@yaSSL@@QAEXPBEI@Z 00430640 f   yassl:yassl_int.obj
 0001:0002f670       ?UnSetCompression@SSL@yaSSL@@QAEXXZ 00430670 f   yassl:yassl_int.obj
 0001:0002f680       ?CompressionOn@SSL@yaSSL@@QBE_NXZ 00430680 f   yassl:yassl_int.obj
 0001:0002f690       ?set_masterSecret@SSL@yaSSL@@QAEXPBE@Z 00430690 f   yassl:yassl_int.obj
 0001:0002f6b0       ?set_sessionID@SSL@yaSSL@@QAEXPBE@Z 004306b0 f   yassl:yassl_int.obj
 0001:0002f6e0       ?setKeys@SSL@yaSSL@@AAEXXZ 004306e0 f   yassl:yassl_int.obj
 0001:0002f750       ?get_SEQIncrement@SSL@yaSSL@@QAEI_N@Z 00430750 f   yassl:yassl_int.obj
 0001:0002f780       ?get_macSecret@SSL@yaSSL@@QAEPBE_N@Z 00430780 f   yassl:yassl_int.obj
 0001:0002f7b0       ?verifyState@SSL@yaSSL@@QAEXABURecordLayerHeader@2@@Z 004307b0 f   yassl:yassl_int.obj
 0001:0002f810       ?verifyState@SSL@yaSSL@@QAEXW4ClientState@2@@Z 00430810 f   yassl:yassl_int.obj
 0001:0002f840       ?verifyState@SSL@yaSSL@@QAEXW4ServerState@2@@Z 00430840 f   yassl:yassl_int.obj
 0001:0002f870       ?verfiyHandShakeComplete@SSL@yaSSL@@QAEXXZ 00430870 f   yassl:yassl_int.obj
 0001:0002f890       ?verifyClientState@SSL@yaSSL@@AAEXW4HandShakeType@2@@Z 00430890 f   yassl:yassl_int.obj
 0001:0002f930       ?verifyServerState@SSL@yaSSL@@AAEXW4HandShakeType@2@@Z 00430930 f   yassl:yassl_int.obj
 0001:0002f9c0       ?matchSuite@SSL@yaSSL@@QAEXPBEI@Z 004309c0 f   yassl:yassl_int.obj
 0001:0002fa60       ?GetMultiProtocol@SSL@yaSSL@@QBE_NXZ 00430a60 f   yassl:yassl_int.obj
 0001:0002fa70       ?isTLS@SSL@yaSSL@@QBE_NXZ  00430a70 f   yassl:yassl_int.obj
 0001:0002fa80       ?isTLSv1_1@SSL@yaSSL@@QBE_NXZ 00430a80 f   yassl:yassl_int.obj
 0001:0002fa90       ??1X509_NAME@yaSSL@@QAE@XZ 00430a90 f   yassl:yassl_int.obj
 0001:0002fab0       ?GetBefore@X509@yaSSL@@QAEPAUASN1_STRING@2@XZ 00430ab0 f   yassl:yassl_int.obj
 0001:0002fac0       ?GetAfter@X509@yaSSL@@QAEPAUASN1_STRING@2@XZ 00430ac0 f   yassl:yassl_int.obj
 0001:0002fad0       ?GetEntry@X509_NAME@yaSSL@@QAEPAUASN1_STRING@2@H@Z 00430ad0 f   yassl:yassl_int.obj
 0001:0002fb70       ??1StringHolder@yaSSL@@QAE@XZ 00430b70 f   yassl:yassl_int.obj
 0001:0002fb80       ?begin@?$list@PAVx509@yaSSL@@@mySTL@@QBE?AViterator@12@XZ 00430b80 f i yassl:yassl_int.obj
 0001:0002fb90       ?end@?$list@PAVx509@yaSSL@@@mySTL@@QBE?AViterator@12@XZ 00430b90 f i yassl:yassl_int.obj
 0001:0002fba0       ?begin@?$list@PAVSSL_SESSION@yaSSL@@@mySTL@@QBE?AViterator@12@XZ 00430ba0 f i yassl:yassl_int.obj
 0001:0002fbb0       ?end@?$list@PAVSSL_SESSION@yaSSL@@@mySTL@@QBE?AViterator@12@XZ 00430bb0 f i yassl:yassl_int.obj
 0001:0002fbc0       ?begin@?$list@UThreadError@yaSSL@@@mySTL@@QBE?AViterator@12@XZ 00430bc0 f i yassl:yassl_int.obj
 0001:0002fbd0       ?end@?$list@UThreadError@yaSSL@@@mySTL@@QBE?AViterator@12@XZ 00430bd0 f i yassl:yassl_int.obj
 0001:0002fbe0       ?begin@?$list@PAVinput_buffer@yaSSL@@@mySTL@@QBE?AViterator@12@XZ 00430be0 f i yassl:yassl_int.obj
 0001:0002fbf0       ?end@?$list@PAVinput_buffer@yaSSL@@@mySTL@@QBE?AViterator@12@XZ 00430bf0 f i yassl:yassl_int.obj
 0001:0002fc00       ?begin@?$list@PAVoutput_buffer@yaSSL@@@mySTL@@QBE?AViterator@12@XZ 00430c00 f i yassl:yassl_int.obj
 0001:0002fc10       ?end@?$list@PAVoutput_buffer@yaSSL@@@mySTL@@QBE?AViterator@12@XZ 00430c10 f i yassl:yassl_int.obj
 0001:0002fc20       ??Citerator@?$list@UThreadError@yaSSL@@@mySTL@@QBEPAUThreadError@yaSSL@@XZ 00430c20 f i yassl:yassl_int.obj
 0001:0002fc30       ??1?$vector_base@U?$pair@HP6APAUMessage@yaSSL@@XZ@mySTL@@@mySTL@@QAE@XZ 00430c30 f i yassl:yassl_int.obj
 0001:0002fc40       ??1?$vector_base@U?$pair@HP6APAVHandShakeBase@yaSSL@@XZ@mySTL@@@mySTL@@QAE@XZ 00430c40 f i yassl:yassl_int.obj
 0001:0002fc50       ??1?$vector_base@U?$pair@HP6APAUServerKeyBase@yaSSL@@XZ@mySTL@@@mySTL@@QAE@XZ 00430c50 f i yassl:yassl_int.obj
 0001:0002fc60       ??1?$vector_base@U?$pair@HP6APAUClientKeyBase@yaSSL@@XZ@mySTL@@@mySTL@@QAE@XZ 00430c60 f i yassl:yassl_int.obj
 0001:0002fc70       ??$FreeArrayMemory@X@mySTL@@YAXPAX@Z 00430c70 f i yassl:yassl_int.obj
 0001:0002fc80       ?push_back@?$list@PAVx509@yaSSL@@@mySTL@@QAEXPAVx509@yaSSL@@@Z 00430c80 f i yassl:yassl_int.obj
 0001:0002fcd0       ?push_back@?$list@PAVSSL_SESSION@yaSSL@@@mySTL@@QAEXPAVSSL_SESSION@yaSSL@@@Z 00430cd0 f i yassl:yassl_int.obj
 0001:0002fd20       ?push_back@?$list@UThreadError@yaSSL@@@mySTL@@QAEXUThreadError@yaSSL@@@Z 00430d20 f i yassl:yassl_int.obj
 0001:0002fd80       ?push_back@?$list@PAVinput_buffer@yaSSL@@@mySTL@@QAEXPAVinput_buffer@yaSSL@@@Z 00430d80 f i yassl:yassl_int.obj
 0001:0002fdd0       ?push_back@?$list@PAVoutput_buffer@yaSSL@@@mySTL@@QAEXPAVoutput_buffer@yaSSL@@@Z 00430dd0 f i yassl:yassl_int.obj
 0001:0002fe20       ??$for_each@Viterator@?$list@PAVinput_buffer@yaSSL@@@mySTL@@USumData@yassl_int_cpp_local1@yaSSL@@@mySTL@@YA?AUSumData@yassl_int_cpp_local1@yaSSL@@Viterator@?$list@PAVinput_buffer@yaSSL@@@0@0U123@@Z 00430e20 f i yassl:yassl_int.obj
 0001:0002fe60       ??$ysDelete@Vinput_buffer@yaSSL@@@yaSSL@@YAXPAVinput_buffer@0@@Z 00430e60 f i yassl:yassl_int.obj
 0001:0002fe80       ??$for_each@Viterator@?$list@PAVoutput_buffer@yaSSL@@@mySTL@@USumBuffer@yassl_int_cpp_local1@yaSSL@@@mySTL@@YA?AUSumBuffer@yassl_int_cpp_local1@yaSSL@@Viterator@?$list@PAVoutput_buffer@yaSSL@@@0@0U123@@Z 00430e80 f i yassl:yassl_int.obj
 0001:0002fec0       ??$ysDelete@Voutput_buffer@yaSSL@@@yaSSL@@YAXPAVoutput_buffer@0@@Z 00430ec0 f i yassl:yassl_int.obj
 0001:0002fee0       ??$find_if@Viterator@?$list@PAVSSL_SESSION@yaSSL@@@mySTL@@Usess_match@yassl_int_cpp_local2@yaSSL@@@mySTL@@YA?AViterator@?$list@PAVSSL_SESSION@yaSSL@@@0@V120@0Usess_match@yassl_int_cpp_local2@yaSSL@@@Z 00430ee0 f i yassl:yassl_int.obj
 0001:0002ff20       ??$find_if@Viterator@?$list@UThreadError@yaSSL@@@mySTL@@Uthr_match@yassl_int_cpp_local2@yaSSL@@@mySTL@@YA?AViterator@?$list@UThreadError@yaSSL@@@0@V120@0Uthr_match@yassl_int_cpp_local2@yaSSL@@@Z 00430f20 f i yassl:yassl_int.obj
 0001:0002ff50       ??$ysDelete@VDiffieHellman@yaSSL@@@yaSSL@@YAXPAVDiffieHellman@0@@Z 00430f50 f i yassl:yassl_int.obj
 0001:0002ff70       ??$destroy@PAU?$pair@HP6APAUMessage@yaSSL@@XZ@mySTL@@@mySTL@@YAXPAU?$pair@HP6APAUMessage@yaSSL@@XZ@0@0@Z 00430f70 f i yassl:yassl_int.obj
 0001:0002ff80       ??$destroy@PAU?$pair@HP6APAVHandShakeBase@yaSSL@@XZ@mySTL@@@mySTL@@YAXPAU?$pair@HP6APAVHandShakeBase@yaSSL@@XZ@0@0@Z 00430f80 f i yassl:yassl_int.obj
 0001:0002ff90       ??$destroy@PAU?$pair@HP6APAUServerKeyBase@yaSSL@@XZ@mySTL@@@mySTL@@YAXPAU?$pair@HP6APAUServerKeyBase@yaSSL@@XZ@0@0@Z 00430f90 f i yassl:yassl_int.obj
 0001:0002ffa0       ??$destroy@PAU?$pair@HP6APAUClientKeyBase@yaSSL@@XZ@mySTL@@@mySTL@@YAXPAU?$pair@HP6APAUClientKeyBase@yaSSL@@XZ@0@0@Z 00430fa0 f i yassl:yassl_int.obj
 0001:0002ffb0       ??$checked_delete@Vx509@yaSSL@@@yaSSL@@YAXPAVx509@0@@Z 00430fb0 f i yassl:yassl_int.obj
 0001:0002ffd0       ??$checked_delete@Voutput_buffer@yaSSL@@@yaSSL@@YAXPAVoutput_buffer@0@@Z 00430fd0 f i yassl:yassl_int.obj
 0001:0002fff0       ??$checked_delete@Vinput_buffer@yaSSL@@@yaSSL@@YAXPAVinput_buffer@0@@Z 00430ff0 f i yassl:yassl_int.obj
 0001:00030010       ?FreeMemory@mySTL@@YAXPAX@Z 00431010 f i yassl:yassl_int.obj
 0001:00030020       ??1X509@yaSSL@@QAE@XZ      00431020 f i yassl:yassl_int.obj
 0001:00030060       ?storeKeys@SSL@yaSSL@@AAEXPBE@Z 00431060 f   yassl:yassl_int.obj
 0001:00030130       ?bufferedData@SSL@yaSSL@@QAEIXZ 00431130 f   yassl:yassl_int.obj
 0001:00030150       ?PeekData@SSL@yaSSL@@QAEXAAVData@2@@Z 00431150 f   yassl:yassl_int.obj
 0001:00030280       ?verifyState@SSL@yaSSL@@QAEXABVHandShakeHeader@2@@Z 00431280 f   yassl:yassl_int.obj
 0001:000302e0       ?addData@SSL@yaSSL@@QAEXPAVinput_buffer@2@@Z 004312e0 f   yassl:yassl_int.obj
 0001:00030350       ?addBuffer@SSL@yaSSL@@QAEXPAVoutput_buffer@2@@Z 00431350 f   yassl:yassl_int.obj
 0001:000303b0       ?AddCA@SSL_CTX@yaSSL@@QAEXPAVx509@2@@Z 004313b0 f   yassl:yassl_int.obj
 0001:00030400       ??1Crypto@yaSSL@@QAE@XZ    00431400 f   yassl:yassl_int.obj
 0001:00030450       ??0X509@yaSSL@@QAE@PBDI0I0H0H@Z 00431450 f   yassl:yassl_int.obj
 0001:00030520       ??1?$vector@U?$pair@HP6APAUMessage@yaSSL@@XZ@mySTL@@@mySTL@@QAE@XZ 00431520 f i yassl:yassl_int.obj
 0001:00030530       ??1?$vector@U?$pair@HP6APAVHandShakeBase@yaSSL@@XZ@mySTL@@@mySTL@@QAE@XZ 00431530 f i yassl:yassl_int.obj
 0001:00030540       ??1?$vector@U?$pair@HP6APAUServerKeyBase@yaSSL@@XZ@mySTL@@@mySTL@@QAE@XZ 00431540 f i yassl:yassl_int.obj
 0001:00030550       ??1?$vector@U?$pair@HP6APAUClientKeyBase@yaSSL@@XZ@mySTL@@@mySTL@@QAE@XZ 00431550 f i yassl:yassl_int.obj
 0001:00030560       ??0?$vector@U?$pair@HP6APAUMessage@yaSSL@@XZ@mySTL@@@mySTL@@QAE@XZ 00431560 f i yassl:yassl_int.obj
 0001:00030570       ??0?$vector@U?$pair@HP6APAVHandShakeBase@yaSSL@@XZ@mySTL@@@mySTL@@QAE@XZ 00431570 f i yassl:yassl_int.obj
 0001:00030580       ??0?$vector@U?$pair@HP6APAUServerKeyBase@yaSSL@@XZ@mySTL@@@mySTL@@QAE@XZ 00431580 f i yassl:yassl_int.obj
 0001:00030590       ??0?$vector@U?$pair@HP6APAUClientKeyBase@yaSSL@@XZ@mySTL@@@mySTL@@QAE@XZ 00431590 f i yassl:yassl_int.obj
 0001:000305a0       ??1?$list@PAVx509@yaSSL@@@mySTL@@QAE@XZ 004315a0 f i yassl:yassl_int.obj
 0001:000305c0       ??1?$list@PAVSSL_SESSION@yaSSL@@@mySTL@@QAE@XZ 004315c0 f i yassl:yassl_int.obj
 0001:000305e0       ??1?$list@UThreadError@yaSSL@@@mySTL@@QAE@XZ 004315e0 f i yassl:yassl_int.obj
 0001:00030600       ??1?$list@PAVinput_buffer@yaSSL@@@mySTL@@QAE@XZ 00431600 f i yassl:yassl_int.obj
 0001:00030620       ?pop_front@?$list@PAVinput_buffer@yaSSL@@@mySTL@@QAEXXZ 00431620 f i yassl:yassl_int.obj
 0001:00030670       ??1?$list@PAVoutput_buffer@yaSSL@@@mySTL@@QAE@XZ 00431670 f i yassl:yassl_int.obj
 0001:00030690       ?pop_front@?$list@PAVoutput_buffer@yaSSL@@@mySTL@@QAEXXZ 00431690 f i yassl:yassl_int.obj
 0001:000306e0       ??_GX509@yaSSL@@QAEPAXI@Z  004316e0 f i yassl:yassl_int.obj
 0001:00030740       ?pop_front@?$list@PAVSSL_SESSION@yaSSL@@@mySTL@@QAEXXZ 00431740 f i yassl:yassl_int.obj
 0001:00030790       ?pop_back@?$list@PAVSSL_SESSION@yaSSL@@@mySTL@@QAEXXZ 00431790 f i yassl:yassl_int.obj
 0001:000307e0       ?pop_front@?$list@UThreadError@yaSSL@@@mySTL@@QAEXXZ 004317e0 f i yassl:yassl_int.obj
 0001:00030830       ?pop_back@?$list@UThreadError@yaSSL@@@mySTL@@QAEXXZ 00431830 f i yassl:yassl_int.obj
 0001:00030880       ??$?RVx509@yaSSL@@@del_ptr_zero@yaSSL@@QBEXAAPAVx509@1@@Z 00431880 f i yassl:yassl_int.obj
 0001:000308b0       ??$?RVoutput_buffer@yaSSL@@@del_ptr_zero@yaSSL@@QBEXAAPAVoutput_buffer@1@@Z 004318b0 f i yassl:yassl_int.obj
 0001:000308e0       ??$?RVinput_buffer@yaSSL@@@del_ptr_zero@yaSSL@@QBEXAAPAVinput_buffer@1@@Z 004318e0 f i yassl:yassl_int.obj
 0001:00030910       ??0Sessions@yaSSL@@AAE@XZ  00431910 f i yassl:yassl_int.obj
 0001:00030930       ??0Errors@yaSSL@@AAE@XZ    00431930 f i yassl:yassl_int.obj
 0001:00030940       ??1Errors@yaSSL@@QAE@XZ    00431940 f i yassl:yassl_int.obj
 0001:00030960       ??1?$Factory@UMessage@yaSSL@@HP6APAU12@XZ@yaSSL@@QAE@XZ 00431960 f i yassl:yassl_int.obj
 0001:00030970       ??1?$Factory@VHandShakeBase@yaSSL@@HP6APAV12@XZ@yaSSL@@QAE@XZ 00431970 f i yassl:yassl_int.obj
 0001:00030980       ??1?$Factory@UServerKeyBase@yaSSL@@HP6APAU12@XZ@yaSSL@@QAE@XZ 00431980 f i yassl:yassl_int.obj
 0001:00030990       ??1?$Factory@UClientKeyBase@yaSSL@@HP6APAU12@XZ@yaSSL@@QAE@XZ 00431990 f i yassl:yassl_int.obj
 0001:000309a0       ?deriveKeys@SSL@yaSSL@@QAEXXZ 004319a0 f   yassl:yassl_int.obj
 0001:00030b70       ?deriveTLSKeys@SSL@yaSSL@@QAEXXZ 00431b70 f   yassl:yassl_int.obj
 0001:00030c20       ?fillData@SSL@yaSSL@@QAEXAAVData@2@@Z 00431c20 f   yassl:yassl_int.obj
 0001:00030dd0       ?flushBuffer@SSL@yaSSL@@QAEXXZ 00431dd0 f   yassl:yassl_int.obj
 0001:00030ef0       ?CopyX509@SSL_SESSION@yaSSL@@AAEXPAVX509@2@@Z 00431ef0 f   yassl:yassl_int.obj
 0001:00030f60       ??0SSL_SESSION@yaSSL@@QAE@ABVSSL@1@AAVRandomPool@1@@Z 00431f60 f   yassl:yassl_int.obj
 0001:00030fd0       ?GetSessions@yaSSL@@YAAAVSessions@1@XZ 00431fd0 f   yassl:yassl_int.obj
 0001:00031020       ?GetErrors@yaSSL@@YAAAVErrors@1@XZ 00432020 f   yassl:yassl_int.obj
 0001:00031060       ?add@Sessions@yaSSL@@QAEXABVSSL@2@@Z 00432060 f   yassl:yassl_int.obj
 0001:000310b0       ??0SSL_CTX@yaSSL@@QAE@PAVSSL_METHOD@1@@Z 004320b0 f   yassl:yassl_int.obj
 0001:00031150       ??0Buffers@yaSSL@@QAE@XZ   00432150 f   yassl:yassl_int.obj
 0001:00031170       ??0?$Factory@UMessage@yaSSL@@HP6APAU12@XZ@yaSSL@@QAE@P6AXAAV01@@Z@Z 00432170 f i yassl:yassl_int.obj
 0001:00031190       ??0?$Factory@VHandShakeBase@yaSSL@@HP6APAV12@XZ@yaSSL@@QAE@P6AXAAV01@@Z@Z 00432190 f i yassl:yassl_int.obj
 0001:000311b0       ??0?$Factory@UServerKeyBase@yaSSL@@HP6APAU12@XZ@yaSSL@@QAE@P6AXAAV01@@Z@Z 004321b0 f i yassl:yassl_int.obj
 0001:000311d0       ??0?$Factory@UClientKeyBase@yaSSL@@HP6APAU12@XZ@yaSSL@@QAE@P6AXAAV01@@Z@Z 004321d0 f i yassl:yassl_int.obj
 0001:000311f0       ?erase@?$list@PAVSSL_SESSION@yaSSL@@@mySTL@@QAE_NViterator@12@@Z 004321f0 f i yassl:yassl_int.obj
 0001:00031250       ?erase@?$list@UThreadError@yaSSL@@@mySTL@@QAE_NViterator@12@@Z 00432250 f i yassl:yassl_int.obj
 0001:000312b0       ??$ysDelete@VX509@yaSSL@@@yaSSL@@YAXPAVX509@0@@Z 004322b0 f i yassl:yassl_int.obj
 0001:00031300       ??$for_each@Viterator@?$list@PAVx509@yaSSL@@@mySTL@@Udel_ptr_zero@yaSSL@@@mySTL@@YA?AUdel_ptr_zero@yaSSL@@Viterator@?$list@PAVx509@yaSSL@@@0@0U12@@Z 00432300 f i yassl:yassl_int.obj
 0001:00031340       ??$for_each@Viterator@?$list@PAVoutput_buffer@yaSSL@@@mySTL@@Udel_ptr_zero@yaSSL@@@mySTL@@YA?AUdel_ptr_zero@yaSSL@@Viterator@?$list@PAVoutput_buffer@yaSSL@@@0@0U12@@Z 00432340 f i yassl:yassl_int.obj
 0001:00031380       ??$for_each@Viterator@?$list@PAVinput_buffer@yaSSL@@@mySTL@@Udel_ptr_zero@yaSSL@@@mySTL@@YA?AUdel_ptr_zero@yaSSL@@Viterator@?$list@PAVinput_buffer@yaSSL@@@0@0U12@@Z 00432380 f i yassl:yassl_int.obj
 0001:000313c0       ??_GErrors@yaSSL@@QAEPAXI@Z 004323c0 f i yassl:yassl_int.obj
 0001:00031400       ??1sslFactory@yaSSL@@QAE@XZ 00432400 f i yassl:yassl_int.obj
 0001:00031430       ??0sslFactory@yaSSL@@AAE@XZ 00432430 f   yassl:yassl_int.obj
 0001:00031480       ?makeTLSMasterSecret@SSL@yaSSL@@QAEXXZ 00432480 f   yassl:yassl_int.obj
 0001:00031500       ??4SSL_SESSION@yaSSL@@QAEAAV01@ABV01@@Z 00432500 f   yassl:yassl_int.obj
 0001:00031570       ??1SSL_SESSION@yaSSL@@QAE@XZ 00432570 f   yassl:yassl_int.obj
 0001:000315d0       ?GetSSL_Factory@yaSSL@@YAAAVsslFactory@1@XZ 004325d0 f   yassl:yassl_int.obj
 0001:00031600       ?Remove@Errors@yaSSL@@QAEXXZ 00432600 f   yassl:yassl_int.obj
 0001:00031630       ?Lookup@Errors@yaSSL@@QAEH_N@Z 00432630 f   yassl:yassl_int.obj
 0001:00031680       ?Add@Errors@yaSSL@@QAEXH@Z 00432680 f   yassl:yassl_int.obj
 0001:000316e0       ??1SSL_CTX@yaSSL@@QAE@XZ   004326e0 f   yassl:yassl_int.obj
 0001:00031770       ??1Buffers@yaSSL@@QAE@XZ   00432770 f   yassl:yassl_int.obj
 0001:00031800       ??0Security@yaSSL@@QAE@UProtocolVersion@1@AAVRandomPool@1@W4ConnectionEnd@1@ABUCiphers@1@PAVSSL_CTX@1@_N@Z 00432800 f   yassl:yassl_int.obj
 0001:00031890       ??$ysDelete@VErrors@yaSSL@@@yaSSL@@YAXPAVErrors@0@@Z 00432890 f i yassl:yassl_int.obj
 0001:000318c0       ??_GsslFactory@yaSSL@@QAEPAXI@Z 004328c0 f i yassl:yassl_int.obj
 0001:00031900       ??_GSSL_SESSION@yaSSL@@QAEPAXI@Z 00432900 f i yassl:yassl_int.obj
 0001:00031920       ?makeMasterSecret@SSL@yaSSL@@QAEXXZ 00432920 f   yassl:yassl_int.obj
 0001:00031b00       ?getFactory@SSL@yaSSL@@QBEABVsslFactory@2@XZ 00432b00 f   yassl:yassl_int.obj
 0001:00031b30       ??$ysDelete@VsslFactory@yaSSL@@@yaSSL@@YAXPAVsslFactory@0@@Z 00432b30 f i yassl:yassl_int.obj
 0001:00031b70       ??$ysDelete@VSSL_SESSION@yaSSL@@@yaSSL@@YAXPAVSSL_SESSION@0@@Z 00432b70 f i yassl:yassl_int.obj
 0001:00031b90       ??0SSL@yaSSL@@QAE@PAVSSL_CTX@1@@Z 00432b90 f   yassl:yassl_int.obj
 0001:00031d40       ??$checked_delete@VSSL_SESSION@yaSSL@@@yaSSL@@YAXPAVSSL_SESSION@0@@Z 00432d40 f i yassl:yassl_int.obj
 0001:00031d60       ??$?RVSSL_SESSION@yaSSL@@@del_ptr_zero@yaSSL@@QBEXAAPAVSSL_SESSION@1@@Z 00432d60 f i yassl:yassl_int.obj
 0001:00031d90       ?lookup@Sessions@yaSSL@@QAEPAVSSL_SESSION@2@PBEPAV32@@Z 00432d90 f   yassl:yassl_int.obj
 0001:00031e20       ?remove@Sessions@yaSSL@@QAEXPBE@Z 00432e20 f   yassl:yassl_int.obj
 0001:00031e80       ??$for_each@Viterator@?$list@PAVSSL_SESSION@yaSSL@@@mySTL@@Udel_ptr_zero@yaSSL@@@mySTL@@YA?AUdel_ptr_zero@yaSSL@@Viterator@?$list@PAVSSL_SESSION@yaSSL@@@0@0U12@@Z 00432e80 f i yassl:yassl_int.obj
 0001:00031f10       ?set_session@SSL@yaSSL@@QAEXPAVSSL_SESSION@2@@Z 00432f10 f   yassl:yassl_int.obj
 0001:00031f60       ??1Sessions@yaSSL@@QAE@XZ  00432f60 f   yassl:yassl_int.obj
 0001:00031fb0       ??_GSessions@yaSSL@@QAEPAXI@Z 00432fb0 f i yassl:yassl_int.obj
 0001:00031fd0       ??$ysDelete@VSessions@yaSSL@@@yaSSL@@YAXPAVSessions@0@@Z 00432fd0 f i yassl:yassl_int.obj
 0001:00031ff0       _yayaSSL_CleanUp           00432ff0 f   yassl:yassl_int.obj
 0001:000320a0       ??1Digest@yaSSL@@UAE@XZ    004330a0 f i yassl:crypto_wrapper.obj
 0001:000320b0       ??_GDigest@yaSSL@@UAEPAXI@Z 004330b0 f i yassl:crypto_wrapper.obj
 0001:000320b0       ??_EDigest@yaSSL@@UAEPAXI@Z 004330b0 f i yassl:crypto_wrapper.obj
 0001:000320d0       ??1BulkCipher@yaSSL@@UAE@XZ 004330d0 f i yassl:crypto_wrapper.obj
 0001:000320e0       ??_GBulkCipher@yaSSL@@UAEPAXI@Z 004330e0 f i yassl:crypto_wrapper.obj
 0001:000320e0       ??_EBulkCipher@yaSSL@@UAEPAXI@Z 004330e0 f i yassl:crypto_wrapper.obj
 0001:00032100       ??1Auth@yaSSL@@UAE@XZ      00433100 f i yassl:crypto_wrapper.obj
 0001:00032110       ??_GAuth@yaSSL@@UAEPAXI@Z  00433110 f i yassl:crypto_wrapper.obj
 0001:00032110       ??_EAuth@yaSSL@@UAEPAXI@Z  00433110 f i yassl:crypto_wrapper.obj
 0001:00032130       ?BitsToBytes@TaoCrypt@@YAII@Z 00433130 f i yassl:crypto_wrapper.obj
 0001:00032140       ?What@Error@TaoCrypt@@QBE?AW4ErrorNumber@2@XZ 00433140 f i yassl:crypto_wrapper.obj
 0001:00032150       ??1MD5@TaoCrypt@@UAE@XZ    00433150 f i yassl:crypto_wrapper.obj
 0001:00032160       ??0SHA@TaoCrypt@@QAE@XZ    00433160 f i yassl:crypto_wrapper.obj
 0001:00032180       ?getByteOrder@SHA@TaoCrypt@@UBE?AW4ByteOrder@2@XZ 00433180 f i yassl:crypto_wrapper.obj
 0001:00032190       ?getBlockSize@SHA@TaoCrypt@@UBEIXZ 00433190 f i yassl:crypto_wrapper.obj
 0001:000321a0       ?getDigestSize@SHA@TaoCrypt@@UBEIXZ 004331a0 f i yassl:crypto_wrapper.obj
 0001:000321b0       ?getPadSize@SHA@TaoCrypt@@UBEIXZ 004331b0 f i yassl:crypto_wrapper.obj
 0001:000321c0       ??1SHA@TaoCrypt@@UAE@XZ    004331c0 f i yassl:crypto_wrapper.obj
 0001:000321d0       ??0RIPEMD160@TaoCrypt@@QAE@XZ 004331d0 f i yassl:crypto_wrapper.obj
 0001:000321f0       ?getByteOrder@RIPEMD160@TaoCrypt@@UBE?AW4ByteOrder@2@XZ 004331f0 f i yassl:crypto_wrapper.obj
 0001:00032200       ?getBlockSize@RIPEMD160@TaoCrypt@@UBEIXZ 00433200 f i yassl:crypto_wrapper.obj
 0001:00032210       ?getDigestSize@RIPEMD160@TaoCrypt@@UBEIXZ 00433210 f i yassl:crypto_wrapper.obj
 0001:00032220       ?getPadSize@RIPEMD160@TaoCrypt@@UBEIXZ 00433220 f i yassl:crypto_wrapper.obj
 0001:00032230       ??1RIPEMD160@TaoCrypt@@UAE@XZ 00433230 f i yassl:crypto_wrapper.obj
 0001:00032240       ??0Mode_BASE@TaoCrypt@@QAE@HW4CipherDir@1@W4Mode@1@@Z 00433240 f i yassl:crypto_wrapper.obj
 0001:00032270       ??1Mode_BASE@TaoCrypt@@UAE@XZ 00433270 f i yassl:crypto_wrapper.obj
 0001:00032280       ?SetIV@Mode_BASE@TaoCrypt@@QAEXPBE@Z 00433280 f i yassl:crypto_wrapper.obj
 0001:000322b0       ??_GMode_BASE@TaoCrypt@@UAEPAXI@Z 004332b0 f i yassl:crypto_wrapper.obj
 0001:000322b0       ??_EMode_BASE@TaoCrypt@@UAEPAXI@Z 004332b0 f i yassl:crypto_wrapper.obj
 0001:000322d0       ??0DES@TaoCrypt@@QAE@W4CipherDir@1@W4Mode@1@@Z 004332d0 f i yassl:crypto_wrapper.obj
 0001:00032300       ??1DES@TaoCrypt@@UAE@XZ    00433300 f i yassl:crypto_wrapper.obj
 0001:00032310       ??0DES_EDE3@TaoCrypt@@QAE@W4CipherDir@1@W4Mode@1@@Z 00433310 f i yassl:crypto_wrapper.obj
 0001:00032340       ?SetIV@DES_EDE3@TaoCrypt@@QAEXPBE@Z 00433340 f i yassl:crypto_wrapper.obj
 0001:00032360       ??1DES_EDE3@TaoCrypt@@UAE@XZ 00433360 f i yassl:crypto_wrapper.obj
 0001:00032370       ??0ARC4@TaoCrypt@@QAE@XZ   00433370 f i yassl:crypto_wrapper.obj
 0001:00032380       ??0AES@TaoCrypt@@QAE@W4CipherDir@1@W4Mode@1@@Z 00433380 f i yassl:crypto_wrapper.obj
 0001:000323b0       ?SetIV@AES@TaoCrypt@@QAEXPBE@Z 004333b0 f i yassl:crypto_wrapper.obj
 0001:000323d0       ??1AES@TaoCrypt@@UAE@XZ    004333d0 f i yassl:crypto_wrapper.obj
 0001:000323e0       ?GetError@OS_Seed@TaoCrypt@@QBE?AUError@2@XZ 004333e0 f i yassl:crypto_wrapper.obj
 0001:000323f0       ??1RandomNumberGenerator@TaoCrypt@@QAE@XZ 004333f0 f i yassl:crypto_wrapper.obj
 0001:00032400       ?GetError@RandomNumberGenerator@TaoCrypt@@QBE?AW4ErrorNumber@2@XZ 00433400 f i yassl:crypto_wrapper.obj
 0001:00032410       ?Ref@Integer@TaoCrypt@@QAEAAV12@XZ 00433410 f i yassl:crypto_wrapper.obj
 0001:00032420       ??0PK_Lengths@TaoCrypt@@QAE@ABVInteger@1@@Z 00433420 f i yassl:crypto_wrapper.obj
 0001:00032430       ?PaddedBlockBitLength@PK_Lengths@TaoCrypt@@QBEIXZ 00433430 f i yassl:crypto_wrapper.obj
 0001:00032440       ?PaddedBlockByteLength@PK_Lengths@TaoCrypt@@QBEIXZ 00433440 f i yassl:crypto_wrapper.obj
 0001:00032450       ?FixedCiphertextLength@PK_Lengths@TaoCrypt@@QBEIXZ 00433450 f i yassl:crypto_wrapper.obj
 0001:00032460       ?Initialize@RSA_PublicKey@TaoCrypt@@QAEXABVInteger@2@0@Z 00433460 f i yassl:crypto_wrapper.obj
 0001:00032480       ?GetModulus@RSA_PublicKey@TaoCrypt@@QBEABVInteger@2@XZ 00433480 f i yassl:crypto_wrapper.obj
 0001:00032490       ?FixedCiphertextLength@RSA_PublicKey@TaoCrypt@@QAEIXZ 00433490 f i yassl:crypto_wrapper.obj
 0001:000324a0       ?Swap@RSA_PublicKey@TaoCrypt@@QAEXAAV12@@Z 004334a0 f i yassl:crypto_wrapper.obj
 0001:000324c0       ?GetPrivateExponent@RSA_PrivateKey@TaoCrypt@@QBEABVInteger@2@XZ 004334c0 f i yassl:crypto_wrapper.obj
 0001:000324d0       ?Swap@DH@TaoCrypt@@QAEXAAV12@@Z 004334d0 f i yassl:crypto_wrapper.obj
 0001:000324f0       ?SetP@DH@TaoCrypt@@QAEXABVInteger@2@@Z 004334f0 f i yassl:crypto_wrapper.obj
 0001:00032500       ?SetG@DH@TaoCrypt@@QAEXABVInteger@2@@Z 00433500 f i yassl:crypto_wrapper.obj
 0001:00032510       ?GetP@DH@TaoCrypt@@QAEAAVInteger@2@XZ 00433510 f i yassl:crypto_wrapper.obj
 0001:00032520       ?GetG@DH@TaoCrypt@@QAEAAVInteger@2@XZ 00433520 f i yassl:crypto_wrapper.obj
 0001:00032530       ?GetByteLength@DH@TaoCrypt@@QBEIXZ 00433530 f i yassl:crypto_wrapper.obj
 0001:00032540       ??0MD5Impl@MD5@yaSSL@@QAE@XZ 00433540 f i yassl:crypto_wrapper.obj
 0001:00032560       ??0MD5Impl@MD5@yaSSL@@QAE@ABV1TaoCrypt@@@Z 00433560 f i yassl:crypto_wrapper.obj
 0001:00032580       ??0Digest@yaSSL@@QAE@XZ    00433580 f i yassl:crypto_wrapper.obj
 0001:00032590       ??0MD5@yaSSL@@QAE@ABV01@@Z 00433590 f   yassl:crypto_wrapper.obj
 0001:000325d0       ??4MD5@yaSSL@@QAEAAV01@ABV01@@Z 004335d0 f   yassl:crypto_wrapper.obj
 0001:000325f0       ?get_digestSize@MD5@yaSSL@@UBEIXZ 004335f0 f   yassl:crypto_wrapper.obj
 0001:00032600       ?get_padSize@MD5@yaSSL@@UBEIXZ 00433600 f   yassl:crypto_wrapper.obj
 0001:00032610       ?get_digest@MD5@yaSSL@@UAEXPAEPBEI@Z 00433610 f   yassl:crypto_wrapper.obj
 0001:00032640       ?get_digest@MD5@yaSSL@@UAEXPAE@Z 00433640 f   yassl:crypto_wrapper.obj
 0001:00032650       ?update@MD5@yaSSL@@UAEXPBEI@Z 00433650 f   yassl:crypto_wrapper.obj
 0001:00032660       ??0SHAImpl@SHA@yaSSL@@QAE@XZ 00433660 f i yassl:crypto_wrapper.obj
 0001:00032680       ??0SHAImpl@SHA@yaSSL@@QAE@ABV1TaoCrypt@@@Z 00433680 f i yassl:crypto_wrapper.obj
 0001:000326a0       ??0SHA@yaSSL@@QAE@XZ       004336a0 f   yassl:crypto_wrapper.obj
 0001:000326f0       ??0SHA@yaSSL@@QAE@ABV01@@Z 004336f0 f   yassl:crypto_wrapper.obj
 0001:00032730       ??4SHA@yaSSL@@QAEAAV01@ABV01@@Z 00433730 f   yassl:crypto_wrapper.obj
 0001:00032750       ?get_digestSize@SHA@yaSSL@@UBEIXZ 00433750 f   yassl:crypto_wrapper.obj
 0001:00032760       ?get_padSize@SHA@yaSSL@@UBEIXZ 00433760 f   yassl:crypto_wrapper.obj
 0001:00032770       ?get_digest@SHA@yaSSL@@UAEXPAEPBEI@Z 00433770 f   yassl:crypto_wrapper.obj
 0001:000327a0       ?get_digest@SHA@yaSSL@@UAEXPAE@Z 004337a0 f   yassl:crypto_wrapper.obj
 0001:000327b0       ?update@SHA@yaSSL@@UAEXPBEI@Z 004337b0 f   yassl:crypto_wrapper.obj
 0001:000327c0       ??0RMDImpl@RMD@yaSSL@@QAE@XZ 004337c0 f i yassl:crypto_wrapper.obj
 0001:000327e0       ??0RMDImpl@RMD@yaSSL@@QAE@ABVRIPEMD160@TaoCrypt@@@Z 004337e0 f i yassl:crypto_wrapper.obj
 0001:00032800       ??0RMD@yaSSL@@QAE@XZ       00433800 f   yassl:crypto_wrapper.obj
 0001:00032850       ??0RMD@yaSSL@@QAE@ABV01@@Z 00433850 f   yassl:crypto_wrapper.obj
 0001:00032890       ??4RMD@yaSSL@@QAEAAV01@ABV01@@Z 00433890 f   yassl:crypto_wrapper.obj
 0001:000328b0       ?get_digestSize@RMD@yaSSL@@UBEIXZ 004338b0 f   yassl:crypto_wrapper.obj
 0001:000328c0       ?get_padSize@RMD@yaSSL@@UBEIXZ 004338c0 f   yassl:crypto_wrapper.obj
 0001:000328d0       ?get_digest@RMD@yaSSL@@UAEXPAEPBEI@Z 004338d0 f   yassl:crypto_wrapper.obj
 0001:00032900       ?get_digest@RMD@yaSSL@@UAEXPAE@Z 00433900 f   yassl:crypto_wrapper.obj
 0001:00032910       ?update@RMD@yaSSL@@UAEXPBEI@Z 00433910 f   yassl:crypto_wrapper.obj
 0001:00032920       ??1?$HMAC@VMD5@TaoCrypt@@@TaoCrypt@@QAE@XZ 00433920 f i yassl:crypto_wrapper.obj
 0001:00032930       ?get_digestSize@HMAC_MD5@yaSSL@@UBEIXZ 00433930 f   yassl:crypto_wrapper.obj
 0001:00032940       ?get_padSize@HMAC_MD5@yaSSL@@UBEIXZ 00433940 f   yassl:crypto_wrapper.obj
 0001:00032950       ??1?$HMAC@VSHA@TaoCrypt@@@TaoCrypt@@QAE@XZ 00433950 f i yassl:crypto_wrapper.obj
 0001:00032960       ?get_digestSize@HMAC_SHA@yaSSL@@UBEIXZ 00433960 f   yassl:crypto_wrapper.obj
 0001:00032970       ?get_padSize@HMAC_SHA@yaSSL@@UBEIXZ 00433970 f   yassl:crypto_wrapper.obj
 0001:00032980       ??1?$HMAC@VRIPEMD160@TaoCrypt@@@TaoCrypt@@QAE@XZ 00433980 f i yassl:crypto_wrapper.obj
 0001:00032990       ?get_digestSize@HMAC_RMD@yaSSL@@UBEIXZ 00433990 f   yassl:crypto_wrapper.obj
 0001:000329a0       ?get_padSize@HMAC_RMD@yaSSL@@UBEIXZ 004339a0 f   yassl:crypto_wrapper.obj
 0001:000329b0       ??0BulkCipher@yaSSL@@QAE@XZ 004339b0 f i yassl:crypto_wrapper.obj
 0001:000329c0       ??1?$BlockCipher@$0A@VDES@TaoCrypt@@$00@TaoCrypt@@QAE@XZ 004339c0 f i yassl:crypto_wrapper.obj
 0001:000329d0       ??1?$BlockCipher@$00VDES@TaoCrypt@@$00@TaoCrypt@@QAE@XZ 004339d0 f i yassl:crypto_wrapper.obj
 0001:000329e0       ??1?$BlockCipher@$0A@VDES_EDE3@TaoCrypt@@$00@TaoCrypt@@QAE@XZ 004339e0 f i yassl:crypto_wrapper.obj
 0001:000329f0       ??1?$BlockCipher@$00VDES_EDE3@TaoCrypt@@$00@TaoCrypt@@QAE@XZ 004339f0 f i yassl:crypto_wrapper.obj
 0001:00032a00       ??0RC4Impl@RC4@yaSSL@@QAE@XZ 00433a00 f i yassl:crypto_wrapper.obj
 0001:00032a10       ?set_encryptKey@RC4@yaSSL@@UAEXPBE0@Z 00433a10 f   yassl:crypto_wrapper.obj
 0001:00032a20       ?set_decryptKey@RC4@yaSSL@@UAEXPBE0@Z 00433a20 f   yassl:crypto_wrapper.obj
 0001:00032a40       ?encrypt@RC4@yaSSL@@UAEXPAEPBEI@Z 00433a40 f   yassl:crypto_wrapper.obj
 0001:00032a50       ?decrypt@RC4@yaSSL@@UAEXPAEPBEI@Z 00433a50 f   yassl:crypto_wrapper.obj
 0001:00032a60       ??1?$BlockCipher@$0A@VAES@TaoCrypt@@$00@TaoCrypt@@QAE@XZ 00433a60 f i yassl:crypto_wrapper.obj
 0001:00032a70       ??1?$BlockCipher@$00VAES@TaoCrypt@@$00@TaoCrypt@@QAE@XZ 00433a70 f i yassl:crypto_wrapper.obj
 0001:00032a80       ?get_keySize@AES@yaSSL@@UBEHXZ 00433a80 f   yassl:crypto_wrapper.obj
 0001:00032a90       ??0RandomImpl@RandomPool@yaSSL@@QAE@XZ 00433a90 f i yassl:crypto_wrapper.obj
 0001:00032aa0       ?GetError@RandomPool@yaSSL@@QBEHXZ 00433aa0 f   yassl:crypto_wrapper.obj
 0001:00032ab0       ?Fill@RandomPool@yaSSL@@QBEXPAEI@Z 00433ab0 f   yassl:crypto_wrapper.obj
 0001:00032ac0       ??0Auth@yaSSL@@QAE@XZ      00433ac0 f i yassl:crypto_wrapper.obj
 0001:00032ad0       ?get_signatureLength@DSS@yaSSL@@UBEIXZ 00433ad0 f   yassl:crypto_wrapper.obj
 0001:00032ae0       ?get_cipherLength@RSA@yaSSL@@QBEIXZ 00433ae0 f   yassl:crypto_wrapper.obj
 0001:00032af0       ?get_signatureLength@RSA@yaSSL@@UBEIXZ 00433af0 f   yassl:crypto_wrapper.obj
 0001:00032b00       ??4Integer@yaSSL@@QAEAAV01@ABV01@@Z 00433b00 f   yassl:crypto_wrapper.obj
 0001:00032b20       ?AllocKeys@DHImpl@DiffieHellman@yaSSL@@QAEXIII@Z 00433b20 f i yassl:crypto_wrapper.obj
 0001:00032b60       ?makeAgreement@DiffieHellman@yaSSL@@QAEXPBEI@Z 00433b60 f   yassl:crypto_wrapper.obj
 0001:00032b80       ?get_agreedKeyLength@DiffieHellman@yaSSL@@QBEIXZ 00433b80 f   yassl:crypto_wrapper.obj
 0001:00032b90       ?get_agreedKey@DiffieHellman@yaSSL@@QBEPBEXZ 00433b90 f   yassl:crypto_wrapper.obj
 0001:00032ba0       ?get_publicKey@DiffieHellman@yaSSL@@QBEPBEXZ 00433ba0 f   yassl:crypto_wrapper.obj
 0001:00032bb0       ??1?$Block@IV?$AlignedAllocator@I@TaoCrypt@@@TaoCrypt@@QAE@XZ 00433bb0 f i yassl:crypto_wrapper.obj
 0001:00032bc0       ??0?$BlockCipher@$0A@VDES@TaoCrypt@@$00@TaoCrypt@@QAE@XZ 00433bc0 f i yassl:crypto_wrapper.obj
 0001:00032bf0       ?Process@?$BlockCipher@$0A@VDES@TaoCrypt@@$00@TaoCrypt@@QAEXPAEPBEI@Z 00433bf0 f i yassl:crypto_wrapper.obj
 0001:00032c00       ?SetKey@?$BlockCipher@$0A@VDES@TaoCrypt@@$00@TaoCrypt@@QAEXPBEI0@Z 00433c00 f i yassl:crypto_wrapper.obj
 0001:00032c40       ??0?$BlockCipher@$00VDES@TaoCrypt@@$00@TaoCrypt@@QAE@XZ 00433c40 f i yassl:crypto_wrapper.obj
 0001:00032c70       ?Process@?$BlockCipher@$00VDES@TaoCrypt@@$00@TaoCrypt@@QAEXPAEPBEI@Z 00433c70 f i yassl:crypto_wrapper.obj
 0001:00032c80       ?SetKey@?$BlockCipher@$00VDES@TaoCrypt@@$00@TaoCrypt@@QAEXPBEI0@Z 00433c80 f i yassl:crypto_wrapper.obj
 0001:00032cc0       ??0?$BlockCipher@$0A@VDES_EDE3@TaoCrypt@@$00@TaoCrypt@@QAE@XZ 00433cc0 f i yassl:crypto_wrapper.obj
 0001:00032cf0       ?Process@?$BlockCipher@$0A@VDES_EDE3@TaoCrypt@@$00@TaoCrypt@@QAEXPAEPBEI@Z 00433cf0 f i yassl:crypto_wrapper.obj
 0001:00032d00       ?SetKey@?$BlockCipher@$0A@VDES_EDE3@TaoCrypt@@$00@TaoCrypt@@QAEXPBEI0@Z 00433d00 f i yassl:crypto_wrapper.obj
 0001:00032d30       ??0?$BlockCipher@$00VDES_EDE3@TaoCrypt@@$00@TaoCrypt@@QAE@XZ 00433d30 f i yassl:crypto_wrapper.obj
 0001:00032d60       ?Process@?$BlockCipher@$00VDES_EDE3@TaoCrypt@@$00@TaoCrypt@@QAEXPAEPBEI@Z 00433d60 f i yassl:crypto_wrapper.obj
 0001:00032d70       ?SetKey@?$BlockCipher@$00VDES_EDE3@TaoCrypt@@$00@TaoCrypt@@QAEXPBEI0@Z 00433d70 f i yassl:crypto_wrapper.obj
 0001:00032da0       ??0?$BlockCipher@$0A@VAES@TaoCrypt@@$00@TaoCrypt@@QAE@XZ 00433da0 f i yassl:crypto_wrapper.obj
 0001:00032dd0       ?Process@?$BlockCipher@$0A@VAES@TaoCrypt@@$00@TaoCrypt@@QAEXPAEPBEI@Z 00433dd0 f i yassl:crypto_wrapper.obj
 0001:00032de0       ?SetKey@?$BlockCipher@$0A@VAES@TaoCrypt@@$00@TaoCrypt@@QAEXPBEI0@Z 00433de0 f i yassl:crypto_wrapper.obj
 0001:00032e20       ??0?$BlockCipher@$00VAES@TaoCrypt@@$00@TaoCrypt@@QAE@XZ 00433e20 f i yassl:crypto_wrapper.obj
 0001:00032e50       ?Process@?$BlockCipher@$00VAES@TaoCrypt@@$00@TaoCrypt@@QAEXPAEPBEI@Z 00433e50 f i yassl:crypto_wrapper.obj
 0001:00032e60       ?SetKey@?$BlockCipher@$00VAES@TaoCrypt@@$00@TaoCrypt@@QAEXPBEI0@Z 00433e60 f i yassl:crypto_wrapper.obj
 0001:00032ea0       ??0?$RSA_Decryptor@VRSA_BlockType2@TaoCrypt@@@TaoCrypt@@QAE@ABVRSA_PrivateKey@1@@Z 00433ea0 f i yassl:crypto_wrapper.obj
 0001:00032eb0       ??0?$RSA_Encryptor@VRSA_BlockType2@TaoCrypt@@@TaoCrypt@@QAE@ABVRSA_PublicKey@1@@Z 00433eb0 f i yassl:crypto_wrapper.obj
 0001:00032ec0       ??$SaturatingSubtract@II@TaoCrypt@@YAIII@Z 00433ec0 f i yassl:crypto_wrapper.obj
 0001:00032ee0       ?Init@?$HMAC@VMD5@TaoCrypt@@@TaoCrypt@@QAEXXZ 00433ee0 f i yassl:crypto_wrapper.obj
 0001:00032f00       ?SetKey@?$HMAC@VMD5@TaoCrypt@@@TaoCrypt@@QAEXPBEI@Z 00433f00 f i yassl:crypto_wrapper.obj
 0001:00032ff0       ?Init@?$HMAC@VSHA@TaoCrypt@@@TaoCrypt@@QAEXXZ 00433ff0 f i yassl:crypto_wrapper.obj
 0001:00033010       ?SetKey@?$HMAC@VSHA@TaoCrypt@@@TaoCrypt@@QAEXPBEI@Z 00434010 f i yassl:crypto_wrapper.obj
 0001:00033100       ?Init@?$HMAC@VRIPEMD160@TaoCrypt@@@TaoCrypt@@QAEXXZ 00434100 f i yassl:crypto_wrapper.obj
 0001:00033120       ?SetKey@?$HMAC@VRIPEMD160@TaoCrypt@@@TaoCrypt@@QAEXPBEI@Z 00434120 f i yassl:crypto_wrapper.obj
 0001:00033210       ??$ysDelete@URC4Impl@RC4@yaSSL@@@yaSSL@@YAXPAURC4Impl@RC4@0@@Z 00434210 f i yassl:crypto_wrapper.obj
 0001:00033220       ??1MD5Impl@MD5@yaSSL@@QAE@XZ 00434220 f i yassl:crypto_wrapper.obj
 0001:00033230       ??1SHAImpl@SHA@yaSSL@@QAE@XZ 00434230 f i yassl:crypto_wrapper.obj
 0001:00033240       ??1RMDImpl@RMD@yaSSL@@QAE@XZ 00434240 f i yassl:crypto_wrapper.obj
 0001:00033250       ??1HMAC_MD5Impl@HMAC_MD5@yaSSL@@QAE@XZ 00434250 f i yassl:crypto_wrapper.obj
 0001:00033260       ??1HMAC_SHAImpl@HMAC_SHA@yaSSL@@QAE@XZ 00434260 f i yassl:crypto_wrapper.obj
 0001:00033270       ??1HMAC_RMDImpl@HMAC_RMD@yaSSL@@QAE@XZ 00434270 f i yassl:crypto_wrapper.obj
 0001:00033280       ??1DESImpl@DES@yaSSL@@QAE@XZ 00434280 f i yassl:crypto_wrapper.obj
 0001:000332a0       ??1DES_EDEImpl@DES_EDE@yaSSL@@QAE@XZ 004342a0 f i yassl:crypto_wrapper.obj
 0001:000332c0       ??1AESImpl@AES@yaSSL@@QAE@XZ 004342c0 f i yassl:crypto_wrapper.obj
 0001:000332e0       ??1RandomImpl@RandomPool@yaSSL@@QAE@XZ 004342e0 f i yassl:crypto_wrapper.obj
 0001:000332f0       ??0?$RSA_Encryptor@VRSA_BlockType1@TaoCrypt@@@TaoCrypt@@QAE@ABVRSA_PublicKey@1@@Z 004342f0 f i yassl:crypto_wrapper.obj
 0001:00033300       ?KeyInnerHash@?$HMAC@VMD5@TaoCrypt@@@TaoCrypt@@AAEXXZ 00434300 f i yassl:crypto_wrapper.obj
 0001:00033320       ?KeyInnerHash@?$HMAC@VSHA@TaoCrypt@@@TaoCrypt@@AAEXXZ 00434320 f i yassl:crypto_wrapper.obj
 0001:00033340       ?KeyInnerHash@?$HMAC@VRIPEMD160@TaoCrypt@@@TaoCrypt@@AAEXXZ 00434340 f i yassl:crypto_wrapper.obj
 0001:00033360       ??_GSHA@TaoCrypt@@UAEPAXI@Z 00434360 f i yassl:crypto_wrapper.obj
 0001:00033360       ??_ESHA@TaoCrypt@@UAEPAXI@Z 00434360 f i yassl:crypto_wrapper.obj
 0001:00033380       ??_GRIPEMD160@TaoCrypt@@UAEPAXI@Z 00434380 f i yassl:crypto_wrapper.obj
 0001:00033380       ??_ERIPEMD160@TaoCrypt@@UAEPAXI@Z 00434380 f i yassl:crypto_wrapper.obj
 0001:000333a0       ?Process@Mode_BASE@TaoCrypt@@UAEXPAEPBEI@Z 004343a0 f i yassl:crypto_wrapper.obj
 0001:00033410       ?CBC_Encrypt@Mode_BASE@TaoCrypt@@IAEXPAEPBEI@Z 00434410 f i yassl:crypto_wrapper.obj
 0001:00033490       ?CBC_Decrypt@Mode_BASE@TaoCrypt@@IAEXPAEPBEI@Z 00434490 f i yassl:crypto_wrapper.obj
 0001:00033580       ??_EDES@TaoCrypt@@UAEPAXI@Z 00434580 f i yassl:crypto_wrapper.obj
 0001:00033580       ??_GDES@TaoCrypt@@UAEPAXI@Z 00434580 f i yassl:crypto_wrapper.obj
 0001:000335a0       ??_EDES_EDE3@TaoCrypt@@UAEPAXI@Z 004345a0 f i yassl:crypto_wrapper.obj
 0001:000335a0       ??_GDES_EDE3@TaoCrypt@@UAEPAXI@Z 004345a0 f i yassl:crypto_wrapper.obj
 0001:000335c0       ??_GAES@TaoCrypt@@UAEPAXI@Z 004345c0 f i yassl:crypto_wrapper.obj
 0001:000335c0       ??_EAES@TaoCrypt@@UAEPAXI@Z 004345c0 f i yassl:crypto_wrapper.obj
 0001:000335e0       ??1Integer@TaoCrypt@@QAE@XZ 004345e0 f i yassl:crypto_wrapper.obj
 0001:000335f0       ?FixedMaxPlaintextLength@PK_Lengths@TaoCrypt@@QBEIXZ 004345f0 f i yassl:crypto_wrapper.obj
 0001:00033610       ??0RSA_PublicKey@TaoCrypt@@QAE@XZ 00434610 f i yassl:crypto_wrapper.obj
 0001:00033630       ??0RSA_PublicKey@TaoCrypt@@QAE@ABV01@@Z 00434630 f i yassl:crypto_wrapper.obj
 0001:00033660       ??1RSA_PublicKey@TaoCrypt@@QAE@XZ 00434660 f i yassl:crypto_wrapper.obj
 0001:00033690       ??0RSA_PrivateKey@TaoCrypt@@QAE@XZ 00434690 f i yassl:crypto_wrapper.obj
 0001:000336e0       ??0DSA_PublicKey@TaoCrypt@@QAE@XZ 004346e0 f i yassl:crypto_wrapper.obj
 0001:00033710       ??1DSA_PublicKey@TaoCrypt@@QAE@XZ 00434710 f i yassl:crypto_wrapper.obj
 0001:00033760       ??0DH@TaoCrypt@@QAE@XZ     00434760 f i yassl:crypto_wrapper.obj
 0001:00033780       ??0DH@TaoCrypt@@QAE@ABV01@@Z 00434780 f i yassl:crypto_wrapper.obj
 0001:000337b0       ?Initialize@DH@TaoCrypt@@QAEXAAVInteger@2@0@Z 004347b0 f i yassl:crypto_wrapper.obj
 0001:000337d0       ??1DH@TaoCrypt@@QAE@XZ     004347d0 f i yassl:crypto_wrapper.obj
 0001:00033800       ??0MD5@yaSSL@@QAE@XZ       00434800 f   yassl:crypto_wrapper.obj
 0001:00033850       ??0DESImpl@DES@yaSSL@@QAE@XZ 00434850 f i yassl:crypto_wrapper.obj
 0001:000338b0       ?set_encryptKey@DES@yaSSL@@UAEXPBE0@Z 004348b0 f   yassl:crypto_wrapper.obj
 0001:000338f0       ?set_decryptKey@DES@yaSSL@@UAEXPBE0@Z 004348f0 f   yassl:crypto_wrapper.obj
 0001:00033930       ?encrypt@DES@yaSSL@@UAEXPAEPBEI@Z 00434930 f   yassl:crypto_wrapper.obj
 0001:00033940       ?decrypt@DES@yaSSL@@UAEXPAEPBEI@Z 00434940 f   yassl:crypto_wrapper.obj
 0001:00033960       ??0DES_EDEImpl@DES_EDE@yaSSL@@QAE@XZ 00434960 f i yassl:crypto_wrapper.obj
 0001:000339c0       ?set_encryptKey@DES_EDE@yaSSL@@UAEXPBE0@Z 004349c0 f   yassl:crypto_wrapper.obj
 0001:000339f0       ?set_decryptKey@DES_EDE@yaSSL@@UAEXPBE0@Z 004349f0 f   yassl:crypto_wrapper.obj
 0001:00033a20       ?encrypt@DES_EDE@yaSSL@@UAEXPAEPBEI@Z 00434a20 f   yassl:crypto_wrapper.obj
 0001:00033a30       ?decrypt@DES_EDE@yaSSL@@UAEXPAEPBEI@Z 00434a30 f   yassl:crypto_wrapper.obj
 0001:00033a50       ??0RC4@yaSSL@@QAE@XZ       00434a50 f   yassl:crypto_wrapper.obj
 0001:00033a70       ?get_blockSize@RC4@yaSSL@@UBEIXZ 00434a70 f i yassl:crypto_wrapper.obj
 0001:00033a80       ?get_keySize@RC4@yaSSL@@UBEHXZ 00434a80 f i yassl:crypto_wrapper.obj
 0001:00033a90       ?get_ivSize@RC4@yaSSL@@UBEHXZ 00434a90 f i yassl:crypto_wrapper.obj
 0001:00033aa0       ??1RC4@yaSSL@@UAE@XZ       00434aa0 f   yassl:crypto_wrapper.obj
 0001:00033ac0       ??0AESImpl@AES@yaSSL@@QAE@I@Z 00434ac0 f i yassl:crypto_wrapper.obj
 0001:00033b30       ??0AES@yaSSL@@QAE@I@Z      00434b30 f   yassl:crypto_wrapper.obj
 0001:00033b70       ?get_blockSize@AES@yaSSL@@UBEIXZ 00434b70 f i yassl:crypto_wrapper.obj
 0001:00033b80       ?get_ivSize@AES@yaSSL@@UBEHXZ 00434b80 f i yassl:crypto_wrapper.obj
 0001:00033b90       ?set_encryptKey@AES@yaSSL@@UAEXPBE0@Z 00434b90 f   yassl:crypto_wrapper.obj
 0001:00033bd0       ?set_decryptKey@AES@yaSSL@@UAEXPBE0@Z 00434bd0 f   yassl:crypto_wrapper.obj
 0001:00033c10       ?encrypt@AES@yaSSL@@UAEXPAEPBEI@Z 00434c10 f   yassl:crypto_wrapper.obj
 0001:00033c20       ?decrypt@AES@yaSSL@@UAEXPAEPBEI@Z 00434c20 f   yassl:crypto_wrapper.obj
 0001:00033c40       ??0RandomPool@yaSSL@@QAE@XZ 00434c40 f   yassl:crypto_wrapper.obj
 0001:00033c70       ??1DSA_PrivateKey@TaoCrypt@@QAE@XZ 00434c70 f i yassl:crypto_wrapper.obj
 0001:00033cd0       ??1DSA_Signer@TaoCrypt@@QAE@XZ 00434cd0 f i yassl:crypto_wrapper.obj
 0001:00033d00       ??1DSA_Verifier@TaoCrypt@@QAE@XZ 00434d00 f i yassl:crypto_wrapper.obj
 0001:00033d30       ??1RSA_PrivateKey@TaoCrypt@@QAE@XZ 00434d30 f i yassl:crypto_wrapper.obj
 0001:00033dc0       ??0IntegerImpl@Integer@yaSSL@@QAE@XZ 00434dc0 f i yassl:crypto_wrapper.obj
 0001:00033dd0       ??0IntegerImpl@Integer@yaSSL@@QAE@ABV1TaoCrypt@@@Z 00434dd0 f i yassl:crypto_wrapper.obj
 0001:00033df0       ??0Integer@yaSSL@@QAE@XZ   00434df0 f   yassl:crypto_wrapper.obj
 0001:00033e20       ??0Integer@yaSSL@@QAE@ABV01@@Z 00434e20 f   yassl:crypto_wrapper.obj
 0001:00033e60       ?assign@Integer@yaSSL@@QAEXPBEI@Z 00434e60 f   yassl:crypto_wrapper.obj
 0001:00033ea0       ??0DHImpl@DiffieHellman@yaSSL@@QAE@AAVRandomNumberGenerator@TaoCrypt@@@Z 00434ea0 f i yassl:crypto_wrapper.obj
 0001:00033ed0       ??1DHImpl@DiffieHellman@yaSSL@@QAE@XZ 00434ed0 f i yassl:crypto_wrapper.obj
 0001:00033f20       ??0DHImpl@DiffieHellman@yaSSL@@QAE@ABU012@@Z 00434f20 f i yassl:crypto_wrapper.obj
 0001:00033f80       ??0DiffieHellman@yaSSL@@QAE@PBEI0I0IABVRandomPool@1@@Z 00434f80 f   yassl:crypto_wrapper.obj
 0001:00034070       ??0DiffieHellman@yaSSL@@QAE@ABVInteger@1@0ABVRandomPool@1@@Z 00435070 f   yassl:crypto_wrapper.obj
 0001:00034120       ??0DiffieHellman@yaSSL@@QAE@ABV01@@Z 00435120 f   yassl:crypto_wrapper.obj
 0001:00034160       ?set_sizes@DiffieHellman@yaSSL@@QBEXAAH00@Z 00435160 f   yassl:crypto_wrapper.obj
 0001:000341e0       ?get_parms@DiffieHellman@yaSSL@@QBEXPAE00@Z 004351e0 f   yassl:crypto_wrapper.obj
 0001:00034290       ??0?$HMAC@VMD5@TaoCrypt@@@TaoCrypt@@QAE@XZ 00435290 f i yassl:crypto_wrapper.obj
 0001:000342e0       ??0?$HMAC@VSHA@TaoCrypt@@@TaoCrypt@@QAE@XZ 004352e0 f i yassl:crypto_wrapper.obj
 0001:00034330       ??0?$HMAC@VRIPEMD160@TaoCrypt@@@TaoCrypt@@QAE@XZ 00435330 f i yassl:crypto_wrapper.obj
 0001:00034380       ?Update@?$HMAC@VMD5@TaoCrypt@@@TaoCrypt@@QAEXPBEI@Z 00435380 f i yassl:crypto_wrapper.obj
 0001:000343b0       ?Final@?$HMAC@VMD5@TaoCrypt@@@TaoCrypt@@QAEXPAE@Z 004353b0 f i yassl:crypto_wrapper.obj
 0001:00034410       ?Update@?$HMAC@VSHA@TaoCrypt@@@TaoCrypt@@QAEXPBEI@Z 00435410 f i yassl:crypto_wrapper.obj
 0001:00034440       ?Final@?$HMAC@VSHA@TaoCrypt@@@TaoCrypt@@QAEXPAE@Z 00435440 f i yassl:crypto_wrapper.obj
 0001:000344a0       ?Update@?$HMAC@VRIPEMD160@TaoCrypt@@@TaoCrypt@@QAEXPBEI@Z 004354a0 f i yassl:crypto_wrapper.obj
 0001:000344d0       ?Final@?$HMAC@VRIPEMD160@TaoCrypt@@@TaoCrypt@@QAEXPAE@Z 004354d0 f i yassl:crypto_wrapper.obj
 0001:00034530       ??_GMD5Impl@MD5@yaSSL@@QAEPAXI@Z 00435530 f i yassl:crypto_wrapper.obj
 0001:00034550       ??_GSHAImpl@SHA@yaSSL@@QAEPAXI@Z 00435550 f i yassl:crypto_wrapper.obj
 0001:00034570       ??_GRMDImpl@RMD@yaSSL@@QAEPAXI@Z 00435570 f i yassl:crypto_wrapper.obj
 0001:00034590       ??_GHMAC_MD5Impl@HMAC_MD5@yaSSL@@QAEPAXI@Z 00435590 f i yassl:crypto_wrapper.obj
 0001:000345b0       ??_GHMAC_SHAImpl@HMAC_SHA@yaSSL@@QAEPAXI@Z 004355b0 f i yassl:crypto_wrapper.obj
 0001:000345d0       ??_GHMAC_RMDImpl@HMAC_RMD@yaSSL@@QAEPAXI@Z 004355d0 f i yassl:crypto_wrapper.obj
 0001:000345f0       ??_GDESImpl@DES@yaSSL@@QAEPAXI@Z 004355f0 f i yassl:crypto_wrapper.obj
 0001:00034620       ??_GDES_EDEImpl@DES_EDE@yaSSL@@QAEPAXI@Z 00435620 f i yassl:crypto_wrapper.obj
 0001:00034650       ??_GAESImpl@AES@yaSSL@@QAEPAXI@Z 00435650 f i yassl:crypto_wrapper.obj
 0001:00034680       ??_GRandomImpl@RandomPool@yaSSL@@QAEPAXI@Z 00435680 f i yassl:crypto_wrapper.obj
 0001:000346a0       ??_GDHImpl@DiffieHellman@yaSSL@@QAEPAXI@Z 004356a0 f i yassl:crypto_wrapper.obj
 0001:00034700       ??1DSSImpl@DSS@yaSSL@@QAE@XZ 00435700 f i yassl:crypto_wrapper.obj
 0001:00034750       ??1RSAImpl@RSA@yaSSL@@QAE@XZ 00435750 f i yassl:crypto_wrapper.obj
 0001:00034780       ??1IntegerImpl@Integer@yaSSL@@QAE@XZ 00435780 f i yassl:crypto_wrapper.obj
 0001:00034790       ??4RSA_PublicKey@TaoCrypt@@QAEAAV01@ABV01@@Z 00435790 f i yassl:crypto_wrapper.obj
 0001:00034800       ??0DSA_PrivateKey@TaoCrypt@@QAE@XZ 00435800 f i yassl:crypto_wrapper.obj
 0001:00034830       ??4DH@TaoCrypt@@QAEAAV01@ABV01@@Z 00435830 f i yassl:crypto_wrapper.obj
 0001:000348a0       ??0HMAC_MD5Impl@HMAC_MD5@yaSSL@@QAE@XZ 004358a0 f i yassl:crypto_wrapper.obj
 0001:000348f0       ??0HMAC_MD5@yaSSL@@QAE@PBEI@Z 004358f0 f   yassl:crypto_wrapper.obj
 0001:00034930       ?get_digest@HMAC_MD5@yaSSL@@UAEXPAEPBEI@Z 00435930 f   yassl:crypto_wrapper.obj
 0001:00034980       ?get_digest@HMAC_MD5@yaSSL@@UAEXPAE@Z 00435980 f   yassl:crypto_wrapper.obj
 0001:00034990       ?update@HMAC_MD5@yaSSL@@UAEXPBEI@Z 00435990 f   yassl:crypto_wrapper.obj
 0001:000349c0       ??0HMAC_SHAImpl@HMAC_SHA@yaSSL@@QAE@XZ 004359c0 f i yassl:crypto_wrapper.obj
 0001:00034a10       ??0HMAC_SHA@yaSSL@@QAE@PBEI@Z 00435a10 f   yassl:crypto_wrapper.obj
 0001:00034a50       ?get_digest@HMAC_SHA@yaSSL@@UAEXPAEPBEI@Z 00435a50 f   yassl:crypto_wrapper.obj
 0001:00034aa0       ?get_digest@HMAC_SHA@yaSSL@@UAEXPAE@Z 00435aa0 f   yassl:crypto_wrapper.obj
 0001:00034ab0       ?update@HMAC_SHA@yaSSL@@UAEXPBEI@Z 00435ab0 f   yassl:crypto_wrapper.obj
 0001:00034ae0       ??0HMAC_RMDImpl@HMAC_RMD@yaSSL@@QAE@XZ 00435ae0 f i yassl:crypto_wrapper.obj
 0001:00034b30       ??0HMAC_RMD@yaSSL@@QAE@PBEI@Z 00435b30 f   yassl:crypto_wrapper.obj
 0001:00034b70       ?get_digest@HMAC_RMD@yaSSL@@UAEXPAEPBEI@Z 00435b70 f   yassl:crypto_wrapper.obj
 0001:00034bc0       ?get_digest@HMAC_RMD@yaSSL@@UAEXPAE@Z 00435bc0 f   yassl:crypto_wrapper.obj
 0001:00034bd0       ?update@HMAC_RMD@yaSSL@@UAEXPBEI@Z 00435bd0 f   yassl:crypto_wrapper.obj
 0001:00034c00       ??0DES@yaSSL@@QAE@XZ       00435c00 f   yassl:crypto_wrapper.obj
 0001:00034c40       ?get_blockSize@DES@yaSSL@@UBEIXZ 00435c40 f i yassl:crypto_wrapper.obj
 0001:00034c50       ?get_keySize@DES@yaSSL@@UBEHXZ 00435c50 f i yassl:crypto_wrapper.obj
 0001:00034c60       ?get_ivSize@DES@yaSSL@@UBEHXZ 00435c60 f i yassl:crypto_wrapper.obj
 0001:00034c70       ??0DES_EDE@yaSSL@@QAE@XZ   00435c70 f   yassl:crypto_wrapper.obj
 0001:00034cb0       ?get_blockSize@DES_EDE@yaSSL@@UBEIXZ 00435cb0 f i yassl:crypto_wrapper.obj
 0001:00034cc0       ?get_keySize@DES_EDE@yaSSL@@UBEHXZ 00435cc0 f i yassl:crypto_wrapper.obj
 0001:00034cd0       ?get_ivSize@DES_EDE@yaSSL@@UBEHXZ 00435cd0 f i yassl:crypto_wrapper.obj
 0001:00034ce0       ??_ERC4@yaSSL@@UAEPAXI@Z   00435ce0 f i yassl:crypto_wrapper.obj
 0001:00034ce0       ??_GRC4@yaSSL@@UAEPAXI@Z   00435ce0 f i yassl:crypto_wrapper.obj
 0001:00034d20       ??0DSSImpl@DSS@yaSSL@@QAE@XZ 00435d20 f i yassl:crypto_wrapper.obj
 0001:00034d70       ?sign@DSS@yaSSL@@UAEXPAEPBEIABVRandomPool@2@@Z 00435d70 f   yassl:crypto_wrapper.obj
 0001:00034dd0       ?verify@DSS@yaSSL@@UAE_NPBEI0I@Z 00435dd0 f   yassl:crypto_wrapper.obj
 0001:00034e30       ??0RSAImpl@RSA@yaSSL@@QAE@XZ 00435e30 f i yassl:crypto_wrapper.obj
 0001:00034e90       ??4DiffieHellman@yaSSL@@QAEAAV01@ABV01@@Z 00435e90 f   yassl:crypto_wrapper.obj
 0001:00034ec0       ??$ysDelete@UMD5Impl@MD5@yaSSL@@@yaSSL@@YAXPAUMD5Impl@MD5@0@@Z 00435ec0 f i yassl:crypto_wrapper.obj
 0001:00034ee0       ??$ysDelete@USHAImpl@SHA@yaSSL@@@yaSSL@@YAXPAUSHAImpl@SHA@0@@Z 00435ee0 f i yassl:crypto_wrapper.obj
 0001:00034f00       ??$ysDelete@URMDImpl@RMD@yaSSL@@@yaSSL@@YAXPAURMDImpl@RMD@0@@Z 00435f00 f i yassl:crypto_wrapper.obj
 0001:00034f20       ??$ysDelete@UHMAC_MD5Impl@HMAC_MD5@yaSSL@@@yaSSL@@YAXPAUHMAC_MD5Impl@HMAC_MD5@0@@Z 00435f20 f i yassl:crypto_wrapper.obj
 0001:00034f40       ??$ysDelete@UHMAC_SHAImpl@HMAC_SHA@yaSSL@@@yaSSL@@YAXPAUHMAC_SHAImpl@HMAC_SHA@0@@Z 00435f40 f i yassl:crypto_wrapper.obj
 0001:00034f60       ??$ysDelete@UHMAC_RMDImpl@HMAC_RMD@yaSSL@@@yaSSL@@YAXPAUHMAC_RMDImpl@HMAC_RMD@0@@Z 00435f60 f i yassl:crypto_wrapper.obj
 0001:00034f80       ??$ysDelete@UDESImpl@DES@yaSSL@@@yaSSL@@YAXPAUDESImpl@DES@0@@Z 00435f80 f i yassl:crypto_wrapper.obj
 0001:00034fb0       ??$ysDelete@UDES_EDEImpl@DES_EDE@yaSSL@@@yaSSL@@YAXPAUDES_EDEImpl@DES_EDE@0@@Z 00435fb0 f i yassl:crypto_wrapper.obj
 0001:00034fe0       ??$ysDelete@UAESImpl@AES@yaSSL@@@yaSSL@@YAXPAUAESImpl@AES@0@@Z 00435fe0 f i yassl:crypto_wrapper.obj
 0001:00035010       ??$ysDelete@URandomImpl@RandomPool@yaSSL@@@yaSSL@@YAXPAURandomImpl@RandomPool@0@@Z 00436010 f i yassl:crypto_wrapper.obj
 0001:00035030       ??$ysDelete@UDHImpl@DiffieHellman@yaSSL@@@yaSSL@@YAXPAUDHImpl@DiffieHellman@0@@Z 00436030 f i yassl:crypto_wrapper.obj
 0001:00035090       ??_GDSSImpl@DSS@yaSSL@@QAEPAXI@Z 00436090 f i yassl:crypto_wrapper.obj
 0001:000350f0       ??_GRSAImpl@RSA@yaSSL@@QAEPAXI@Z 004360f0 f i yassl:crypto_wrapper.obj
 0001:00035130       ??_GIntegerImpl@Integer@yaSSL@@QAEPAXI@Z 00436130 f i yassl:crypto_wrapper.obj
 0001:00035160       ??1MD5@yaSSL@@UAE@XZ       00436160 f   yassl:crypto_wrapper.obj
 0001:00035190       ??1SHA@yaSSL@@UAE@XZ       00436190 f   yassl:crypto_wrapper.obj
 0001:000351c0       ??1RMD@yaSSL@@UAE@XZ       004361c0 f   yassl:crypto_wrapper.obj
 0001:000351f0       ??1HMAC_MD5@yaSSL@@UAE@XZ  004361f0 f   yassl:crypto_wrapper.obj
 0001:00035220       ??1HMAC_SHA@yaSSL@@UAE@XZ  00436220 f   yassl:crypto_wrapper.obj
 0001:00035250       ??1HMAC_RMD@yaSSL@@UAE@XZ  00436250 f   yassl:crypto_wrapper.obj
 0001:00035280       ??1DES@yaSSL@@UAE@XZ       00436280 f   yassl:crypto_wrapper.obj
 0001:000352c0       ??1DES_EDE@yaSSL@@UAE@XZ   004362c0 f   yassl:crypto_wrapper.obj
 0001:00035300       ??1AES@yaSSL@@UAE@XZ       00436300 f   yassl:crypto_wrapper.obj
 0001:00035340       ??1RandomPool@yaSSL@@QAE@XZ 00436340 f   yassl:crypto_wrapper.obj
 0001:00035360       ?SetPublic@DSSImpl@DSS@yaSSL@@QAEXPBEI@Z 00436360 f   yassl:crypto_wrapper.obj
 0001:000353f0       ?SetPrivate@DSSImpl@DSS@yaSSL@@QAEXPBEI@Z 004363f0 f   yassl:crypto_wrapper.obj
 0001:000354e0       ??0DSS@yaSSL@@QAE@PBEI_N@Z 004364e0 f   yassl:crypto_wrapper.obj
 0001:00035540       ?SetPublic@RSAImpl@RSA@yaSSL@@QAEXPBEI@Z 00436540 f   yassl:crypto_wrapper.obj
 0001:000355d0       ?SetPrivate@RSAImpl@RSA@yaSSL@@QAEXPBEI@Z 004365d0 f   yassl:crypto_wrapper.obj
 0001:000356a0       ??0RSA@yaSSL@@QAE@PBEI_N@Z 004366a0 f   yassl:crypto_wrapper.obj
 0001:00035700       ??1DiffieHellman@yaSSL@@QAE@XZ 00436700 f   yassl:crypto_wrapper.obj
 0001:00035710       ??1Base64Decoder@TaoCrypt@@QAE@XZ 00436710 f i yassl:crypto_wrapper.obj
 0001:00035740       ??$ysDelete@UDSSImpl@DSS@yaSSL@@@yaSSL@@YAXPAUDSSImpl@DSS@0@@Z 00436740 f i yassl:crypto_wrapper.obj
 0001:000357a0       ??$ysDelete@URSAImpl@RSA@yaSSL@@@yaSSL@@YAXPAURSAImpl@RSA@0@@Z 004367a0 f i yassl:crypto_wrapper.obj
 0001:000357e0       ??$ysDelete@UIntegerImpl@Integer@yaSSL@@@yaSSL@@YAXPAUIntegerImpl@Integer@0@@Z 004367e0 f i yassl:crypto_wrapper.obj
 0001:00035810       ??_EMD5@yaSSL@@UAEPAXI@Z   00436810 f i yassl:crypto_wrapper.obj
 0001:00035810       ??_GMD5@yaSSL@@UAEPAXI@Z   00436810 f i yassl:crypto_wrapper.obj
 0001:00035850       ??_ESHA@yaSSL@@UAEPAXI@Z   00436850 f i yassl:crypto_wrapper.obj
 0001:00035850       ??_GSHA@yaSSL@@UAEPAXI@Z   00436850 f i yassl:crypto_wrapper.obj
 0001:00035890       ??_ERMD@yaSSL@@UAEPAXI@Z   00436890 f i yassl:crypto_wrapper.obj
 0001:00035890       ??_GRMD@yaSSL@@UAEPAXI@Z   00436890 f i yassl:crypto_wrapper.obj
 0001:000358d0       ??_EHMAC_MD5@yaSSL@@UAEPAXI@Z 004368d0 f i yassl:crypto_wrapper.obj
 0001:000358d0       ??_GHMAC_MD5@yaSSL@@UAEPAXI@Z 004368d0 f i yassl:crypto_wrapper.obj
 0001:00035910       ??_EHMAC_SHA@yaSSL@@UAEPAXI@Z 00436910 f i yassl:crypto_wrapper.obj
 0001:00035910       ??_GHMAC_SHA@yaSSL@@UAEPAXI@Z 00436910 f i yassl:crypto_wrapper.obj
 0001:00035950       ??_EHMAC_RMD@yaSSL@@UAEPAXI@Z 00436950 f i yassl:crypto_wrapper.obj
 0001:00035950       ??_GHMAC_RMD@yaSSL@@UAEPAXI@Z 00436950 f i yassl:crypto_wrapper.obj
 0001:00035990       ??_EDES@yaSSL@@UAEPAXI@Z   00436990 f i yassl:crypto_wrapper.obj
 0001:00035990       ??_GDES@yaSSL@@UAEPAXI@Z   00436990 f i yassl:crypto_wrapper.obj
 0001:000359e0       ??_GDES_EDE@yaSSL@@UAEPAXI@Z 004369e0 f i yassl:crypto_wrapper.obj
 0001:000359e0       ??_EDES_EDE@yaSSL@@UAEPAXI@Z 004369e0 f i yassl:crypto_wrapper.obj
 0001:00035a30       ??_EAES@yaSSL@@UAEPAXI@Z   00436a30 f i yassl:crypto_wrapper.obj
 0001:00035a30       ??_GAES@yaSSL@@UAEPAXI@Z   00436a30 f i yassl:crypto_wrapper.obj
 0001:00035a80       ??1DSS@yaSSL@@UAE@XZ       00436a80 f   yassl:crypto_wrapper.obj
 0001:00035aa0       ??1RSA@yaSSL@@UAE@XZ       00436aa0 f   yassl:crypto_wrapper.obj
 0001:00035af0       ??1Integer@yaSSL@@QAE@XZ   00436af0 f   yassl:crypto_wrapper.obj
 0001:00035b20       ?Decrypt@?$RSA_Decryptor@VRSA_BlockType2@TaoCrypt@@@TaoCrypt@@QAEIPBEIPAEAAVRandomNumberGenerator@2@@Z 00436b20 f i yassl:crypto_wrapper.obj
 0001:00035c50       ?Encrypt@?$RSA_Encryptor@VRSA_BlockType2@TaoCrypt@@@TaoCrypt@@QAEXPBEIPAEAAVRandomNumberGenerator@2@@Z 00436c50 f i yassl:crypto_wrapper.obj
 0001:00035d50       ?SSL_Verify@?$RSA_Encryptor@VRSA_BlockType2@TaoCrypt@@@TaoCrypt@@QAE_NPBEI0@Z 00436d50 f i yassl:crypto_wrapper.obj
 0001:00035e30       ?Encrypt@?$RSA_Encryptor@VRSA_BlockType1@TaoCrypt@@@TaoCrypt@@QAEXPBEIPAEAAVRandomNumberGenerator@2@@Z 00436e30 f i yassl:crypto_wrapper.obj
 0001:00035f30       ??0Base64Decoder@TaoCrypt@@QAE@AAVSource@1@@Z 00436f30 f i yassl:crypto_wrapper.obj
 0001:00035f80       ??_EDSS@yaSSL@@UAEPAXI@Z   00436f80 f i yassl:crypto_wrapper.obj
 0001:00035f80       ??_GDSS@yaSSL@@UAEPAXI@Z   00436f80 f i yassl:crypto_wrapper.obj
 0001:00035fc0       ??_GRSA@yaSSL@@UAEPAXI@Z   00436fc0 f i yassl:crypto_wrapper.obj
 0001:00035fc0       ??_ERSA@yaSSL@@UAEPAXI@Z   00436fc0 f i yassl:crypto_wrapper.obj
 0001:00036020       ?verify@RSA@yaSSL@@UAE_NPBEI0I@Z 00437020 f   yassl:crypto_wrapper.obj
 0001:00036050       ?encrypt@RSA@yaSSL@@QAEXPAEPBEIABVRandomPool@2@@Z 00437050 f   yassl:crypto_wrapper.obj
 0001:00036080       ?decrypt@RSA@yaSSL@@QAEXPAEPBEIABVRandomPool@2@@Z 00437080 f   yassl:crypto_wrapper.obj
 0001:000360c0       ?PemToDer@yaSSL@@YAPAVx509@1@PAU_iobuf@@W4CertType@1@PAUEncryptedInfo@1@@Z 004370c0 f   yassl:crypto_wrapper.obj
 0001:000364a0       ?SSL_Sign@?$RSA_Decryptor@VRSA_BlockType2@TaoCrypt@@@TaoCrypt@@QAEXPBEIPAEAAVRandomNumberGenerator@2@@Z 004374a0 f i yassl:crypto_wrapper.obj
 0001:00036530       ?sign@RSA@yaSSL@@UAEXPAEPBEIABVRandomPool@2@@Z 00437530 f   yassl:crypto_wrapper.obj
 0001:00036570       ??0Message@yaSSL@@QAE@XZ   00437570 f i yassl:yassl_imp.obj
 0001:00036580       ??0HandShakeHeader@yaSSL@@QAE@XZ 00437580 f i yassl:yassl_imp.obj
 0001:00036590       ??1ServerKeyBase@yaSSL@@UAE@XZ 00437590 f i yassl:yassl_imp.obj
 0001:000365a0       ?build@ServerKeyBase@yaSSL@@UAEXAAVSSL@2@@Z 004375a0 f i yassl:yassl_imp.obj
 0001:000365b0       ?read@ServerKeyBase@yaSSL@@UAEXAAVSSL@2@AAVinput_buffer@2@@Z 004375b0 f i yassl:yassl_imp.obj
 0001:000365c0       ??_EServerKeyBase@yaSSL@@UAEPAXI@Z 004375c0 f i yassl:yassl_imp.obj
 0001:000365c0       ??_GServerKeyBase@yaSSL@@UAEPAXI@Z 004375c0 f i yassl:yassl_imp.obj
 0001:000365e0       ??1ClientKeyBase@yaSSL@@UAE@XZ 004375e0 f i yassl:yassl_imp.obj
 0001:000365f0       ?build@ClientKeyBase@yaSSL@@UAEXAAVSSL@2@@Z 004375f0 f i yassl:yassl_imp.obj
 0001:00036600       ?read@ClientKeyBase@yaSSL@@UAEXAAVSSL@2@AAVinput_buffer@2@@Z 00437600 f i yassl:yassl_imp.obj
 0001:00036610       ??_GClientKeyBase@yaSSL@@UAEPAXI@Z 00437610 f i yassl:yassl_imp.obj
 0001:00036610       ??_EClientKeyBase@yaSSL@@UAEPAXI@Z 00437610 f i yassl:yassl_imp.obj
 0001:00036630       ?isTLS@?A0x2fbcf5cb@yaSSL@@YA_NUProtocolVersion@2@@Z 00437630 f   yassl:yassl_imp.obj
 0001:00036650       ??0ProtocolVersion@yaSSL@@QAE@EE@Z 00437650 f   yassl:yassl_imp.obj
 0001:00036670       ??0ClientKeyBase@yaSSL@@QAE@XZ 00437670 f i yassl:yassl_imp.obj
 0001:00036680       ?get_length@EncryptedPreMasterSecret@yaSSL@@UBEHXZ 00437680 f   yassl:yassl_imp.obj
 0001:00036690       ?get_clientKey@EncryptedPreMasterSecret@yaSSL@@UBEPAEXZ 00437690 f   yassl:yassl_imp.obj
 0001:000366a0       ?alloc@EncryptedPreMasterSecret@yaSSL@@QAEXH@Z 004376a0 f   yassl:yassl_imp.obj
 0001:000366c0       ??0ClientDiffieHellmanPublic@yaSSL@@QAE@XZ 004376c0 f   yassl:yassl_imp.obj
 0001:000366e0       ?get_length@ClientDiffieHellmanPublic@yaSSL@@UBEHXZ 004376e0 f   yassl:yassl_imp.obj
 0001:000366f0       ?get_clientKey@ClientDiffieHellmanPublic@yaSSL@@UBEPAEXZ 004376f0 f   yassl:yassl_imp.obj
 0001:00036700       ?alloc@ClientDiffieHellmanPublic@yaSSL@@QAEXH_N@Z 00437700 f   yassl:yassl_imp.obj
 0001:00036730       ??0ServerKeyBase@yaSSL@@QAE@XZ 00437730 f i yassl:yassl_imp.obj
 0001:00036740       ?get_length@DH_Server@yaSSL@@UBEHXZ 00437740 f   yassl:yassl_imp.obj
 0001:00036750       ?get_serverKey@DH_Server@yaSSL@@UBEPAEXZ 00437750 f   yassl:yassl_imp.obj
 0001:00036760       ?SetCipherNames@Parameters@yaSSL@@QAEXXZ 00437760 f   yassl:yassl_imp.obj
 0001:000367e0       ??5yaSSL@@YAAAVinput_buffer@0@AAV10@AAURecordLayerHeader@0@@Z 004377e0 f   yassl:yassl_imp.obj
 0001:00036860       ??6yaSSL@@YAAAVoutput_buffer@0@AAV10@ABURecordLayerHeader@0@@Z 00437860 f   yassl:yassl_imp.obj
 0001:000368e0       ??5yaSSL@@YAAAVinput_buffer@0@AAV10@AAUMessage@0@@Z 004378e0 f   yassl:yassl_imp.obj
 0001:000368f0       ??6yaSSL@@YAAAVoutput_buffer@0@AAV10@ABUMessage@0@@Z 004378f0 f   yassl:yassl_imp.obj
 0001:00036900       ??5yaSSL@@YAAAVinput_buffer@0@AAV10@AAVHandShakeHeader@0@@Z 00437900 f   yassl:yassl_imp.obj
 0001:00036960       ??6yaSSL@@YAAAVoutput_buffer@0@AAV10@ABVHandShakeHeader@0@@Z 00437960 f   yassl:yassl_imp.obj
 0001:00036990       ?get_type@HandShakeHeader@yaSSL@@UBE?AW4ContentType@2@XZ 00437990 f   yassl:yassl_imp.obj
 0001:000369a0       ?get_length@HandShakeHeader@yaSSL@@UBEGXZ 004379a0 f   yassl:yassl_imp.obj
 0001:000369b0       ?get_handshakeType@HandShakeHeader@yaSSL@@QBE?AW4HandShakeType@2@XZ 004379b0 f   yassl:yassl_imp.obj
 0001:000369c0       ?set_type@HandShakeHeader@yaSSL@@QAEXW4HandShakeType@2@@Z 004379c0 f   yassl:yassl_imp.obj
 0001:000369d0       ?set_length@HandShakeHeader@yaSSL@@QAEXI@Z 004379d0 f   yassl:yassl_imp.obj
 0001:000369f0       ?set@HandShakeHeader@yaSSL@@UAEAAVinput_buffer@2@AAV32@@Z 004379f0 f   yassl:yassl_imp.obj
 0001:00036a10       ?get@HandShakeHeader@yaSSL@@UBEAAVoutput_buffer@2@AAV32@@Z 00437a10 f   yassl:yassl_imp.obj
 0001:00036a40       ?get_length@HandShakeBase@yaSSL@@QBEHXZ 00437a40 f   yassl:yassl_imp.obj
 0001:00036a50       ?set_length@HandShakeBase@yaSSL@@QAEXH@Z 00437a50 f   yassl:yassl_imp.obj
 0001:00036a60       ?get_type@HandShakeBase@yaSSL@@UBE?AW4HandShakeType@2@XZ 00437a60 f   yassl:yassl_imp.obj
 0001:00036a70       ?set@HandShakeBase@yaSSL@@UAEAAVinput_buffer@2@AAV32@@Z 00437a70 f   yassl:yassl_imp.obj
 0001:00036a80       ?get@HandShakeBase@yaSSL@@UBEAAVoutput_buffer@2@AAV32@@Z 00437a80 f   yassl:yassl_imp.obj
 0001:00036a90       ?Process@HandShakeBase@yaSSL@@UAEXAAVinput_buffer@2@AAVSSL@2@@Z 00437a90 f   yassl:yassl_imp.obj
 0001:00036aa0       ?set@HelloRequest@yaSSL@@UAEAAVinput_buffer@2@AAV32@@Z 00437aa0 f   yassl:yassl_imp.obj
 0001:00036ab0       ?get@HelloRequest@yaSSL@@UBEAAVoutput_buffer@2@AAV32@@Z 00437ab0 f   yassl:yassl_imp.obj
 0001:00036ac0       ?Process@HelloRequest@yaSSL@@UAEXAAVinput_buffer@2@AAVSSL@2@@Z 00437ac0 f   yassl:yassl_imp.obj
 0001:00036ad0       ?get_type@HelloRequest@yaSSL@@UBE?AW4HandShakeType@2@XZ 00437ad0 f   yassl:yassl_imp.obj
 0001:00036ae0       ??5yaSSL@@YAAAVinput_buffer@0@AAV10@AAVChangeCipherSpec@0@@Z 00437ae0 f   yassl:yassl_imp.obj
 0001:00036b00       ??6yaSSL@@YAAAVoutput_buffer@0@AAV10@ABVChangeCipherSpec@0@@Z 00437b00 f   yassl:yassl_imp.obj
 0001:00036b20       ??0ChangeCipherSpec@yaSSL@@QAE@XZ 00437b20 f   yassl:yassl_imp.obj
 0001:00036b30       ?set@ChangeCipherSpec@yaSSL@@UAEAAVinput_buffer@2@AAV32@@Z 00437b30 f   yassl:yassl_imp.obj
 0001:00036b60       ?get@ChangeCipherSpec@yaSSL@@UBEAAVoutput_buffer@2@AAV32@@Z 00437b60 f   yassl:yassl_imp.obj
 0001:00036b80       ?get_type@ChangeCipherSpec@yaSSL@@UBE?AW4ContentType@2@XZ 00437b80 f   yassl:yassl_imp.obj
 0001:00036b90       ?get_length@ChangeCipherSpec@yaSSL@@UBEGXZ 00437b90 f   yassl:yassl_imp.obj
 0001:00036ba0       ?Process@ChangeCipherSpec@yaSSL@@UAEXAAVinput_buffer@2@AAVSSL@2@@Z 00437ba0 f   yassl:yassl_imp.obj
 0001:00036c20       ??0Alert@yaSSL@@QAE@W4AlertLevel@1@W4AlertDescription@1@@Z 00437c20 f   yassl:yassl_imp.obj
 0001:00036c40       ?get_type@Alert@yaSSL@@UBE?AW4ContentType@2@XZ 00437c40 f   yassl:yassl_imp.obj
 0001:00036c50       ?get_length@Alert@yaSSL@@UBEGXZ 00437c50 f   yassl:yassl_imp.obj
 0001:00036c60       ??5yaSSL@@YAAAVinput_buffer@0@AAV10@AAVAlert@0@@Z 00437c60 f   yassl:yassl_imp.obj
 0001:00036ca0       ??6yaSSL@@YAAAVoutput_buffer@0@AAV10@ABVAlert@0@@Z 00437ca0 f   yassl:yassl_imp.obj
 0001:00036ce0       ?Process@Alert@yaSSL@@UAEXAAVinput_buffer@2@AAVSSL@2@@Z 00437ce0 f   yassl:yassl_imp.obj
 0001:00036e60       ??0Data@yaSSL@@QAE@XZ      00437e60 f   yassl:yassl_imp.obj
 0001:00036e80       ??0Data@yaSSL@@QAE@GPAE@Z  00437e80 f   yassl:yassl_imp.obj
 0001:00036eb0       ?SetData@Data@yaSSL@@QAEXGPBE@Z 00437eb0 f   yassl:yassl_imp.obj
 0001:00036ed0       ?set@Data@yaSSL@@UAEAAVinput_buffer@2@AAV32@@Z 00437ed0 f   yassl:yassl_imp.obj
 0001:00036ee0       ?get_type@Data@yaSSL@@UBE?AW4ContentType@2@XZ 00437ee0 f   yassl:yassl_imp.obj
 0001:00036ef0       ?get_length@Data@yaSSL@@UBEGXZ 00437ef0 f   yassl:yassl_imp.obj
 0001:00036f00       ?set_length@Data@yaSSL@@QAEXG@Z 00437f00 f   yassl:yassl_imp.obj
 0001:00036f10       ?set_buffer@Data@yaSSL@@QAEPAEXZ 00437f10 f   yassl:yassl_imp.obj
 0001:00036f20       ??6yaSSL@@YAAAVoutput_buffer@0@AAV10@ABVData@0@@Z 00437f20 f   yassl:yassl_imp.obj
 0001:00036f40       ?Process@Data@yaSSL@@UAEXAAVinput_buffer@2@AAVSSL@2@@Z 00437f40 f   yassl:yassl_imp.obj
 0001:000371d0       ??5yaSSL@@YAAAVinput_buffer@0@AAV10@AAVHandShakeBase@0@@Z 004381d0 f   yassl:yassl_imp.obj
 0001:000371e0       ??6yaSSL@@YAAAVoutput_buffer@0@AAV10@ABVHandShakeBase@0@@Z 004381e0 f   yassl:yassl_imp.obj
 0001:000371f0       ??0HandShakeBase@yaSSL@@QAE@XZ 004381f0 f i yassl:yassl_imp.obj
 0001:00037200       ?get_buffer@Certificate@yaSSL@@QBEPBEXZ 00438200 f   yassl:yassl_imp.obj
 0001:00037210       ??6yaSSL@@YAAAVoutput_buffer@0@AAV10@ABVCertificate@0@@Z 00438210 f   yassl:yassl_imp.obj
 0001:00037280       ?Process@Certificate@yaSSL@@UAEXAAVinput_buffer@2@AAVSSL@2@@Z 00438280 f   yassl:yassl_imp.obj
 0001:000373e0       ??0Certificate@yaSSL@@QAE@XZ 004383e0 f   yassl:yassl_imp.obj
 0001:000373f0       ?set@Certificate@yaSSL@@UAEAAVinput_buffer@2@AAV32@@Z 004383f0 f   yassl:yassl_imp.obj
 0001:00037400       ?get@Certificate@yaSSL@@UBEAAVoutput_buffer@2@AAV32@@Z 00438400 f   yassl:yassl_imp.obj
 0001:00037420       ?get_type@Certificate@yaSSL@@UBE?AW4HandShakeType@2@XZ 00438420 f   yassl:yassl_imp.obj
 0001:00037430       ??0ServerDHParams@yaSSL@@QAE@XZ 00438430 f   yassl:yassl_imp.obj
 0001:00037450       ?get_pSize@ServerDHParams@yaSSL@@QBEHXZ 00438450 f   yassl:yassl_imp.obj
 0001:00037460       ?get_gSize@ServerDHParams@yaSSL@@QBEHXZ 00438460 f   yassl:yassl_imp.obj
 0001:00037470       ?get_pubSize@ServerDHParams@yaSSL@@QBEHXZ 00438470 f   yassl:yassl_imp.obj
 0001:00037480       ?get_p@ServerDHParams@yaSSL@@QBEPBEXZ 00438480 f   yassl:yassl_imp.obj
 0001:00037490       ?get_g@ServerDHParams@yaSSL@@QBEPBEXZ 00438490 f   yassl:yassl_imp.obj
 0001:000374a0       ?get_pub@ServerDHParams@yaSSL@@QBEPBEXZ 004384a0 f   yassl:yassl_imp.obj
 0001:000374b0       ?alloc_p@ServerDHParams@yaSSL@@QAEPAEH@Z 004384b0 f   yassl:yassl_imp.obj
 0001:000374d0       ?alloc_g@ServerDHParams@yaSSL@@QAEPAEH@Z 004384d0 f   yassl:yassl_imp.obj
 0001:000374f0       ?alloc_pub@ServerDHParams@yaSSL@@QAEPAEH@Z 004384f0 f   yassl:yassl_imp.obj
 0001:00037510       ?get_length@ServerKeyBase@yaSSL@@UBEHXZ 00438510 f   yassl:yassl_imp.obj
 0001:00037520       ?get_serverKey@ServerKeyBase@yaSSL@@UBEPAEXZ 00438520 f   yassl:yassl_imp.obj
 0001:00037530       ??5yaSSL@@YAAAVinput_buffer@0@AAV10@AAVServerHello@0@@Z 00438530 f   yassl:yassl_imp.obj
 0001:000375d0       ??6yaSSL@@YAAAVoutput_buffer@0@AAV10@ABVServerHello@0@@Z 004385d0 f   yassl:yassl_imp.obj
 0001:00037660       ??0ServerHello@yaSSL@@QAE@XZ 00438660 f   yassl:yassl_imp.obj
 0001:000376b0       ??0ServerHello@yaSSL@@QAE@UProtocolVersion@1@_N@Z 004386b0 f   yassl:yassl_imp.obj
 0001:00037710       ?set@ServerHello@yaSSL@@UAEAAVinput_buffer@2@AAV32@@Z 00438710 f   yassl:yassl_imp.obj
 0001:00037730       ?get@ServerHello@yaSSL@@UBEAAVoutput_buffer@2@AAV32@@Z 00438730 f   yassl:yassl_imp.obj
 0001:00037750       ?get_type@ServerHello@yaSSL@@UBE?AW4HandShakeType@2@XZ 00438750 f   yassl:yassl_imp.obj
 0001:00037760       ?get_random@ServerHello@yaSSL@@QBEPBEXZ 00438760 f   yassl:yassl_imp.obj
 0001:00037770       ?Process@ServerHelloDone@yaSSL@@UAEXAAVinput_buffer@2@AAVSSL@2@@Z 00438770 f   yassl:yassl_imp.obj
 0001:00037790       ??0ServerHelloDone@yaSSL@@QAE@XZ 00438790 f   yassl:yassl_imp.obj
 0001:000377a0       ?set@ServerHelloDone@yaSSL@@UAEAAVinput_buffer@2@AAV32@@Z 004387a0 f   yassl:yassl_imp.obj
 0001:000377b0       ?get@ServerHelloDone@yaSSL@@UBEAAVoutput_buffer@2@AAV32@@Z 004387b0 f   yassl:yassl_imp.obj
 0001:000377c0       ?get_type@ServerHelloDone@yaSSL@@UBE?AW4HandShakeType@2@XZ 004387c0 f   yassl:yassl_imp.obj
 0001:000377d0       ?get_length@ClientKeyBase@yaSSL@@UBEHXZ 004387d0 f   yassl:yassl_imp.obj
 0001:000377e0       ?get_clientKey@ClientKeyBase@yaSSL@@UBEPAEXZ 004387e0 f   yassl:yassl_imp.obj
 0001:000377f0       ??5yaSSL@@YAAAVinput_buffer@0@AAV10@AAVClientHello@0@@Z 004387f0 f   yassl:yassl_imp.obj
 0001:00037970       ??6yaSSL@@YAAAVoutput_buffer@0@AAV10@ABVClientHello@0@@Z 00438970 f   yassl:yassl_imp.obj
 0001:00037a50       ?set@ClientHello@yaSSL@@UAEAAVinput_buffer@2@AAV32@@Z 00438a50 f   yassl:yassl_imp.obj
 0001:00037a70       ?get@ClientHello@yaSSL@@UBEAAVoutput_buffer@2@AAV32@@Z 00438a70 f   yassl:yassl_imp.obj
 0001:00037a90       ?get_type@ClientHello@yaSSL@@UBE?AW4HandShakeType@2@XZ 00438a90 f   yassl:yassl_imp.obj
 0001:00037aa0       ?get_random@ClientHello@yaSSL@@QBEPBEXZ 00438aa0 f   yassl:yassl_imp.obj
 0001:00037ab0       ??0ClientHello@yaSSL@@QAE@XZ 00438ab0 f   yassl:yassl_imp.obj
 0001:00037ae0       ??0ClientHello@yaSSL@@QAE@UProtocolVersion@1@_N@Z 00438ae0 f   yassl:yassl_imp.obj
 0001:00037b30       ??0ServerKeyExchange@yaSSL@@QAE@XZ 00438b30 f   yassl:yassl_imp.obj
 0001:00037b40       ?build@ServerKeyExchange@yaSSL@@QAEXAAVSSL@2@@Z 00438b40 f   yassl:yassl_imp.obj
 0001:00037b60       ?getKey@ServerKeyExchange@yaSSL@@QBEPBEXZ 00438b60 f   yassl:yassl_imp.obj
 0001:00037b70       ?getKeyLength@ServerKeyExchange@yaSSL@@QBEHXZ 00438b70 f   yassl:yassl_imp.obj
 0001:00037b80       ?set@ServerKeyExchange@yaSSL@@UAEAAVinput_buffer@2@AAV32@@Z 00438b80 f   yassl:yassl_imp.obj
 0001:00037b90       ?get_type@ServerKeyExchange@yaSSL@@UBE?AW4HandShakeType@2@XZ 00438b90 f   yassl:yassl_imp.obj
 0001:00037ba0       ?Process@CertificateRequest@yaSSL@@UAEXAAVinput_buffer@2@AAVSSL@2@@Z 00438ba0 f   yassl:yassl_imp.obj
 0001:00037be0       ?get_type@CertificateRequest@yaSSL@@UBE?AW4HandShakeType@2@XZ 00438be0 f   yassl:yassl_imp.obj
 0001:00037bf0       ??0CertificateVerify@yaSSL@@QAE@XZ 00438bf0 f   yassl:yassl_imp.obj
 0001:00037c00       ??5yaSSL@@YAAAVinput_buffer@0@AAV10@AAVCertificateVerify@0@@Z 00438c00 f   yassl:yassl_imp.obj
 0001:00037c60       ??6yaSSL@@YAAAVoutput_buffer@0@AAV10@ABVCertificateVerify@0@@Z 00438c60 f   yassl:yassl_imp.obj
 0001:00037c80       ?Process@CertificateVerify@yaSSL@@UAEXAAVinput_buffer@2@AAVSSL@2@@Z 00438c80 f   yassl:yassl_imp.obj
 0001:00037d90       ?get_type@CertificateVerify@yaSSL@@UBE?AW4HandShakeType@2@XZ 00438d90 f   yassl:yassl_imp.obj
 0001:00037da0       ??0ClientKeyExchange@yaSSL@@QAE@XZ 00438da0 f   yassl:yassl_imp.obj
 0001:00037db0       ?build@ClientKeyExchange@yaSSL@@QAEXAAVSSL@2@@Z 00438db0 f   yassl:yassl_imp.obj
 0001:00037dd0       ?getKey@ClientKeyExchange@yaSSL@@QBEPBEXZ 00438dd0 f   yassl:yassl_imp.obj
 0001:00037de0       ?getKeyLength@ClientKeyExchange@yaSSL@@QBEHXZ 00438de0 f   yassl:yassl_imp.obj
 0001:00037df0       ?set@ClientKeyExchange@yaSSL@@UAEAAVinput_buffer@2@AAV32@@Z 00438df0 f   yassl:yassl_imp.obj
 0001:00037e00       ?get_type@ClientKeyExchange@yaSSL@@UBE?AW4HandShakeType@2@XZ 00438e00 f   yassl:yassl_imp.obj
 0001:00037e10       ??5yaSSL@@YAAAVinput_buffer@0@AAV10@AAVFinished@0@@Z 00438e10 f   yassl:yassl_imp.obj
 0001:00037e20       ??6yaSSL@@YAAAVoutput_buffer@0@AAV10@ABVFinished@0@@Z 00438e20 f   yassl:yassl_imp.obj
 0001:00037e70       ?Process@Finished@yaSSL@@UAEXAAVinput_buffer@2@AAVSSL@2@@Z 00438e70 f   yassl:yassl_imp.obj
 0001:00038060       ??0Finished@yaSSL@@QAE@XZ  00439060 f   yassl:yassl_imp.obj
 0001:00038070       ??_GFinished@yaSSL@@UAEPAXI@Z 00439070 f i yassl:yassl_imp.obj
 0001:00038070       ??_EFinished@yaSSL@@UAEPAXI@Z 00439070 f i yassl:yassl_imp.obj
 0001:00038090       ?set_md5@Finished@yaSSL@@QAEPAEXZ 00439090 f   yassl:yassl_imp.obj
 0001:000380a0       ?set_sha@Finished@yaSSL@@QAEPAEXZ 004390a0 f   yassl:yassl_imp.obj
 0001:000380b0       ?set@Finished@yaSSL@@UAEAAVinput_buffer@2@AAV32@@Z 004390b0 f   yassl:yassl_imp.obj
 0001:000380c0       ?get@Finished@yaSSL@@UBEAAVoutput_buffer@2@AAV32@@Z 004390c0 f   yassl:yassl_imp.obj
 0001:00038110       ?get_type@Finished@yaSSL@@UBE?AW4HandShakeType@2@XZ 00439110 f   yassl:yassl_imp.obj
 0001:00038120       ?clean@yaSSL@@YAXPCEIAAVRandomPool@1@@Z 00439120 f   yassl:yassl_imp.obj
 0001:00038160       ??0Connection@yaSSL@@QAE@UProtocolVersion@1@AAVRandomPool@1@@Z 00439160 f   yassl:yassl_imp.obj
 0001:00038200       ?AllocPreSecret@Connection@yaSSL@@QAEXI@Z 00439200 f   yassl:yassl_imp.obj
 0001:00038220       ?TurnOffTLS@Connection@yaSSL@@QAEXXZ 00439220 f   yassl:yassl_imp.obj
 0001:00038230       ?TurnOffTLS1_1@Connection@yaSSL@@QAEXXZ 00439230 f   yassl:yassl_imp.obj
 0001:00038240       ?CleanMaster@Connection@yaSSL@@QAEXXZ 00439240 f   yassl:yassl_imp.obj
 0001:00038290       ?CreateCipherSpec@yaSSL@@YAPAUMessage@1@XZ 00439290 f   yassl:yassl_imp.obj
 0001:000382b0       ?CreateHandShake@yaSSL@@YAPAUMessage@1@XZ 004392b0 f   yassl:yassl_imp.obj
 0001:000382d0       ?CreateData@yaSSL@@YAPAUMessage@1@XZ 004392d0 f   yassl:yassl_imp.obj
 0001:00038300       ??0HelloRequest@yaSSL@@QAE@XZ 00439300 f i yassl:yassl_imp.obj
 0001:00038310       ?CreateClientHello@yaSSL@@YAPAVHandShakeBase@1@XZ 00439310 f   yassl:yassl_imp.obj
 0001:00038350       ?CreateServerHello@yaSSL@@YAPAVHandShakeBase@1@XZ 00439350 f   yassl:yassl_imp.obj
 0001:000383b0       ?CreateCertificate@yaSSL@@YAPAVHandShakeBase@1@XZ 004393b0 f   yassl:yassl_imp.obj
 0001:000383d0       ?CreateServerKeyExchange@yaSSL@@YAPAVHandShakeBase@1@XZ 004393d0 f   yassl:yassl_imp.obj
 0001:000383f0       ?CreateServerHelloDone@yaSSL@@YAPAVHandShakeBase@1@XZ 004393f0 f   yassl:yassl_imp.obj
 0001:00038410       ?CreateCertificateVerify@yaSSL@@YAPAVHandShakeBase@1@XZ 00439410 f   yassl:yassl_imp.obj
 0001:00038430       ?CreateClientKeyExchange@yaSSL@@YAPAVHandShakeBase@1@XZ 00439430 f   yassl:yassl_imp.obj
 0001:00038450       ?CreateFinished@yaSSL@@YAPAVHandShakeBase@1@XZ 00439450 f   yassl:yassl_imp.obj
 0001:00038470       ??0RSA_Server@yaSSL@@QAE@XZ 00439470 f i yassl:yassl_imp.obj
 0001:00038480       ??0Fortezza_Server@yaSSL@@QAE@XZ 00439480 f i yassl:yassl_imp.obj
 0001:00038490       ?CreateDHClient@yaSSL@@YAPAUClientKeyBase@1@XZ 00439490 f   yassl:yassl_imp.obj
 0001:000384b0       ??0FortezzaKeys@yaSSL@@QAE@XZ 004394b0 f i yassl:yassl_imp.obj
 0001:000384c0       ??0?$list@PAE@mySTL@@QAE@XZ 004394c0 f i yassl:yassl_imp.obj
 0001:000384d0       ??0?$auto_ptr@UAuth@yaSSL@@@mySTL@@QAE@PAUAuth@yaSSL@@@Z 004394d0 f i yassl:yassl_imp.obj
 0001:000384e0       ??C?$auto_ptr@UAuth@yaSSL@@@mySTL@@QBEPAUAuth@yaSSL@@XZ 004394e0 f i yassl:yassl_imp.obj
 0001:000384f0       ??0?$auto_ptr@VHandShakeBase@yaSSL@@@mySTL@@QAE@PAVHandShakeBase@yaSSL@@@Z 004394f0 f i yassl:yassl_imp.obj
 0001:00038500       ??C?$auto_ptr@VHandShakeBase@yaSSL@@@mySTL@@QBEPAVHandShakeBase@yaSSL@@XZ 00439500 f i yassl:yassl_imp.obj
 0001:00038510       ??D?$auto_ptr@VHandShakeBase@yaSSL@@@mySTL@@QBEAAVHandShakeBase@yaSSL@@XZ 00439510 f i yassl:yassl_imp.obj
 0001:00038520       ?get@?$auto_ptr@VHandShakeBase@yaSSL@@@mySTL@@QBEPAVHandShakeBase@yaSSL@@XZ 00439520 f i yassl:yassl_imp.obj
 0001:00038530       ??Diterator@?$list@PAE@mySTL@@QBEAAPAEXZ 00439530 f i yassl:yassl_imp.obj
 0001:00038540       ??Eiterator@?$list@PAE@mySTL@@QAEAAV012@XZ 00439540 f i yassl:yassl_imp.obj
 0001:00038550       ??9iterator@?$list@PAE@mySTL@@QBE_NABV012@@Z 00439550 f i yassl:yassl_imp.obj
 0001:00038570       ??0?$auto_array@E@mySTL@@QAE@PAE@Z 00439570 f i yassl:yassl_imp.obj
 0001:00038580       ?get@?$auto_array@E@mySTL@@QBEPAEXZ 00439580 f i yassl:yassl_imp.obj
 0001:00038590       ?release@?$auto_array@E@mySTL@@QAEPAEXZ 00439590 f i yassl:yassl_imp.obj
 0001:000385a0       ?begin@?$vector@U?$pair@HP6APAVHandShakeBase@yaSSL@@XZ@mySTL@@@mySTL@@QBEPBU?$pair@HP6APAVHandShakeBase@yaSSL@@XZ@2@XZ 004395a0 f i yassl:yassl_imp.obj
 0001:000385b0       ?end@?$vector@U?$pair@HP6APAVHandShakeBase@yaSSL@@XZ@mySTL@@@mySTL@@QBEPBU?$pair@HP6APAVHandShakeBase@yaSSL@@XZ@2@XZ 004395b0 f i yassl:yassl_imp.obj
 0001:000385c0       ?begin@?$vector@U?$pair@HP6APAUServerKeyBase@yaSSL@@XZ@mySTL@@@mySTL@@QBEPBU?$pair@HP6APAUServerKeyBase@yaSSL@@XZ@2@XZ 004395c0 f i yassl:yassl_imp.obj
 0001:000385d0       ?end@?$vector@U?$pair@HP6APAUServerKeyBase@yaSSL@@XZ@mySTL@@@mySTL@@QBEPBU?$pair@HP6APAUServerKeyBase@yaSSL@@XZ@2@XZ 004395d0 f i yassl:yassl_imp.obj
 0001:000385e0       ?begin@?$vector@U?$pair@HP6APAUClientKeyBase@yaSSL@@XZ@mySTL@@@mySTL@@QBEPBU?$pair@HP6APAUClientKeyBase@yaSSL@@XZ@2@XZ 004395e0 f i yassl:yassl_imp.obj
 0001:000385f0       ?end@?$vector@U?$pair@HP6APAUClientKeyBase@yaSSL@@XZ@mySTL@@@mySTL@@QBEPBU?$pair@HP6APAUClientKeyBase@yaSSL@@XZ@2@XZ 004395f0 f i yassl:yassl_imp.obj
 0001:00038600       ??0iterator@?$list@PAE@mySTL@@QAE@PAUnode@12@@Z 00439600 f i yassl:yassl_imp.obj
 0001:00038610       ?capacity@?$vector@U?$pair@HP6APAUMessage@yaSSL@@XZ@mySTL@@@mySTL@@QBEIXZ 00439610 f i yassl:yassl_imp.obj
 0001:00038620       ?size@?$vector@U?$pair@HP6APAUMessage@yaSSL@@XZ@mySTL@@@mySTL@@QBEIXZ 00439620 f i yassl:yassl_imp.obj
 0001:00038630       ?capacity@?$vector@U?$pair@HP6APAVHandShakeBase@yaSSL@@XZ@mySTL@@@mySTL@@QBEIXZ 00439630 f i yassl:yassl_imp.obj
 0001:00038640       ?size@?$vector@U?$pair@HP6APAVHandShakeBase@yaSSL@@XZ@mySTL@@@mySTL@@QBEIXZ 00439640 f i yassl:yassl_imp.obj
 0001:00038650       ?capacity@?$vector@U?$pair@HP6APAUServerKeyBase@yaSSL@@XZ@mySTL@@@mySTL@@QBEIXZ 00439650 f i yassl:yassl_imp.obj
 0001:00038660       ?size@?$vector@U?$pair@HP6APAUServerKeyBase@yaSSL@@XZ@mySTL@@@mySTL@@QBEIXZ 00439660 f i yassl:yassl_imp.obj
 0001:00038670       ?capacity@?$vector@U?$pair@HP6APAUClientKeyBase@yaSSL@@XZ@mySTL@@@mySTL@@QBEIXZ 00439670 f i yassl:yassl_imp.obj
 0001:00038680       ?size@?$vector@U?$pair@HP6APAUClientKeyBase@yaSSL@@XZ@mySTL@@@mySTL@@QBEIXZ 00439680 f i yassl:yassl_imp.obj
 0001:00038690       ??$ysDelete@UServerKeyBase@yaSSL@@@yaSSL@@YAXPAUServerKeyBase@0@@Z 00439690 f i yassl:yassl_imp.obj
 0001:000386a0       ??$ysDelete@UClientKeyBase@yaSSL@@@yaSSL@@YAXPAUClientKeyBase@0@@Z 004396a0 f i yassl:yassl_imp.obj
 0001:000386b0       ??$construct@U?$pair@HP6APAUMessage@yaSSL@@XZ@mySTL@@U12@@mySTL@@YAXPAU?$pair@HP6APAUMessage@yaSSL@@XZ@0@ABU10@@Z 004396b0 f i yassl:yassl_imp.obj
 0001:000386d0       ??$construct@U?$pair@HP6APAVHandShakeBase@yaSSL@@XZ@mySTL@@U12@@mySTL@@YAXPAU?$pair@HP6APAVHandShakeBase@yaSSL@@XZ@0@ABU10@@Z 004396d0 f i yassl:yassl_imp.obj
 0001:000386f0       ??$construct@U?$pair@HP6APAUServerKeyBase@yaSSL@@XZ@mySTL@@U12@@mySTL@@YAXPAU?$pair@HP6APAUServerKeyBase@yaSSL@@XZ@0@ABU10@@Z 004396f0 f i yassl:yassl_imp.obj
 0001:00038710       ??$construct@U?$pair@HP6APAUClientKeyBase@yaSSL@@XZ@mySTL@@U12@@mySTL@@YAXPAU?$pair@HP6APAUClientKeyBase@yaSSL@@XZ@0@ABU10@@Z 00439710 f i yassl:yassl_imp.obj
 0001:00038730       ??$ysDelete@UAuth@yaSSL@@@yaSSL@@YAXPAUAuth@0@@Z 00439730 f i yassl:yassl_imp.obj
 0001:00038740       ??$ysDelete@VHandShakeBase@yaSSL@@@yaSSL@@YAXPAVHandShakeBase@0@@Z 00439740 f i yassl:yassl_imp.obj
 0001:00038750       ??$uninit_copy@PAU?$pair@HP6APAUMessage@yaSSL@@XZ@mySTL@@PAU12@@mySTL@@YAPAU?$pair@HP6APAUMessage@yaSSL@@XZ@0@PAU10@00@Z 00439750 f i yassl:yassl_imp.obj
 0001:00038780       ??$uninit_copy@PAU?$pair@HP6APAVHandShakeBase@yaSSL@@XZ@mySTL@@PAU12@@mySTL@@YAPAU?$pair@HP6APAVHandShakeBase@yaSSL@@XZ@0@PAU10@00@Z 00439780 f i yassl:yassl_imp.obj
 0001:000387b0       ??$uninit_copy@PAU?$pair@HP6APAUServerKeyBase@yaSSL@@XZ@mySTL@@PAU12@@mySTL@@YAPAU?$pair@HP6APAUServerKeyBase@yaSSL@@XZ@0@PAU10@00@Z 004397b0 f i yassl:yassl_imp.obj
 0001:000387e0       ??$uninit_copy@PAU?$pair@HP6APAUClientKeyBase@yaSSL@@XZ@mySTL@@PAU12@@mySTL@@YAPAU?$pair@HP6APAUClientKeyBase@yaSSL@@XZ@0@PAU10@00@Z 004397e0 f i yassl:yassl_imp.obj
 0001:00038810       ??$GetArrayMemory@U?$pair@HP6APAUMessage@yaSSL@@XZ@mySTL@@@mySTL@@YAPAU?$pair@HP6APAUMessage@yaSSL@@XZ@0@I@Z 00439810 f i yassl:yassl_imp.obj
 0001:00038830       ??$swap@PAU?$pair@HP6APAUMessage@yaSSL@@XZ@mySTL@@@mySTL@@YAXAAPAU?$pair@HP6APAUMessage@yaSSL@@XZ@0@0@Z 00439830 f i yassl:yassl_imp.obj
 0001:00038850       ??$GetArrayMemory@U?$pair@HP6APAVHandShakeBase@yaSSL@@XZ@mySTL@@@mySTL@@YAPAU?$pair@HP6APAVHandShakeBase@yaSSL@@XZ@0@I@Z 00439850 f i yassl:yassl_imp.obj
 0001:00038870       ??$swap@PAU?$pair@HP6APAVHandShakeBase@yaSSL@@XZ@mySTL@@@mySTL@@YAXAAPAU?$pair@HP6APAVHandShakeBase@yaSSL@@XZ@0@0@Z 00439870 f i yassl:yassl_imp.obj
 0001:00038890       ??$GetArrayMemory@U?$pair@HP6APAUServerKeyBase@yaSSL@@XZ@mySTL@@@mySTL@@YAPAU?$pair@HP6APAUServerKeyBase@yaSSL@@XZ@0@I@Z 00439890 f i yassl:yassl_imp.obj
 0001:000388b0       ??$swap@PAU?$pair@HP6APAUServerKeyBase@yaSSL@@XZ@mySTL@@@mySTL@@YAXAAPAU?$pair@HP6APAUServerKeyBase@yaSSL@@XZ@0@0@Z 004398b0 f i yassl:yassl_imp.obj
 0001:000388d0       ??$GetArrayMemory@U?$pair@HP6APAUClientKeyBase@yaSSL@@XZ@mySTL@@@mySTL@@YAPAU?$pair@HP6APAUClientKeyBase@yaSSL@@XZ@0@I@Z 004398d0 f i yassl:yassl_imp.obj
 0001:000388f0       ??$swap@PAU?$pair@HP6APAUClientKeyBase@yaSSL@@XZ@mySTL@@@mySTL@@YAXAAPAU?$pair@HP6APAUClientKeyBase@yaSSL@@XZ@0@0@Z 004398f0 f i yassl:yassl_imp.obj
 0001:00038910       ??0?$pair@HP6APAUMessage@yaSSL@@XZ@mySTL@@QAE@ABHABQ6APAUMessage@yaSSL@@XZ@Z 00439910 f i yassl:yassl_imp.obj
 0001:00038930       ??0?$pair@HP6APAVHandShakeBase@yaSSL@@XZ@mySTL@@QAE@ABHABQ6APAVHandShakeBase@yaSSL@@XZ@Z 00439930 f i yassl:yassl_imp.obj
 0001:00038950       ??0?$pair@HP6APAUServerKeyBase@yaSSL@@XZ@mySTL@@QAE@ABHABQ6APAUServerKeyBase@yaSSL@@XZ@Z 00439950 f i yassl:yassl_imp.obj
 0001:00038970       ??0?$pair@HP6APAUClientKeyBase@yaSSL@@XZ@mySTL@@QAE@ABHABQ6APAUClientKeyBase@yaSSL@@XZ@Z 00439970 f i yassl:yassl_imp.obj
 0001:00038990       ??0node@?$list@PAE@mySTL@@QAE@PAE@Z 00439990 f i yassl:yassl_imp.obj
 0001:000389b0       ??$destroy@Unode@?$list@PAE@mySTL@@@mySTL@@YAXPAUnode@?$list@PAE@0@@Z 004399b0 f i yassl:yassl_imp.obj
 0001:000389c0       ??$swap@PAE@mySTL@@YAXAAPAE0@Z 004399c0 f i yassl:yassl_imp.obj
 0001:000389e0       ??$ysDelete@E@yaSSL@@YAXPAE@Z 004399e0 f i yassl:yassl_imp.obj
 0001:000389f0       ??0Alert@yaSSL@@QAE@XZ     004399f0 f i yassl:yassl_imp.obj
 0001:00038a00       ??_EAlert@yaSSL@@UAEPAXI@Z 00439a00 f i yassl:yassl_imp.obj
 0001:00038a00       ??_GAlert@yaSSL@@UAEPAXI@Z 00439a00 f i yassl:yassl_imp.obj
 0001:00038a20       ??_EHandShakeHeader@yaSSL@@UAEPAXI@Z 00439a20 f i yassl:yassl_imp.obj
 0001:00038a20       ??_GHandShakeHeader@yaSSL@@UAEPAXI@Z 00439a20 f i yassl:yassl_imp.obj
 0001:00038a40       ?build@EncryptedPreMasterSecret@yaSSL@@UAEXAAVSSL@2@@Z 00439a40 f   yassl:yassl_imp.obj
 0001:00038b70       ?build@ClientDiffieHellmanPublic@yaSSL@@UAEXAAVSSL@2@@Z 00439b70 f   yassl:yassl_imp.obj
 0001:00038c30       ?read@EncryptedPreMasterSecret@yaSSL@@UAEXAAVSSL@2@AAVinput_buffer@2@@Z 00439c30 f   yassl:yassl_imp.obj
 0001:00038d50       ??0EncryptedPreMasterSecret@yaSSL@@QAE@XZ 00439d50 f   yassl:yassl_imp.obj
 0001:00038d70       ??1EncryptedPreMasterSecret@yaSSL@@UAE@XZ 00439d70 f   yassl:yassl_imp.obj
 0001:00038d90       ?read@ClientDiffieHellmanPublic@yaSSL@@UAEXAAVSSL@2@AAVinput_buffer@2@@Z 00439d90 f   yassl:yassl_imp.obj
 0001:00038e60       ??1ClientDiffieHellmanPublic@yaSSL@@UAE@XZ 00439e60 f   yassl:yassl_imp.obj
 0001:00038e80       ?read@DH_Server@yaSSL@@UAEXAAVSSL@2@AAVinput_buffer@2@@Z 00439e80 f   yassl:yassl_imp.obj
 0001:00039270       ?SetSuites@Parameters@yaSSL@@QAEXUProtocolVersion@2@_N@Z 0043a270 f   yassl:yassl_imp.obj
 0001:000393c0       ??_EChangeCipherSpec@yaSSL@@UAEPAXI@Z 0043a3c0 f i yassl:yassl_imp.obj
 0001:000393c0       ??_GChangeCipherSpec@yaSSL@@UAEPAXI@Z 0043a3c0 f i yassl:yassl_imp.obj
 0001:000393e0       ?set@Alert@yaSSL@@UAEAAVinput_buffer@2@AAV32@@Z 0043a3e0 f   yassl:yassl_imp.obj
 0001:00039420       ?get@Alert@yaSSL@@UBEAAVoutput_buffer@2@AAV32@@Z 0043a420 f   yassl:yassl_imp.obj
 0001:00039460       ??_EData@yaSSL@@UAEPAXI@Z  0043a460 f i yassl:yassl_imp.obj
 0001:00039460       ??_GData@yaSSL@@UAEPAXI@Z  0043a460 f i yassl:yassl_imp.obj
 0001:00039480       ?get@Data@yaSSL@@UBEAAVoutput_buffer@2@AAV32@@Z 0043a480 f   yassl:yassl_imp.obj
 0001:000394a0       ??0Certificate@yaSSL@@QAE@PBVx509@1@@Z 0043a4a0 f   yassl:yassl_imp.obj
 0001:000394d0       ??_GCertificate@yaSSL@@UAEPAXI@Z 0043a4d0 f i yassl:yassl_imp.obj
 0001:000394d0       ??_ECertificate@yaSSL@@UAEPAXI@Z 0043a4d0 f i yassl:yassl_imp.obj
 0001:000394f0       ??1ServerDHParams@yaSSL@@QAE@XZ 0043a4f0 f   yassl:yassl_imp.obj
 0001:00039520       ?Process@ServerHello@yaSSL@@UAEXAAVinput_buffer@2@AAVSSL@2@@Z 0043a520 f   yassl:yassl_imp.obj
 0001:00039710       ??_GServerHello@yaSSL@@UAEPAXI@Z 0043a710 f i yassl:yassl_imp.obj
 0001:00039710       ??_EServerHello@yaSSL@@UAEPAXI@Z 0043a710 f i yassl:yassl_imp.obj
 0001:00039730       ??_EServerHelloDone@yaSSL@@UAEPAXI@Z 0043a730 f i yassl:yassl_imp.obj
 0001:00039730       ??_GServerHelloDone@yaSSL@@UAEPAXI@Z 0043a730 f i yassl:yassl_imp.obj
 0001:00039750       ?Process@ClientHello@yaSSL@@UAEXAAVinput_buffer@2@AAVSSL@2@@Z 0043a750 f   yassl:yassl_imp.obj
 0001:00039a30       ??_EClientHello@yaSSL@@UAEPAXI@Z 0043aa30 f i yassl:yassl_imp.obj
 0001:00039a30       ??_GClientHello@yaSSL@@UAEPAXI@Z 0043aa30 f i yassl:yassl_imp.obj
 0001:00039a50       ??6yaSSL@@YAAAVoutput_buffer@0@AAV10@ABVServerKeyExchange@0@@Z 0043aa50 f   yassl:yassl_imp.obj
 0001:00039a80       ??1ServerKeyExchange@yaSSL@@UAE@XZ 0043aa80 f   yassl:yassl_imp.obj
 0001:00039aa0       ?get@ServerKeyExchange@yaSSL@@UBEAAVoutput_buffer@2@AAV32@@Z 0043aaa0 f   yassl:yassl_imp.obj
 0001:00039ad0       ??1CertificateVerify@yaSSL@@UAE@XZ 0043aad0 f   yassl:yassl_imp.obj
 0001:00039af0       ?set@CertificateVerify@yaSSL@@UAEAAVinput_buffer@2@AAV32@@Z 0043aaf0 f   yassl:yassl_imp.obj
 0001:00039b10       ?get@CertificateVerify@yaSSL@@UBEAAVoutput_buffer@2@AAV32@@Z 0043ab10 f   yassl:yassl_imp.obj
 0001:00039b30       ??6yaSSL@@YAAAVoutput_buffer@0@AAV10@ABVClientKeyExchange@0@@Z 0043ab30 f   yassl:yassl_imp.obj
 0001:00039b60       ??1ClientKeyExchange@yaSSL@@UAE@XZ 0043ab60 f   yassl:yassl_imp.obj
 0001:00039b80       ?get@ClientKeyExchange@yaSSL@@UBEAAVoutput_buffer@2@AAV32@@Z 0043ab80 f   yassl:yassl_imp.obj
 0001:00039bb0       ?CleanPreMaster@Connection@yaSSL@@QAEXXZ 0043abb0 f   yassl:yassl_imp.obj
 0001:00039be0       ?CreateAlert@yaSSL@@YAPAUMessage@1@XZ 0043abe0 f   yassl:yassl_imp.obj
 0001:00039c00       ?CreateHelloRequest@yaSSL@@YAPAVHandShakeBase@1@XZ 0043ac00 f   yassl:yassl_imp.obj
 0001:00039c20       ??_EHelloRequest@yaSSL@@UAEPAXI@Z 0043ac20 f i yassl:yassl_imp.obj
 0001:00039c20       ??_GHelloRequest@yaSSL@@UAEPAXI@Z 0043ac20 f i yassl:yassl_imp.obj
 0001:00039c40       ?CreateRSAServerKEA@yaSSL@@YAPAUServerKeyBase@1@XZ 0043ac40 f   yassl:yassl_imp.obj
 0001:00039c60       ??_ERSA_Server@yaSSL@@UAEPAXI@Z 0043ac60 f i yassl:yassl_imp.obj
 0001:00039c60       ??_GRSA_Server@yaSSL@@UAEPAXI@Z 0043ac60 f i yassl:yassl_imp.obj
 0001:00039c80       ?CreateFortezzaServerKEA@yaSSL@@YAPAUServerKeyBase@1@XZ 0043ac80 f   yassl:yassl_imp.obj
 0001:00039ca0       ??_GFortezza_Server@yaSSL@@UAEPAXI@Z 0043aca0 f i yassl:yassl_imp.obj
 0001:00039ca0       ??_EFortezza_Server@yaSSL@@UAEPAXI@Z 0043aca0 f i yassl:yassl_imp.obj
 0001:00039cc0       ?CreateRSAClient@yaSSL@@YAPAUClientKeyBase@1@XZ 0043acc0 f   yassl:yassl_imp.obj
 0001:00039ce0       ?CreateFortezzaClient@yaSSL@@YAPAUClientKeyBase@1@XZ 0043ace0 f   yassl:yassl_imp.obj
 0001:00039d00       ??_GFortezzaKeys@yaSSL@@UAEPAXI@Z 0043ad00 f i yassl:yassl_imp.obj
 0001:00039d00       ??_EFortezzaKeys@yaSSL@@UAEPAXI@Z 0043ad00 f i yassl:yassl_imp.obj
 0001:00039d20       ?begin@?$list@PAE@mySTL@@QBE?AViterator@12@XZ 0043ad20 f i yassl:yassl_imp.obj
 0001:00039d30       ?end@?$list@PAE@mySTL@@QBE?AViterator@12@XZ 0043ad30 f i yassl:yassl_imp.obj
 0001:00039d40       ?CreateObject@?$Factory@VHandShakeBase@yaSSL@@HP6APAV12@XZ@yaSSL@@QBEPAVHandShakeBase@2@ABH@Z 0043ad40 f i yassl:yassl_imp.obj
 0001:00039d70       ?CreateObject@?$Factory@UServerKeyBase@yaSSL@@HP6APAU12@XZ@yaSSL@@QBEPAUServerKeyBase@2@ABH@Z 0043ad70 f i yassl:yassl_imp.obj
 0001:00039da0       ?CreateObject@?$Factory@UClientKeyBase@yaSSL@@HP6APAU12@XZ@yaSSL@@QBEPAUClientKeyBase@2@ABH@Z 0043ada0 f i yassl:yassl_imp.obj
 0001:00039dd0       ?Destroy@?$auto_ptr@UAuth@yaSSL@@@mySTL@@AAEXXZ 0043add0 f i yassl:yassl_imp.obj
 0001:00039de0       ?Destroy@?$auto_ptr@VHandShakeBase@yaSSL@@@mySTL@@AAEXXZ 0043ade0 f i yassl:yassl_imp.obj
 0001:00039df0       ?Destroy@?$auto_array@E@mySTL@@AAEXXZ 0043adf0 f i yassl:yassl_imp.obj
 0001:00039e00       ??0?$vector_base@U?$pair@HP6APAUMessage@yaSSL@@XZ@mySTL@@@mySTL@@QAE@I@Z 0043ae00 f i yassl:yassl_imp.obj
 0001:00039e30       ?Swap@?$vector_base@U?$pair@HP6APAUMessage@yaSSL@@XZ@mySTL@@@mySTL@@QAEXAAU12@@Z 0043ae30 f i yassl:yassl_imp.obj
 0001:00039e60       ??0?$vector_base@U?$pair@HP6APAVHandShakeBase@yaSSL@@XZ@mySTL@@@mySTL@@QAE@I@Z 0043ae60 f i yassl:yassl_imp.obj
 0001:00039e90       ?Swap@?$vector_base@U?$pair@HP6APAVHandShakeBase@yaSSL@@XZ@mySTL@@@mySTL@@QAEXAAU12@@Z 0043ae90 f i yassl:yassl_imp.obj
 0001:00039ec0       ??0?$vector_base@U?$pair@HP6APAUServerKeyBase@yaSSL@@XZ@mySTL@@@mySTL@@QAE@I@Z 0043aec0 f i yassl:yassl_imp.obj
 0001:00039ef0       ?Swap@?$vector_base@U?$pair@HP6APAUServerKeyBase@yaSSL@@XZ@mySTL@@@mySTL@@QAEXAAU12@@Z 0043aef0 f i yassl:yassl_imp.obj
 0001:00039f20       ??0?$vector_base@U?$pair@HP6APAUClientKeyBase@yaSSL@@XZ@mySTL@@@mySTL@@QAE@I@Z 0043af20 f i yassl:yassl_imp.obj
 0001:00039f50       ?Swap@?$vector_base@U?$pair@HP6APAUClientKeyBase@yaSSL@@XZ@mySTL@@@mySTL@@QAEXAAU12@@Z 0043af50 f i yassl:yassl_imp.obj
 0001:00039f80       ?push_back@?$list@PAE@mySTL@@QAEXPAE@Z 0043af80 f i yassl:yassl_imp.obj
 0001:00039fd0       ??$make_pair@HP6APAUMessage@yaSSL@@XZ@mySTL@@YA?AU?$pair@HP6APAUMessage@yaSSL@@XZ@0@ABHABQ6APAUMessage@yaSSL@@XZ@Z 0043afd0 f i yassl:yassl_imp.obj
 0001:00039ff0       ??$make_pair@HP6APAVHandShakeBase@yaSSL@@XZ@mySTL@@YA?AU?$pair@HP6APAVHandShakeBase@yaSSL@@XZ@0@ABHABQ6APAVHandShakeBase@yaSSL@@XZ@Z 0043aff0 f i yassl:yassl_imp.obj
 0001:0003a010       ??$make_pair@HP6APAUServerKeyBase@yaSSL@@XZ@mySTL@@YA?AU?$pair@HP6APAUServerKeyBase@yaSSL@@XZ@0@ABHABQ6APAUServerKeyBase@yaSSL@@XZ@Z 0043b010 f i yassl:yassl_imp.obj
 0001:0003a030       ??$make_pair@HP6APAUClientKeyBase@yaSSL@@XZ@mySTL@@YA?AU?$pair@HP6APAUClientKeyBase@yaSSL@@XZ@0@ABHABQ6APAUClientKeyBase@yaSSL@@XZ@Z 0043b030 f i yassl:yassl_imp.obj
 0001:0003a050       ??$checked_delete@E@yaSSL@@YAXPAE@Z 0043b050 f i yassl:yassl_imp.obj
 0001:0003a060       ?createKey@ClientKeyExchange@yaSSL@@QAEXAAVSSL@2@@Z 0043b060 f   yassl:yassl_imp.obj
 0001:0003a0c0       ?createKey@ServerKeyExchange@yaSSL@@QAEXAAVSSL@2@@Z 0043b0c0 f   yassl:yassl_imp.obj
 0001:0003a120       ??_EEncryptedPreMasterSecret@yaSSL@@UAEPAXI@Z 0043b120 f i yassl:yassl_imp.obj
 0001:0003a120       ??_GEncryptedPreMasterSecret@yaSSL@@UAEPAXI@Z 0043b120 f i yassl:yassl_imp.obj
 0001:0003a160       ??_EClientDiffieHellmanPublic@yaSSL@@UAEPAXI@Z 0043b160 f i yassl:yassl_imp.obj
 0001:0003a160       ??_GClientDiffieHellmanPublic@yaSSL@@UAEPAXI@Z 0043b160 f i yassl:yassl_imp.obj
 0001:0003a1a0       ??0DH_Server@yaSSL@@QAE@XZ 0043b1a0 f   yassl:yassl_imp.obj
 0001:0003a1d0       ??1DH_Server@yaSSL@@UAE@XZ 0043b1d0 f   yassl:yassl_imp.obj
 0001:0003a220       ??0Parameters@yaSSL@@QAE@W4ConnectionEnd@1@ABUCiphers@1@UProtocolVersion@1@_N@Z 0043b220 f   yassl:yassl_imp.obj
 0001:0003a2b0       ?Process@ServerKeyExchange@yaSSL@@UAEXAAVinput_buffer@2@AAVSSL@2@@Z 0043b2b0 f   yassl:yassl_imp.obj
 0001:0003a2f0       ??0ServerKeyExchange@yaSSL@@QAE@AAVSSL@1@@Z 0043b2f0 f   yassl:yassl_imp.obj
 0001:0003a310       ??_GServerKeyExchange@yaSSL@@UAEPAXI@Z 0043b310 f i yassl:yassl_imp.obj
 0001:0003a310       ??_EServerKeyExchange@yaSSL@@UAEPAXI@Z 0043b310 f i yassl:yassl_imp.obj
 0001:0003a350       ?Build@CertificateRequest@yaSSL@@QAEXXZ 0043b350 f   yassl:yassl_imp.obj
 0001:0003a370       ??5yaSSL@@YAAAVinput_buffer@0@AAV10@AAVCertificateRequest@0@@Z 0043b370 f   yassl:yassl_imp.obj
 0001:0003a490       ??6yaSSL@@YAAAVoutput_buffer@0@AAV10@ABVCertificateRequest@0@@Z 0043b490 f   yassl:yassl_imp.obj
 0001:0003a550       ??_ECertificateVerify@yaSSL@@UAEPAXI@Z 0043b550 f i yassl:yassl_imp.obj
 0001:0003a550       ??_GCertificateVerify@yaSSL@@UAEPAXI@Z 0043b550 f i yassl:yassl_imp.obj
 0001:0003a590       ?Process@ClientKeyExchange@yaSSL@@UAEXAAVinput_buffer@2@AAVSSL@2@@Z 0043b590 f   yassl:yassl_imp.obj
 0001:0003a610       ??0ClientKeyExchange@yaSSL@@QAE@AAVSSL@1@@Z 0043b610 f   yassl:yassl_imp.obj
 0001:0003a630       ??_GClientKeyExchange@yaSSL@@UAEPAXI@Z 0043b630 f i yassl:yassl_imp.obj
 0001:0003a630       ??_EClientKeyExchange@yaSSL@@UAEPAXI@Z 0043b630 f i yassl:yassl_imp.obj
 0001:0003a670       ??1Connection@yaSSL@@QAE@XZ 0043b670 f   yassl:yassl_imp.obj
 0001:0003a6b0       ?CreateDHServerKEA@yaSSL@@YAPAUServerKeyBase@1@XZ 0043b6b0 f   yassl:yassl_imp.obj
 0001:0003a6f0       ??1?$auto_ptr@UAuth@yaSSL@@@mySTL@@QAE@XZ 0043b6f0 f i yassl:yassl_imp.obj
 0001:0003a700       ?reset@?$auto_ptr@UAuth@yaSSL@@@mySTL@@QAEXPAUAuth@yaSSL@@@Z 0043b700 f i yassl:yassl_imp.obj
 0001:0003a720       ??1?$auto_ptr@VHandShakeBase@yaSSL@@@mySTL@@QAE@XZ 0043b720 f i yassl:yassl_imp.obj
 0001:0003a730       ??1?$auto_array@E@mySTL@@QAE@XZ 0043b730 f i yassl:yassl_imp.obj
 0001:0003a740       ?reset@?$auto_array@E@mySTL@@QAEXPAE@Z 0043b740 f i yassl:yassl_imp.obj
 0001:0003a760       ?Swap@?$vector@U?$pair@HP6APAUMessage@yaSSL@@XZ@mySTL@@@mySTL@@QAEXAAV12@@Z 0043b760 f i yassl:yassl_imp.obj
 0001:0003a790       ??0?$vector@U?$pair@HP6APAUMessage@yaSSL@@XZ@mySTL@@@mySTL@@AAE@IABV01@@Z 0043b790 f i yassl:yassl_imp.obj
 0001:0003a7f0       ?Swap@?$vector@U?$pair@HP6APAVHandShakeBase@yaSSL@@XZ@mySTL@@@mySTL@@QAEXAAV12@@Z 0043b7f0 f i yassl:yassl_imp.obj
 0001:0003a820       ??0?$vector@U?$pair@HP6APAVHandShakeBase@yaSSL@@XZ@mySTL@@@mySTL@@AAE@IABV01@@Z 0043b820 f i yassl:yassl_imp.obj
 0001:0003a880       ?Swap@?$vector@U?$pair@HP6APAUServerKeyBase@yaSSL@@XZ@mySTL@@@mySTL@@QAEXAAV12@@Z 0043b880 f i yassl:yassl_imp.obj
 0001:0003a8b0       ??0?$vector@U?$pair@HP6APAUServerKeyBase@yaSSL@@XZ@mySTL@@@mySTL@@AAE@IABV01@@Z 0043b8b0 f i yassl:yassl_imp.obj
 0001:0003a910       ?Swap@?$vector@U?$pair@HP6APAUClientKeyBase@yaSSL@@XZ@mySTL@@@mySTL@@QAEXAAV12@@Z 0043b910 f i yassl:yassl_imp.obj
 0001:0003a940       ??0?$vector@U?$pair@HP6APAUClientKeyBase@yaSSL@@XZ@mySTL@@@mySTL@@AAE@IABV01@@Z 0043b940 f i yassl:yassl_imp.obj
 0001:0003a9a0       ??1?$list@PAE@mySTL@@QAE@XZ 0043b9a0 f i yassl:yassl_imp.obj
 0001:0003a9c0       ??$?RE@del_ptr_zero@yaSSL@@QBEXAAPAE@Z 0043b9c0 f i yassl:yassl_imp.obj
 0001:0003a9e0       ?build@DH_Server@yaSSL@@UAEXAAVSSL@2@@Z 0043b9e0 f   yassl:yassl_imp.obj
 0001:0003adf0       ??_GDH_Server@yaSSL@@UAEPAXI@Z 0043bdf0 f i yassl:yassl_imp.obj
 0001:0003adf0       ??_EDH_Server@yaSSL@@UAEPAXI@Z 0043bdf0 f i yassl:yassl_imp.obj
 0001:0003ae50       ?Process@HandShakeHeader@yaSSL@@UAEXAAVinput_buffer@2@AAVSSL@2@@Z 0043be50 f   yassl:yassl_imp.obj
 0001:0003af20       ??0CertificateRequest@yaSSL@@QAE@XZ 0043bf20 f   yassl:yassl_imp.obj
 0001:0003af50       ?set@CertificateRequest@yaSSL@@UAEAAVinput_buffer@2@AAV32@@Z 0043bf50 f   yassl:yassl_imp.obj
 0001:0003af70       ?get@CertificateRequest@yaSSL@@UBEAAVoutput_buffer@2@AAV32@@Z 0043bf70 f   yassl:yassl_imp.obj
 0001:0003af90       ?Build@CertificateVerify@yaSSL@@QAEXAAVSSL@2@@Z 0043bf90 f   yassl:yassl_imp.obj
 0001:0003b130       ?CreateCertificateRequest@yaSSL@@YAPAVHandShakeBase@1@XZ 0043c130 f   yassl:yassl_imp.obj
 0001:0003b170       ?push_back@?$vector@U?$pair@HP6APAUMessage@yaSSL@@XZ@mySTL@@@mySTL@@QAEXABU?$pair@HP6APAUMessage@yaSSL@@XZ@2@@Z 0043c170 f i yassl:yassl_imp.obj
 0001:0003b1f0       ?reserve@?$vector@U?$pair@HP6APAUMessage@yaSSL@@XZ@mySTL@@@mySTL@@QAEXI@Z 0043c1f0 f i yassl:yassl_imp.obj
 0001:0003b240       ?push_back@?$vector@U?$pair@HP6APAVHandShakeBase@yaSSL@@XZ@mySTL@@@mySTL@@QAEXABU?$pair@HP6APAVHandShakeBase@yaSSL@@XZ@2@@Z 0043c240 f i yassl:yassl_imp.obj
 0001:0003b2c0       ?reserve@?$vector@U?$pair@HP6APAVHandShakeBase@yaSSL@@XZ@mySTL@@@mySTL@@QAEXI@Z 0043c2c0 f i yassl:yassl_imp.obj
 0001:0003b310       ?push_back@?$vector@U?$pair@HP6APAUServerKeyBase@yaSSL@@XZ@mySTL@@@mySTL@@QAEXABU?$pair@HP6APAUServerKeyBase@yaSSL@@XZ@2@@Z 0043c310 f i yassl:yassl_imp.obj
 0001:0003b390       ?reserve@?$vector@U?$pair@HP6APAUServerKeyBase@yaSSL@@XZ@mySTL@@@mySTL@@QAEXI@Z 0043c390 f i yassl:yassl_imp.obj
 0001:0003b3e0       ?push_back@?$vector@U?$pair@HP6APAUClientKeyBase@yaSSL@@XZ@mySTL@@@mySTL@@QAEXABU?$pair@HP6APAUClientKeyBase@yaSSL@@XZ@2@@Z 0043c3e0 f i yassl:yassl_imp.obj
 0001:0003b460       ?reserve@?$vector@U?$pair@HP6APAUClientKeyBase@yaSSL@@XZ@mySTL@@@mySTL@@QAEXI@Z 0043c460 f i yassl:yassl_imp.obj
 0001:0003b4b0       ??$for_each@Viterator@?$list@PAE@mySTL@@Udel_ptr_zero@yaSSL@@@mySTL@@YA?AUdel_ptr_zero@yaSSL@@Viterator@?$list@PAE@0@0U12@@Z 0043c4b0 f i yassl:yassl_imp.obj
 0001:0003b4f0       ??1CertificateRequest@yaSSL@@UAE@XZ 0043c4f0 f   yassl:yassl_imp.obj
 0001:0003b540       ?Reserve@?$Factory@UMessage@yaSSL@@HP6APAU12@XZ@yaSSL@@QAEXI@Z 0043c540 f i yassl:yassl_imp.obj
 0001:0003b590       ?Register@?$Factory@UMessage@yaSSL@@HP6APAU12@XZ@yaSSL@@QAEXABHP6APAUMessage@2@XZ@Z 0043c590 f i yassl:yassl_imp.obj
 0001:0003b5c0       ?Reserve@?$Factory@VHandShakeBase@yaSSL@@HP6APAV12@XZ@yaSSL@@QAEXI@Z 0043c5c0 f i yassl:yassl_imp.obj
 0001:0003b610       ?Register@?$Factory@VHandShakeBase@yaSSL@@HP6APAV12@XZ@yaSSL@@QAEXABHP6APAVHandShakeBase@2@XZ@Z 0043c610 f i yassl:yassl_imp.obj
 0001:0003b640       ?Reserve@?$Factory@UServerKeyBase@yaSSL@@HP6APAU12@XZ@yaSSL@@QAEXI@Z 0043c640 f i yassl:yassl_imp.obj
 0001:0003b690       ?Register@?$Factory@UServerKeyBase@yaSSL@@HP6APAU12@XZ@yaSSL@@QAEXABHP6APAUServerKeyBase@2@XZ@Z 0043c690 f i yassl:yassl_imp.obj
 0001:0003b6c0       ?Reserve@?$Factory@UClientKeyBase@yaSSL@@HP6APAU12@XZ@yaSSL@@QAEXI@Z 0043c6c0 f i yassl:yassl_imp.obj
 0001:0003b710       ?Register@?$Factory@UClientKeyBase@yaSSL@@HP6APAU12@XZ@yaSSL@@QAEXABHP6APAUClientKeyBase@2@XZ@Z 0043c710 f i yassl:yassl_imp.obj
 0001:0003b740       ??_ECertificateRequest@yaSSL@@UAEPAXI@Z 0043c740 f i yassl:yassl_imp.obj
 0001:0003b740       ??_GCertificateRequest@yaSSL@@UAEPAXI@Z 0043c740 f i yassl:yassl_imp.obj
 0001:0003b760       ?InitMessageFactory@yaSSL@@YAXAAV?$Factory@UMessage@yaSSL@@HP6APAU12@XZ@1@@Z 0043c760 f   yassl:yassl_imp.obj
 0001:0003b820       ?InitHandShakeFactory@yaSSL@@YAXAAV?$Factory@VHandShakeBase@yaSSL@@HP6APAV12@XZ@1@@Z 0043c820 f   yassl:yassl_imp.obj
 0001:0003b980       ?InitServerKeyFactory@yaSSL@@YAXAAV?$Factory@UServerKeyBase@yaSSL@@HP6APAU12@XZ@1@@Z 0043c980 f   yassl:yassl_imp.obj
 0001:0003ba20       ?InitClientKeyFactory@yaSSL@@YAXAAV?$Factory@UClientKeyBase@yaSSL@@HP6APAU12@XZ@1@@Z 0043ca20 f   yassl:yassl_imp.obj
 0001:0003bac0       ??0Socket@yaSSL@@QAE@I@Z   0043cac0 f   yassl:socket_wrapper.obj
 0001:0003bae0       ?set_fd@Socket@yaSSL@@QAEXI@Z 0043cae0 f   yassl:socket_wrapper.obj
 0001:0003baf0       ?get_fd@Socket@yaSSL@@QBEIXZ 0043caf0 f   yassl:socket_wrapper.obj
 0001:0003bb00       ??1Socket@yaSSL@@QAE@XZ    0043cb00 f   yassl:socket_wrapper.obj
 0001:0003bb10       ?closeSocket@Socket@yaSSL@@QAEXXZ 0043cb10 f   yassl:socket_wrapper.obj
 0001:0003bb30       ?get_ready@Socket@yaSSL@@QBEIXZ 0043cb30 f   yassl:socket_wrapper.obj
 0001:0003bb50       ?send@Socket@yaSSL@@QBEIPBEIH@Z 0043cb50 f   yassl:socket_wrapper.obj
 0001:0003bba0       ?shutDown@Socket@yaSSL@@QAEXH@Z 0043cba0 f   yassl:socket_wrapper.obj
 0001:0003bbc0       ?get_lastError@Socket@yaSSL@@SAHXZ 0043cbc0 f   yassl:socket_wrapper.obj
 0001:0003bbd0       ?WouldBlock@Socket@yaSSL@@QBE_NXZ 0043cbd0 f   yassl:socket_wrapper.obj
 0001:0003bbe0       ?IsNonBlocking@Socket@yaSSL@@QBE_NXZ 0043cbe0 f   yassl:socket_wrapper.obj
 0001:0003bbf0       ?set_lastError@Socket@yaSSL@@SAXH@Z 0043cbf0 f   yassl:socket_wrapper.obj
 0001:0003bc00       ?receive@Socket@yaSSL@@QAEIPAEIH@Z 0043cc00 f   yassl:socket_wrapper.obj
 0001:0003bc70       ?wait@Socket@yaSSL@@QAE_NXZ 0043cc70 f   yassl:socket_wrapper.obj
 0001:0003bc90       ??0Log@yaSSL@@QAE@PBD@Z    0043cc90 f   yassl:log.obj
 0001:0003bca0       ??1Log@yaSSL@@QAE@XZ       0043cca0 f   yassl:log.obj
 0001:0003bcb0       ?Trace@Log@yaSSL@@QAEXPBD@Z 0043ccb0 f   yassl:log.obj
 0001:0003bcc0       ?ShowTCP@Log@yaSSL@@QAEXI_N@Z 0043ccc0 f   yassl:log.obj
 0001:0003bcd0       ?ShowData@Log@yaSSL@@QAEXI_N@Z 0043ccd0 f   yassl:log.obj
 0001:0003bce0       ??1HandShakeHeader@yaSSL@@UAE@XZ 0043cce0 f i yassl:handshake.obj
 0001:0003bcf0       ?buildClientHello@yaSSL@@YAXAAVSSL@1@AAVClientHello@1@@Z 0043ccf0 f   yassl:handshake.obj
 0001:0003bde0       ?buildServerHello@yaSSL@@YAXAAVSSL@1@AAVServerHello@1@@Z 0043cde0 f   yassl:handshake.obj
 0001:0003bec0       ?hashHandShake@yaSSL@@YAXAAVSSL@1@ABVinput_buffer@1@I@Z 0043cec0 f   yassl:handshake.obj
 0001:0003bf20       ?buildOutput@?A0xbea0df52@yaSSL@@YAXAAVoutput_buffer@2@ABURecordLayerHeader@2@ABUMessage@2@@Z 0043cf20 f   yassl:handshake.obj
 0001:0003bf60       ?buildOutput@?A0xbea0df52@yaSSL@@YAXAAVoutput_buffer@2@ABURecordLayerHeader@2@ABVHandShakeHeader@2@ABVHandShakeBase@2@@Z 0043cf60 f   yassl:handshake.obj
 0001:0003bfb0       ?buildHeader@?A0xbea0df52@yaSSL@@YAXAAVSSL@2@AAURecordLayerHeader@2@ABUMessage@2@@Z 0043cfb0 f   yassl:handshake.obj
 0001:0003bff0       ?buildHeaders@?A0xbea0df52@yaSSL@@YAXAAVSSL@2@AAVHandShakeHeader@2@AAURecordLayerHeader@2@ABVHandShakeBase@2@@Z 0043cff0 f   yassl:handshake.obj
 0001:0003c050       ?hashHandShake@?A0xbea0df52@yaSSL@@YAXAAVSSL@2@ABVoutput_buffer@2@_N@Z 0043d050 f   yassl:handshake.obj
 0001:0003c0d0       ?buildMD5@?A0xbea0df52@yaSSL@@YAXAAVSSL@2@AAVFinished@2@PBE@Z 0043d0d0 f   yassl:handshake.obj
 0001:0003c1e0       ?buildSHA@?A0xbea0df52@yaSSL@@YAXAAVSSL@2@AAVFinished@2@PBE@Z 0043d1e0 f   yassl:handshake.obj
 0001:0003c300       ?decrypt_message@?A0xbea0df52@yaSSL@@YAXAAVSSL@2@AAVinput_buffer@2@I@Z 0043d300 f   yassl:handshake.obj
 0001:0003c3d0       ??6?A0xbea0df52@yaSSL@@YAAAVoutput_buffer@1@AAV21@ABVinput_buffer@1@@Z 0043d3d0 f   yassl:handshake.obj
 0001:0003c400       ??0RecordLayerHeader@yaSSL@@QAE@XZ 0043d400 f i yassl:handshake.obj
 0001:0003c420       ?get_xor@?A0xbea0df52@yaSSL@@YAXPAEIAAVoutput_buffer@2@1@Z 0043d420 f   yassl:handshake.obj
 0001:0003c470       ?buildMD5_CertVerify@?A0xbea0df52@yaSSL@@YAXAAVSSL@2@PAE@Z 0043d470 f   yassl:handshake.obj
 0001:0003c570       ?buildSHA_CertVerify@?A0xbea0df52@yaSSL@@YAXAAVSSL@2@PAE@Z 0043d570 f   yassl:handshake.obj
 0001:0003c680       ??1ClientHello@yaSSL@@UAE@XZ 0043d680 f i yassl:handshake.obj
 0001:0003c690       ?hmac@yaSSL@@YAXAAVSSL@1@PAEPBEIW4ContentType@1@_N@Z 0043d690 f   yassl:handshake.obj
 0001:0003c830       ?build_certHashes@yaSSL@@YAXAAVSSL@1@AAUHashes@1@@Z 0043d830 f   yassl:handshake.obj
 0001:0003c910       ?sendClientHello@yaSSL@@YAXAAVSSL@1@@Z 0043d910 f   yassl:handshake.obj
 0001:0003caa0       ??1ChangeCipherSpec@yaSSL@@UAE@XZ 0043daa0 f i yassl:handshake.obj
 0001:0003cab0       ??1ServerHello@yaSSL@@UAE@XZ 0043dab0 f i yassl:handshake.obj
 0001:0003cac0       ??1ServerHelloDone@yaSSL@@UAE@XZ 0043dac0 f i yassl:handshake.obj
 0001:0003cad0       ??1Certificate@yaSSL@@UAE@XZ 0043dad0 f i yassl:handshake.obj
 0001:0003cae0       ??0?$auto_ptr@UDigest@yaSSL@@@mySTL@@QAE@PAUDigest@yaSSL@@@Z 0043dae0 f i yassl:handshake.obj
 0001:0003caf0       ??C?$auto_ptr@UDigest@yaSSL@@@mySTL@@QBEPAUDigest@yaSSL@@XZ 0043daf0 f i yassl:handshake.obj
 0001:0003cb00       ??0?$auto_ptr@UMessage@yaSSL@@@mySTL@@QAE@PAUMessage@yaSSL@@@Z 0043db00 f i yassl:handshake.obj
 0001:0003cb10       ??C?$auto_ptr@UMessage@yaSSL@@@mySTL@@QBEPAUMessage@yaSSL@@XZ 0043db10 f i yassl:handshake.obj
 0001:0003cb20       ??D?$auto_ptr@UMessage@yaSSL@@@mySTL@@QBEAAUMessage@yaSSL@@XZ 0043db20 f i yassl:handshake.obj
 0001:0003cb30       ?get@?$auto_ptr@UMessage@yaSSL@@@mySTL@@QBEPAUMessage@yaSSL@@XZ 0043db30 f i yassl:handshake.obj
 0001:0003cb40       ??0?$auto_ptr@Voutput_buffer@yaSSL@@@mySTL@@QAE@PAVoutput_buffer@yaSSL@@@Z 0043db40 f i yassl:handshake.obj
 0001:0003cb50       ??C?$auto_ptr@Voutput_buffer@yaSSL@@@mySTL@@QBEPAVoutput_buffer@yaSSL@@XZ 0043db50 f i yassl:handshake.obj
 0001:0003cb60       ?get@?$auto_ptr@Voutput_buffer@yaSSL@@@mySTL@@QBEPAVoutput_buffer@yaSSL@@XZ 0043db60 f i yassl:handshake.obj
 0001:0003cb70       ?release@?$auto_ptr@Voutput_buffer@yaSSL@@@mySTL@@QAEPAVoutput_buffer@yaSSL@@XZ 0043db70 f i yassl:handshake.obj
 0001:0003cb80       ?begin@?$vector@U?$pair@HP6APAUMessage@yaSSL@@XZ@mySTL@@@mySTL@@QBEPBU?$pair@HP6APAUMessage@yaSSL@@XZ@2@XZ 0043db80 f i yassl:handshake.obj
 0001:0003cb90       ?end@?$vector@U?$pair@HP6APAUMessage@yaSSL@@XZ@mySTL@@@mySTL@@QBEPBU?$pair@HP6APAUMessage@yaSSL@@XZ@2@XZ 0043db90 f i yassl:handshake.obj
 0001:0003cba0       ??$ysDelete@UMessage@yaSSL@@@yaSSL@@YAXPAUMessage@0@@Z 0043dba0 f i yassl:handshake.obj
 0001:0003cbb0       ?ProcessOldClientHello@yaSSL@@YAXAAVinput_buffer@1@AAVSSL@1@@Z 0043dbb0 f   yassl:handshake.obj
 0001:0003ce10       ?CreateObject@?$Factory@UMessage@yaSSL@@HP6APAU12@XZ@yaSSL@@QBEPAUMessage@2@ABH@Z 0043de10 f i yassl:handshake.obj
 0001:0003ce40       ?Destroy@?$auto_ptr@UDigest@yaSSL@@@mySTL@@AAEXXZ 0043de40 f i yassl:handshake.obj
 0001:0003ce50       ?Destroy@?$auto_ptr@UMessage@yaSSL@@@mySTL@@AAEXXZ 0043de50 f i yassl:handshake.obj
 0001:0003ce60       ??1?$auto_ptr@UDigest@yaSSL@@@mySTL@@QAE@XZ 0043de60 f i yassl:handshake.obj
 0001:0003ce70       ?reset@?$auto_ptr@UDigest@yaSSL@@@mySTL@@QAEXPAUDigest@yaSSL@@@Z 0043de70 f i yassl:handshake.obj
 0001:0003ce90       ??1?$auto_ptr@UMessage@yaSSL@@@mySTL@@QAE@XZ 0043de90 f i yassl:handshake.obj
 0001:0003cea0       ?Destroy@?$auto_ptr@Voutput_buffer@yaSSL@@@mySTL@@AAEXXZ 0043dea0 f i yassl:handshake.obj
 0001:0003cec0       ?p_hash@?A0xbea0df52@yaSSL@@YAXAAVoutput_buffer@2@ABV32@1W4MACAlgorithm@2@@Z 0043dec0 f   yassl:handshake.obj
 0001:0003d030       ?TLS_hmac@yaSSL@@YAXAAVSSL@1@PAEPBEIW4ContentType@1@_N@Z 0043e030 f   yassl:handshake.obj
 0001:0003d1b0       ?PRF@yaSSL@@YAXPAEIPBEI1I1I@Z 0043e1b0 f   yassl:handshake.obj
 0001:0003d2e0       ?DoProcessReply@yaSSL@@YAHAAVSSL@1@@Z 0043e2e0 f   yassl:handshake.obj
 0001:0003d630       ?processReply@yaSSL@@YAXAAVSSL@1@@Z 0043e630 f   yassl:handshake.obj
 0001:0003d6a0       ?receiveData@yaSSL@@YAHAAVSSL@1@AAVData@1@_N@Z 0043e6a0 f   yassl:handshake.obj
 0001:0003d770       ??1?$auto_ptr@Voutput_buffer@yaSSL@@@mySTL@@QAE@XZ 0043e770 f i yassl:handshake.obj
 0001:0003d790       ?cipherFinished@?A0xbea0df52@yaSSL@@YAXAAVSSL@2@AAVFinished@2@AAVoutput_buffer@2@@Z 0043e790 f   yassl:handshake.obj
 0001:0003da50       ?buildMessage@?A0xbea0df52@yaSSL@@YAXAAVSSL@2@AAVoutput_buffer@2@ABUMessage@2@@Z 0043ea50 f   yassl:handshake.obj
 0001:0003dd20       ?buildAlert@?A0xbea0df52@yaSSL@@YAXAAVSSL@2@AAVoutput_buffer@2@ABVAlert@2@@Z 0043ed20 f   yassl:handshake.obj
 0001:0003ddd0       ?buildFinishedTLS@?A0xbea0df52@yaSSL@@YAXAAVSSL@2@AAVFinished@2@PBE@Z 0043edd0 f   yassl:handshake.obj
 0001:0003de90       ?buildFinished@yaSSL@@YAXAAVSSL@1@AAVFinished@1@PBE@Z 0043ee90 f   yassl:handshake.obj
 0001:0003df60       ?sendClientKeyExchange@yaSSL@@YAXAAVSSL@1@W4BufferOutput@1@@Z 0043ef60 f   yassl:handshake.obj
 0001:0003e0d0       ?sendServerKeyExchange@yaSSL@@YAXAAVSSL@1@W4BufferOutput@1@@Z 0043f0d0 f   yassl:handshake.obj
 0001:0003e230       ?sendChangeCipher@yaSSL@@YAXAAVSSL@1@W4BufferOutput@1@@Z 0043f230 f   yassl:handshake.obj
 0001:0003e360       ?sendFinished@yaSSL@@YAXAAVSSL@1@W4ConnectionEnd@1@W4BufferOutput@1@@Z 0043f360 f   yassl:handshake.obj
 0001:0003e4b0       ?sendData@yaSSL@@YAHAAVSSL@1@PBXH@Z 0043f4b0 f   yassl:handshake.obj
 0001:0003e620       ?sendAlert@yaSSL@@YAHAAVSSL@1@ABVAlert@1@@Z 0043f620 f   yassl:handshake.obj
 0001:0003e680       ?sendServerHello@yaSSL@@YAXAAVSSL@1@W4BufferOutput@1@@Z 0043f680 f   yassl:handshake.obj
 0001:0003e840       ?sendServerHelloDone@yaSSL@@YAXAAVSSL@1@W4BufferOutput@1@@Z 0043f840 f   yassl:handshake.obj
 0001:0003e990       ?sendCertificate@yaSSL@@YAXAAVSSL@1@W4BufferOutput@1@@Z 0043f990 f   yassl:handshake.obj
 0001:0003eb00       ?sendCertificateRequest@yaSSL@@YAXAAVSSL@1@W4BufferOutput@1@@Z 0043fb00 f   yassl:handshake.obj
 0001:0003ec60       ?sendCertificateVerify@yaSSL@@YAXAAVSSL@1@W4BufferOutput@1@@Z 0043fc60 f   yassl:handshake.obj
 0001:0003edc0       ?GetKey@PublicKey@TaoCrypt@@QBEPBEXZ 0043fdc0 f i yassl:cert_wrapper.obj
 0001:0003edd0       ?size@PublicKey@TaoCrypt@@QBEIXZ 0043fdd0 f i yassl:cert_wrapper.obj
 0001:0003ede0       ?GetPublicKey@CertDecoder@TaoCrypt@@QBEABVPublicKey@2@XZ 0043fde0 f i yassl:cert_wrapper.obj
 0001:0003edf0       ?GetKeyType@CertDecoder@TaoCrypt@@QBE?AW4KeyType@2@XZ 0043fdf0 f i yassl:cert_wrapper.obj
 0001:0003ee00       ?GetIssuer@CertDecoder@TaoCrypt@@QBEPBDXZ 0043fe00 f i yassl:cert_wrapper.obj
 0001:0003ee10       ?GetCommonName@CertDecoder@TaoCrypt@@QBEPBDXZ 0043fe10 f i yassl:cert_wrapper.obj
 0001:0003ee20       ?GetHash@CertDecoder@TaoCrypt@@QBEPBEXZ 0043fe20 f i yassl:cert_wrapper.obj
 0001:0003ee30       ?GetBeforeDate@CertDecoder@TaoCrypt@@QBEPBDXZ 0043fe30 f i yassl:cert_wrapper.obj
 0001:0003ee40       ?GetAfterDate@CertDecoder@TaoCrypt@@QBEPBDXZ 0043fe40 f i yassl:cert_wrapper.obj
 0001:0003ee50       ??0x509@yaSSL@@QAE@I@Z     0043fe50 f   yassl:cert_wrapper.obj
 0001:0003ee70       ??0x509@yaSSL@@QAE@ABV01@@Z 0043fe70 f   yassl:cert_wrapper.obj
 0001:0003eeb0       ?get_length@x509@yaSSL@@QBEIXZ 0043feb0 f   yassl:cert_wrapper.obj
 0001:0003eec0       ?get_buffer@x509@yaSSL@@QBEPBEXZ 0043fec0 f   yassl:cert_wrapper.obj
 0001:0003eed0       ?use_buffer@x509@yaSSL@@QAEPAEXZ 0043fed0 f   yassl:cert_wrapper.obj
 0001:0003eee0       ?verifyPeer@CertManager@yaSSL@@QBE_NXZ 0043fee0 f   yassl:cert_wrapper.obj
 0001:0003eef0       ?verifyNone@CertManager@yaSSL@@QBE_NXZ 0043fef0 f   yassl:cert_wrapper.obj
 0001:0003ef00       ?failNoCert@CertManager@yaSSL@@QBE_NXZ 0043ff00 f   yassl:cert_wrapper.obj
 0001:0003ef10       ?sendVerify@CertManager@yaSSL@@QBE_NXZ 0043ff10 f   yassl:cert_wrapper.obj
 0001:0003ef20       ?setVerifyPeer@CertManager@yaSSL@@QAEXXZ 0043ff20 f   yassl:cert_wrapper.obj
 0001:0003ef30       ?setVerifyNone@CertManager@yaSSL@@QAEXXZ 0043ff30 f   yassl:cert_wrapper.obj
 0001:0003ef40       ?setFailNoCert@CertManager@yaSSL@@QAEXXZ 0043ff40 f   yassl:cert_wrapper.obj
 0001:0003ef50       ?setSendVerify@CertManager@yaSSL@@QAEXXZ 0043ff50 f   yassl:cert_wrapper.obj
 0001:0003ef60       ?get_peerKey@CertManager@yaSSL@@QBEPBEXZ 0043ff60 f   yassl:cert_wrapper.obj
 0001:0003ef70       ?get_peerX509@CertManager@yaSSL@@QBEPAVX509@2@XZ 0043ff70 f   yassl:cert_wrapper.obj
 0001:0003ef80       ?get_peerKeyType@CertManager@yaSSL@@QBE?AW4SignatureAlgorithm@2@XZ 0043ff80 f   yassl:cert_wrapper.obj
 0001:0003ef90       ?get_keyType@CertManager@yaSSL@@QBE?AW4SignatureAlgorithm@2@XZ 0043ff90 f   yassl:cert_wrapper.obj
 0001:0003efa0       ?get_peerKeyLength@CertManager@yaSSL@@QBEIXZ 0043ffa0 f   yassl:cert_wrapper.obj
 0001:0003efb0       ?get_privateKey@CertManager@yaSSL@@QBEPBEXZ 0043ffb0 f   yassl:cert_wrapper.obj
 0001:0003efc0       ?get_privateKeyLength@CertManager@yaSSL@@QBEIXZ 0043ffc0 f   yassl:cert_wrapper.obj
 0001:0003efd0       ?setPeerX509@CertManager@yaSSL@@QAEXPAVX509@2@@Z 0043ffd0 f   yassl:cert_wrapper.obj
 0001:0003f080       ?size@?$list@PAVx509@yaSSL@@@mySTL@@QBEIXZ 00440080 f i yassl:cert_wrapper.obj
 0001:0003f090       ??0?$list@PAVSigner@TaoCrypt@@@mySTL@@QAE@XZ 00440090 f i yassl:cert_wrapper.obj
 0001:0003f0a0       ??Dreverse_iterator@?$list@PAVx509@yaSSL@@@mySTL@@QBEAAPAVx509@yaSSL@@XZ 004400a0 f i yassl:cert_wrapper.obj
 0001:0003f0b0       ??Ereverse_iterator@?$list@PAVx509@yaSSL@@@mySTL@@QAEAAV012@XZ 004400b0 f i yassl:cert_wrapper.obj
 0001:0003f0c0       ??0iterator@?$list@PAVSigner@TaoCrypt@@@mySTL@@QAE@PAUnode@12@@Z 004400c0 f i yassl:cert_wrapper.obj
 0001:0003f0d0       ??0reverse_iterator@?$list@PAVx509@yaSSL@@@mySTL@@QAE@PAUnode@12@@Z 004400d0 f i yassl:cert_wrapper.obj
 0001:0003f0e0       ?front@?$list@PAVx509@yaSSL@@@mySTL@@QBEPAVx509@yaSSL@@XZ 004400e0 f i yassl:cert_wrapper.obj
 0001:0003f0f0       ??$swap@I@mySTL@@YAXAAI0@Z 004400f0 f i yassl:cert_wrapper.obj
 0001:0003f110       ??Diterator@?$list@PAVSigner@TaoCrypt@@@mySTL@@QBEAAPAVSigner@TaoCrypt@@XZ 00440110 f i yassl:cert_wrapper.obj
 0001:0003f120       ??Eiterator@?$list@PAVSigner@TaoCrypt@@@mySTL@@QAEAAV012@XZ 00440120 f i yassl:cert_wrapper.obj
 0001:0003f130       ??9iterator@?$list@PAVSigner@TaoCrypt@@@mySTL@@QBE_NABV012@@Z 00440130 f i yassl:cert_wrapper.obj
 0001:0003f150       ??0node@?$list@PAVSigner@TaoCrypt@@@mySTL@@QAE@PAVSigner@TaoCrypt@@@Z 00440150 f i yassl:cert_wrapper.obj
 0001:0003f170       ??$destroy@Unode@?$list@PAVSigner@TaoCrypt@@@mySTL@@@mySTL@@YAXPAUnode@?$list@PAVSigner@TaoCrypt@@@0@@Z 00440170 f i yassl:cert_wrapper.obj
 0001:0003f180       ??$swap@PAVSigner@TaoCrypt@@@mySTL@@YAXAAPAVSigner@TaoCrypt@@0@Z 00440180 f i yassl:cert_wrapper.obj
 0001:0003f1a0       ??_GSigner@TaoCrypt@@QAEPAXI@Z 004401a0 f i yassl:cert_wrapper.obj
 0001:0003f1c0       ??1x509@yaSSL@@QAE@XZ      004401c0 f   yassl:cert_wrapper.obj
 0001:0003f1d0       ?Swap@x509@yaSSL@@AAEXAAV12@@Z 004401d0 f   yassl:cert_wrapper.obj
 0001:0003f1f0       ??4x509@yaSSL@@QAEAAV01@ABV01@@Z 004401f0 f   yassl:cert_wrapper.obj
 0001:0003f240       ?get_cert@CertManager@yaSSL@@QBEPBVx509@2@XZ 00440240 f   yassl:cert_wrapper.obj
 0001:0003f250       ?rbegin@?$list@PAVx509@yaSSL@@@mySTL@@QBE?AVreverse_iterator@12@XZ 00440250 f i yassl:cert_wrapper.obj
 0001:0003f260       ?begin@?$list@PAVSigner@TaoCrypt@@@mySTL@@QBE?AViterator@12@XZ 00440260 f i yassl:cert_wrapper.obj
 0001:0003f270       ?end@?$list@PAVSigner@TaoCrypt@@@mySTL@@QBE?AViterator@12@XZ 00440270 f i yassl:cert_wrapper.obj
 0001:0003f280       ?push_back@?$list@PAVSigner@TaoCrypt@@@mySTL@@QAEXPAVSigner@TaoCrypt@@@Z 00440280 f i yassl:cert_wrapper.obj
 0001:0003f2d0       ??$ysDelete@VSigner@TaoCrypt@@@yaSSL@@YAXPAVSigner@TaoCrypt@@@Z 004402d0 f i yassl:cert_wrapper.obj
 0001:0003f2f0       ?AddPeerCert@CertManager@yaSSL@@QAEXPAVx509@2@@Z 004402f0 f   yassl:cert_wrapper.obj
 0001:0003f340       ?CopySelfCert@CertManager@yaSSL@@QAEXPBVx509@2@@Z 00440340 f   yassl:cert_wrapper.obj
 0001:0003f3b0       ??1?$list@PAVSigner@TaoCrypt@@@mySTL@@QAE@XZ 004403b0 f i yassl:cert_wrapper.obj
 0001:0003f3d0       ??$checked_delete@VSigner@TaoCrypt@@@yaSSL@@YAXPAVSigner@TaoCrypt@@@Z 004403d0 f i yassl:cert_wrapper.obj
 0001:0003f3f0       ??0CertManager@yaSSL@@QAE@XZ 004403f0 f   yassl:cert_wrapper.obj
 0001:0003f440       ?CopyCaCert@CertManager@yaSSL@@QAEHPBVx509@2@@Z 00440440 f   yassl:cert_wrapper.obj
 0001:0003f550       ?Validate@CertManager@yaSSL@@QAEHXZ 00440550 f   yassl:cert_wrapper.obj
 0001:0003f860       ?SetPrivateKey@CertManager@yaSSL@@QAEHABVx509@2@@Z 00440860 f   yassl:cert_wrapper.obj
 0001:0003f9c0       ??$?RVSigner@TaoCrypt@@@del_ptr_zero@yaSSL@@QBEXAAPAVSigner@TaoCrypt@@@Z 004409c0 f i yassl:cert_wrapper.obj
 0001:0003f9f0       ??$for_each@Viterator@?$list@PAVSigner@TaoCrypt@@@mySTL@@Udel_ptr_zero@yaSSL@@@mySTL@@YA?AUdel_ptr_zero@yaSSL@@Viterator@?$list@PAVSigner@TaoCrypt@@@0@0U12@@Z 004409f0 f i yassl:cert_wrapper.obj
 0001:0003fa30       ??1CertManager@yaSSL@@QAE@XZ 00440a30 f   yassl:cert_wrapper.obj
 0001:0003fb10       ?SetErrorString@yaSSL@@YAXW4YasslError@1@PAD@Z 00440b10 f   yassl:yassl_error.obj
 0001:00040140       ?check@Check@yaSSL@@QAEXII@Z 00441140 f   yassl:buffer.obj
 0001:00040150       ?check@NoCheck@yaSSL@@QAEXII@Z 00441150 f   yassl:buffer.obj
 0001:00040160       ??0input_buffer@yaSSL@@QAE@XZ 00441160 f   yassl:buffer.obj
 0001:00040170       ??0input_buffer@yaSSL@@QAE@I@Z 00441170 f   yassl:buffer.obj
 0001:000401a0       ?allocate@input_buffer@yaSSL@@QAEXI@Z 004411a0 f   yassl:buffer.obj
 0001:000401c0       ?get_buffer@input_buffer@yaSSL@@QBEPAEXZ 004411c0 f   yassl:buffer.obj
 0001:000401d0       ?get_capacity@input_buffer@yaSSL@@QBEIXZ 004411d0 f   yassl:buffer.obj
 0001:000401e0       ?get_current@input_buffer@yaSSL@@QBEIXZ 004411e0 f   yassl:buffer.obj
 0001:000401f0       ?get_size@input_buffer@yaSSL@@QBEIXZ 004411f0 f   yassl:buffer.obj
 0001:00040200       ?get_remaining@input_buffer@yaSSL@@QBEIXZ 00441200 f   yassl:buffer.obj
 0001:00040210       ?set_current@input_buffer@yaSSL@@QAEXI@Z 00441210 f   yassl:buffer.obj
 0001:00040220       ??Ainput_buffer@yaSSL@@QAEABEI@Z 00441220 f   yassl:buffer.obj
 0001:00040230       ?eof@input_buffer@yaSSL@@QAE_NXZ 00441230 f   yassl:buffer.obj
 0001:00040240       ?peek@input_buffer@yaSSL@@QBEEXZ 00441240 f   yassl:buffer.obj
 0001:00040250       ?read@input_buffer@yaSSL@@QAEXPAEI@Z 00441250 f   yassl:buffer.obj
 0001:00040290       ??0output_buffer@yaSSL@@QAE@XZ 00441290 f   yassl:buffer.obj
 0001:000402a0       ??0output_buffer@yaSSL@@QAE@I@Z 004412a0 f   yassl:buffer.obj
 0001:000402d0       ?get_size@output_buffer@yaSSL@@QBEIXZ 004412d0 f   yassl:buffer.obj
 0001:000402e0       ?get_capacity@output_buffer@yaSSL@@QBEIXZ 004412e0 f   yassl:buffer.obj
 0001:000402f0       ?set_current@output_buffer@yaSSL@@QAEXI@Z 004412f0 f   yassl:buffer.obj
 0001:00040300       ?allocate@output_buffer@yaSSL@@QAEXI@Z 00441300 f   yassl:buffer.obj
 0001:00040320       ?get_buffer@output_buffer@yaSSL@@QBEPBEXZ 00441320 f   yassl:buffer.obj
 0001:00040330       ??Aoutput_buffer@yaSSL@@QAEAAEI@Z 00441330 f   yassl:buffer.obj
 0001:00040340       ?eof@output_buffer@yaSSL@@QAE_NXZ 00441340 f   yassl:buffer.obj
 0001:00040350       ?write@output_buffer@yaSSL@@QAEXPBEI@Z 00441350 f   yassl:buffer.obj
 0001:00040380       ??1input_buffer@yaSSL@@QAE@XZ 00441380 f   yassl:buffer.obj
 0001:00040390       ?add_size@input_buffer@yaSSL@@QAEXI@Z 00441390 f   yassl:buffer.obj
 0001:000403a0       ?assign@input_buffer@yaSSL@@QAEXPBEI@Z 004413a0 f   yassl:buffer.obj
 0001:000403d0       ??0output_buffer@yaSSL@@QAE@IPBEI@Z 004413d0 f   yassl:buffer.obj
 0001:00040420       ??1output_buffer@yaSSL@@QAE@XZ 00441420 f   yassl:buffer.obj
 0001:00040430       ??0input_buffer@yaSSL@@QAE@IPBEI@Z 00441430 f   yassl:buffer.obj
 0001:00040490       ?timer@yaSSL@@YANXZ        00441490 f   yassl:timer.obj
 0001:000404d0       ?lowResTimer@yaSSL@@YAIXZ  004414d0 f   yassl:timer.obj
 0001:00040510       _compress2                 00441510 f   zlib:compress.obj
 0001:000405c0       _compress                  004415c0 f   zlib:compress.obj
 0001:000405e0       _compressBound             004415e0 f   zlib:compress.obj
 0001:00040600       _uncompress                00441600 f   zlib:uncompr.obj
 0001:000406b0       _deflateSetDictionary      004416b0 f   zlib:deflate.obj
 0001:000407c0       _deflateSetHeader          004417c0 f   zlib:deflate.obj
 0001:000407f0       _deflatePrime              004417f0 f   zlib:deflate.obj
 0001:00040830       _deflateTune               00441830 f   zlib:deflate.obj
 0001:00040870       _deflateBound              00441870 f   zlib:deflate.obj
 0001:00040950       _deflate                   00441950 f   zlib:deflate.obj
 0001:000411c0       _deflateEnd                004421c0 f   zlib:deflate.obj
 0001:00041290       _deflateCopy               00442290 f   zlib:deflate.obj
 0001:00042270       _deflateReset              00443270 f   zlib:deflate.obj
 0001:00042310       _deflateParams             00443310 f   zlib:deflate.obj
 0001:000423f0       _deflateInit2_             004433f0 f   zlib:deflate.obj
 0001:00042630       _deflateInit_              00443630 f   zlib:deflate.obj
 0001:00042660       _inflateReset              00443660 f   zlib:inflate.obj
 0001:000426c0       _inflatePrime              004436c0 f   zlib:inflate.obj
 0001:00042720       _inflateInit2_             00443720 f   zlib:inflate.obj
 0001:000427f0       _inflateInit_              004437f0 f   zlib:inflate.obj
 0001:00042950       _inflate                   00443950 f   zlib:inflate.obj
 0001:00043f80       _inflateEnd                00444f80 f   zlib:inflate.obj
 0001:00043fd0       _inflateSetDictionary      00444fd0 f   zlib:inflate.obj
 0001:000440c0       _inflateGetHeader          004450c0 f   zlib:inflate.obj
 0001:00044150       _inflateSync               00445150 f   zlib:inflate.obj
 0001:00044250       _inflateSyncPoint          00445250 f   zlib:inflate.obj
 0001:00044280       _inflateCopy               00445280 f   zlib:inflate.obj
 0001:000443c0       _adler32                   004453c0 f   zlib:adler32.obj
 0001:00044610       _adler32_combine           00445610 f   zlib:adler32.obj
 0001:00045290       __tr_tally                 00446290 f   zlib:trees.obj
 0001:000459d0       __tr_init                  004469d0 f   zlib:trees.obj
 0001:00045d40       __tr_stored_block          00446d40 f   zlib:trees.obj
 0001:00045de0       __tr_align                 00446de0 f   zlib:trees.obj
 0001:00045fe0       __tr_flush_block           00446fe0 f   zlib:trees.obj
 0001:000461f0       _get_crc_table             004471f0 f   zlib:crc32.obj
 0001:00046860       _crc32_combine             00447860 f   zlib:crc32.obj
 0001:000469b0       _crc32                     004479b0 f   zlib:crc32.obj
 0001:000469d0       _zlibVersion               004479d0 f   zlib:zutil.obj
 0001:000469e0       _zlibCompileFlags          004479e0 f   zlib:zutil.obj
 0001:000469f0       _zError                    004479f0 f   zlib:zutil.obj
 0001:00046a10       _zcalloc                   00447a10 f   zlib:zutil.obj
 0001:00046a30       _zcfree                    00447a30 f   zlib:zutil.obj
 0001:00046a40       _inflate_fast              00447a40 f   zlib:inffast.obj
 0001:00046eb0       _inflate_table             00447eb0 f   zlib:inftrees.obj
 0001:000473e6       _gethostname@8             004483e6 f   wsock32:WSOCK32.dll
 0001:000473ec       _ioctlsocket@12            004483ec f   wsock32:WSOCK32.dll
 0001:000473f2       _listen@8                  004483f2 f   wsock32:WSOCK32.dll
 0001:000473f8       _closesocket@4             004483f8 f   wsock32:WSOCK32.dll
 0001:000473fe       _bind@12                   004483fe f   wsock32:WSOCK32.dll
 0001:00047404       _setsockopt@20             00448404 f   wsock32:WSOCK32.dll
 0001:0004740a       _htons@4                   0044840a f   wsock32:WSOCK32.dll
 0001:00047410       _htonl@4                   00448410 f   wsock32:WSOCK32.dll
 0001:00047416       _inet_addr@4               00448416 f   wsock32:WSOCK32.dll
 0001:0004741c       _socket@12                 0044841c f   wsock32:WSOCK32.dll
 0001:00047422       _shutdown@8                00448422 f   wsock32:WSOCK32.dll
 0001:00047428       _accept@12                 00448428 f   wsock32:WSOCK32.dll
 0001:0004742e       ___WSAFDIsSet@8            0044842e f   wsock32:WSOCK32.dll
 0001:00047434       _select@20                 00448434 f   wsock32:WSOCK32.dll
 0001:0004743a       _connect@12                0044843a f   wsock32:WSOCK32.dll
 0001:00047440       _WSAGetLastError@0         00448440 f   wsock32:WSOCK32.dll
 0001:00047446       _WSACleanup@0              00448446 f   wsock32:WSOCK32.dll
 0001:0004744c       _WSAStartup@8              0044844c f   wsock32:WSOCK32.dll
 0001:00047452       _gethostbyname@4           00448452 f   wsock32:WSOCK32.dll
 0001:00047458       _recv@16                   00448458 f   wsock32:WSOCK32.dll
 0001:0004745e       _send@16                   0044845e f   wsock32:WSOCK32.dll
 0001:00047464       _ntohs@4                   00448464 f   wsock32:WSOCK32.dll
 0001:0004746a       _getpeername@12            0044846a f   wsock32:WSOCK32.dll
 0001:00047470       _WSASetLastError@4         00448470 f   wsock32:WSOCK32.dll
 0001:00047480       ??$rotlFixed@I@TaoCrypt@@YAIII@Z 00448480 f i taocrypt:md5.obj
 0001:00047490       ?Init@MD5@TaoCrypt@@UAEXXZ 00448490 f   taocrypt:md5.obj
 0001:000474c0       ??0MD5@TaoCrypt@@QAE@ABV01@@Z 004484c0 f   taocrypt:md5.obj
 0001:00047520       ?AsmTransform@MD5@TaoCrypt@@AAEXPBEI@Z 00448520 f   taocrypt:md5.obj
 0001:00047bb0       ?Transform@MD5@TaoCrypt@@EAEXXZ 00448bb0 f   taocrypt:md5.obj
 0001:000481e0       ?Swap@MD5@TaoCrypt@@QAEXAAV12@@Z 004491e0 f   taocrypt:md5.obj
 0001:00048240       ?Update@MD5@TaoCrypt@@UAEXPBEI@Z 00449240 f   taocrypt:md5.obj
 0001:00048320       ??4MD5@TaoCrypt@@QAEAAV01@ABV01@@Z 00449320 f   taocrypt:md5.obj
 0001:00048390       ??$rotrFixed@I@TaoCrypt@@YAIII@Z 00449390 f i taocrypt:hash.obj
 0001:000483a0       ?ByteReverse@TaoCrypt@@YAII@Z 004493a0 f i taocrypt:hash.obj
 0001:000483c0       ?ByteReverse@TaoCrypt@@YA_K_K@Z 004493c0 f i taocrypt:hash.obj
 0001:00048400       ?GetBitCountLo@HASHwithTransform@TaoCrypt@@QBEIXZ 00449400 f i taocrypt:hash.obj
 0001:00048410       ?GetBitCountHi@HASHwithTransform@TaoCrypt@@QBEIXZ 00449410 f i taocrypt:hash.obj
 0001:00048420       ?GetBitCountLo@HASH64withTransform@TaoCrypt@@QBEIXZ 00449420 f i taocrypt:hash.obj
 0001:00048430       ?GetBitCountHi@HASH64withTransform@TaoCrypt@@QBEIXZ 00449430 f i taocrypt:hash.obj
 0001:00048440       ??0HASH@TaoCrypt@@QAE@XZ   00449440 f i taocrypt:hash.obj
 0001:00048450       ??0HASH64withTransform@TaoCrypt@@QAE@II@Z 00449450 f   taocrypt:hash.obj
 0001:00048460       ??_GHASH64withTransform@TaoCrypt@@UAEPAXI@Z 00449460 f i taocrypt:hash.obj
 0001:00048460       ??_EHASH64withTransform@TaoCrypt@@UAEPAXI@Z 00449460 f i taocrypt:hash.obj
 0001:00048480       ?ToEnum@?$EnumToType@W4ByteOrder@TaoCrypt@@$0A@@TaoCrypt@@SA?AW4ByteOrder@2@XZ 00449480 f i taocrypt:hash.obj
 0001:00048490       ??$ByteReverse@I@TaoCrypt@@YAXPAIPBII@Z 00449490 f i taocrypt:hash.obj
 0001:000484d0       ??$RightShift@I@?$SafeShifter@$00@TaoCrypt@@SAIII@Z 004494d0 f i taocrypt:hash.obj
 0001:000484e0       ??$ByteReverse@_K@TaoCrypt@@YAXPA_KPB_KI@Z 004494e0 f i taocrypt:hash.obj
 0001:00048550       ?GetHostByteOrder@TaoCrypt@@YA?AW4ByteOrder@1@XZ 00449550 f i taocrypt:hash.obj
 0001:00048560       ?HostByteOrderIs@TaoCrypt@@YA_NW4ByteOrder@1@@Z 00449560 f i taocrypt:hash.obj
 0001:00048570       ?ByteReverse@TaoCrypt@@YAXPAEPBEI@Z 00449570 f i taocrypt:hash.obj
 0001:00048580       ??0HASHwithTransform@TaoCrypt@@QAE@II@Z 00449580 f   taocrypt:hash.obj
 0001:00048590       ??_GHASHwithTransform@TaoCrypt@@UAEPAXI@Z 00449590 f i taocrypt:hash.obj
 0001:00048590       ??_EHASHwithTransform@TaoCrypt@@UAEPAXI@Z 00449590 f i taocrypt:hash.obj
 0001:000485b0       ??$SafeRightShift@$0CA@I@TaoCrypt@@YAII@Z 004495b0 f i taocrypt:hash.obj
 0001:000485c0       ??$ByteReverseIf@E@TaoCrypt@@YAXPAEPBEIW4ByteOrder@0@@Z 004495c0 f i taocrypt:hash.obj
 0001:00048610       ??$ByteReverseIf@I@TaoCrypt@@YAXPAIPBIIW4ByteOrder@0@@Z 00449610 f i taocrypt:hash.obj
 0001:00048660       ??$ByteReverseIf@_K@TaoCrypt@@YAXPA_KPB_KIW4ByteOrder@0@@Z 00449660 f i taocrypt:hash.obj
 0001:000486b0       ?AddLength@HASHwithTransform@TaoCrypt@@IAEXI@Z 004496b0 f   taocrypt:hash.obj
 0001:000486d0       ?Update@HASHwithTransform@TaoCrypt@@UAEXPBEI@Z 004496d0 f   taocrypt:hash.obj
 0001:000487b0       ?Final@HASHwithTransform@TaoCrypt@@UAEXPAE@Z 004497b0 f   taocrypt:hash.obj
 0001:00048920       ?AddLength@HASH64withTransform@TaoCrypt@@IAEXI@Z 00449920 f   taocrypt:hash.obj
 0001:00048940       ?Update@HASH64withTransform@TaoCrypt@@UAEXPBEI@Z 00449940 f   taocrypt:hash.obj
 0001:00048a10       ?Final@HASH64withTransform@TaoCrypt@@UAEXPAE@Z 00449a10 f   taocrypt:hash.obj
 0001:00048bd0       ??1MD4@TaoCrypt@@UAE@XZ    00449bd0 f i taocrypt:md4.obj
 0001:00048be0       ?Init@MD4@TaoCrypt@@UAEXXZ 00449be0 f   taocrypt:md4.obj
 0001:00048c10       ??0MD4@TaoCrypt@@QAE@ABV01@@Z 00449c10 f   taocrypt:md4.obj
 0001:00048c70       ?Transform@MD4@TaoCrypt@@EAEXXZ 00449c70 f   taocrypt:md4.obj
 0001:000490d0       ?Swap@MD4@TaoCrypt@@QAEXAAV12@@Z 0044a0d0 f   taocrypt:md4.obj
 0001:00049130       ??4MD4@TaoCrypt@@QAEAAV01@ABV01@@Z 0044a130 f   taocrypt:md4.obj
 0001:000491a0       ?SetError@Error@TaoCrypt@@QAEXW4ErrorNumber@2@@Z 0044a1a0 f i taocrypt:coding.obj
 0001:000491b0       ?SetError@Source@TaoCrypt@@QAEXW4ErrorNumber@2@@Z 0044a1b0 f i taocrypt:coding.obj
 0001:000491c0       ??A?$Block@EV?$AllocatorWithCleanup@E@TaoCrypt@@@TaoCrypt@@QAEAAEI@Z 0044a1c0 f i taocrypt:coding.obj
 0001:000491d0       ?next@Source@TaoCrypt@@QAEEXZ 0044a1d0 f i taocrypt:coding.obj
 0001:000491e0       ?resize@?$Block@EV?$AllocatorWithCleanup@E@TaoCrypt@@@TaoCrypt@@QAEXI@Z 0044a1e0 f i taocrypt:coding.obj
 0001:00049280       ?Encode@HexEncoder@TaoCrypt@@AAEXXZ 0044a280 f   taocrypt:coding.obj
 0001:000492f0       ?Decode@HexDecoder@TaoCrypt@@AAEXXZ 0044a2f0 f   taocrypt:coding.obj
 0001:00049370       ?Encode@Base64Encoder@TaoCrypt@@AAEXXZ 0044a370 f   taocrypt:coding.obj
 0001:00049550       ?Decode@Base64Decoder@TaoCrypt@@AAEXXZ 0044a550 f   taocrypt:coding.obj
 0001:00049740       ?BytesToWords@TaoCrypt@@YAII@Z 0044a740 f i taocrypt:integer.obj
 0001:00049750       ?BitsToWords@TaoCrypt@@YAII@Z 0044a750 f i taocrypt:integer.obj
 0001:00049760       ?CopyWords@TaoCrypt@@YAXPAIPBII@Z 0044a760 f i taocrypt:integer.obj
 0001:00049780       ?CountWords@TaoCrypt@@YAIPBII@Z 0044a780 f i taocrypt:integer.obj
 0001:000497a0       ?SetWords@TaoCrypt@@YAXPAIII@Z 0044a7a0 f i taocrypt:integer.obj
 0001:000497c0       ?ShiftWordsLeftByBits@TaoCrypt@@YAIPAIII@Z 0044a7c0 f i taocrypt:integer.obj
 0001:00049810       ?ShiftWordsRightByBits@TaoCrypt@@YAIPAIII@Z 0044a810 f i taocrypt:integer.obj
 0001:00049860       ?ShiftWordsLeftByWords@TaoCrypt@@YAXPAIII@Z 0044a860 f i taocrypt:integer.obj
 0001:000498a0       ?ShiftWordsRightByWords@TaoCrypt@@YAXPAIII@Z 0044a8a0 f i taocrypt:integer.obj
 0001:000498f0       ?IsNegative@Integer@TaoCrypt@@QBE_NXZ 0044a8f0 f i taocrypt:integer.obj
 0001:00049900       ?NotNegative@Integer@TaoCrypt@@QBE_NXZ 0044a900 f i taocrypt:integer.obj
 0001:00049910       ??1AbstractGroup@TaoCrypt@@UAE@XZ 0044a910 f i taocrypt:integer.obj
 0001:00049920       ??0AbstractGroup@TaoCrypt@@QAE@XZ 0044a920 f i taocrypt:integer.obj
 0001:00049930       ??0MultiplicativeGroupT@AbstractRing@TaoCrypt@@QAE@XZ 0044a930 f i taocrypt:integer.obj
 0001:00049940       ?InversionIsFast@AbstractGroup@TaoCrypt@@UBE_NXZ 0044a940 f i taocrypt:integer.obj
 0001:00049950       ?Equal@MultiplicativeGroupT@AbstractRing@TaoCrypt@@UBE_NABVInteger@3@0@Z 0044a950 f i taocrypt:integer.obj
 0001:00049960       ?Identity@MultiplicativeGroupT@AbstractRing@TaoCrypt@@UBEABVInteger@3@XZ 0044a960 f i taocrypt:integer.obj
 0001:00049970       ?Add@MultiplicativeGroupT@AbstractRing@TaoCrypt@@UBEABVInteger@3@ABV43@0@Z 0044a970 f i taocrypt:integer.obj
 0001:00049980       ?Inverse@MultiplicativeGroupT@AbstractRing@TaoCrypt@@UBEABVInteger@3@ABV43@@Z 0044a980 f i taocrypt:integer.obj
 0001:00049990       ?Subtract@MultiplicativeGroupT@AbstractRing@TaoCrypt@@UBEABVInteger@3@ABV43@0@Z 0044a990 f i taocrypt:integer.obj
 0001:000499a0       ?Double@MultiplicativeGroupT@AbstractRing@TaoCrypt@@UBEABVInteger@3@ABV43@@Z 0044a9a0 f i taocrypt:integer.obj
 0001:000499b0       ?SimultaneousMultiply@MultiplicativeGroupT@AbstractRing@TaoCrypt@@UBEXPAVInteger@3@ABV43@PBV43@I@Z 0044a9b0 f i taocrypt:integer.obj
 0001:000499c0       ??1MultiplicativeGroupT@AbstractRing@TaoCrypt@@UAE@XZ 0044a9c0 f i taocrypt:integer.obj
 0001:000499d0       ??1AbstractRing@TaoCrypt@@UAE@XZ 0044a9d0 f i taocrypt:integer.obj
 0001:000499e0       ??_GMultiplicativeGroupT@AbstractRing@TaoCrypt@@UAEPAXI@Z 0044a9e0 f i taocrypt:integer.obj
 0001:000499e0       ??_EMultiplicativeGroupT@AbstractRing@TaoCrypt@@UAEPAXI@Z 0044a9e0 f i taocrypt:integer.obj
 0001:00049a00       ?SimultaneousExponentiate@MontgomeryRepresentation@TaoCrypt@@UBEXPAVInteger@2@ABV32@PBV32@I@Z 0044aa00 f i taocrypt:integer.obj
 0001:00049a10       ??0DWord@TaoCrypt@@QAE@XZ  0044aa10 f i taocrypt:integer.obj
 0001:00049a20       ??0DWord@TaoCrypt@@QAE@I@Z 0044aa20 f i taocrypt:integer.obj
 0001:00049a40       ??0DWord@TaoCrypt@@QAE@II@Z 0044aa40 f i taocrypt:integer.obj
 0001:00049a60       ?Multiply@DWord@TaoCrypt@@SA?AV12@II@Z 0044aa60 f i taocrypt:integer.obj
 0001:00049a80       ??YDWord@TaoCrypt@@QAEAAV01@I@Z 0044aa80 f i taocrypt:integer.obj
 0001:00049aa0       ??HDWord@TaoCrypt@@QAE?AV01@I@Z 0044aaa0 f i taocrypt:integer.obj
 0001:00049ac0       ??GDWord@TaoCrypt@@QAE?AV01@V01@@Z 0044aac0 f i taocrypt:integer.obj
 0001:00049ae0       ??GDWord@TaoCrypt@@QAE?AV01@I@Z 0044aae0 f i taocrypt:integer.obj
 0001:00049b00       ??7DWord@TaoCrypt@@QBE_NXZ 0044ab00 f i taocrypt:integer.obj
 0001:00049b10       ?GetLowHalf@DWord@TaoCrypt@@QBEIXZ 0044ab10 f i taocrypt:integer.obj
 0001:00049b20       ?GetHighHalf@DWord@TaoCrypt@@QBEIXZ 0044ab20 f i taocrypt:integer.obj
 0001:00049b30       ?GetHighHalfAsBorrow@DWord@TaoCrypt@@QBEIXZ 0044ab30 f i taocrypt:integer.obj
 0001:00049b40       ??KDWord@TaoCrypt@@QAEII@Z 0044ab40 f i taocrypt:integer.obj
 0001:00049b60       ??LDWord@TaoCrypt@@QAEII@Z 0044ab60 f i taocrypt:integer.obj
 0001:00049ce0       ?MultiplyRecursionLimit@Portable@TaoCrypt@@SAIXZ 0044ace0 f i taocrypt:integer.obj
 0001:00049cf0       ?MultiplyBottomRecursionLimit@Portable@TaoCrypt@@SAIXZ 0044acf0 f i taocrypt:integer.obj
 0001:00049d00       ?Square8@Portable@TaoCrypt@@SAXPAIPBI@Z 0044ad00 f i taocrypt:integer.obj
 0001:00049d10       ?SquareRecursionLimit@Portable@TaoCrypt@@SAIXZ 0044ad10 f i taocrypt:integer.obj
 0001:00049d20       ?Add@Portable@TaoCrypt@@SAIPAIPBI1I@Z 0044ad20 f   taocrypt:integer.obj
 0001:00049db0       ?Subtract@Portable@TaoCrypt@@SAIPAIPBI1I@Z 0044adb0 f   taocrypt:integer.obj
 0001:00049e50       ?Multiply2@Portable@TaoCrypt@@SAXPAIPBI1@Z 0044ae50 f   taocrypt:integer.obj
 0001:00049f60       ?Multiply2Bottom@Portable@TaoCrypt@@SAXPAIPBI1@Z 0044af60 f   taocrypt:integer.obj
 0001:00049f90       ?Multiply2Add@Portable@TaoCrypt@@SAIPAIPBI1@Z 0044af90 f   taocrypt:integer.obj
 0001:0004a1a0       ?Add@LowLevel@TaoCrypt@@SAIPAIPBI1I@Z 0044b1a0 f i taocrypt:integer.obj
 0001:0004a1b0       ?Subtract@LowLevel@TaoCrypt@@SAIPAIPBI1I@Z 0044b1b0 f i taocrypt:integer.obj
 0001:0004a1c0       ?Multiply4@LowLevel@TaoCrypt@@SAXPAIPBI1@Z 0044b1c0 f i taocrypt:integer.obj
 0001:0004a1d0       ?Multiply8@LowLevel@TaoCrypt@@SAXPAIPBI1@Z 0044b1d0 f i taocrypt:integer.obj
 0001:0004a1e0       ?Multiply8Bottom@LowLevel@TaoCrypt@@SAXPAIPBI1@Z 0044b1e0 f i taocrypt:integer.obj
 0001:0004a1f0       ?Add@PentiumOptimized@TaoCrypt@@SAIPAIPBI1I@Z 0044b1f0 f   taocrypt:integer.obj
 0001:0004a240       ?Subtract@PentiumOptimized@TaoCrypt@@SAIPAIPBI1I@Z 0044b240 f   taocrypt:integer.obj
 0001:0004a290       ?Add@P4Optimized@TaoCrypt@@SAIPAIPBI1I@Z 0044b290 f   taocrypt:integer.obj
 0001:0004a300       ?Subtract@P4Optimized@TaoCrypt@@SAIPAIPBI1I@Z 0044b300 f   taocrypt:integer.obj
 0001:0004a370       ?Multiply4@PentiumOptimized@TaoCrypt@@SAXPAIPBI1@Z 0044b370 f   taocrypt:integer.obj
 0001:0004a4a0       ?Multiply8@PentiumOptimized@TaoCrypt@@SAXPAIPBI1@Z 0044b4a0 f   taocrypt:integer.obj
 0001:0004a880       ?Multiply8Bottom@PentiumOptimized@TaoCrypt@@SAXPAIPBI1@Z 0044b880 f   taocrypt:integer.obj
 0001:0004abd0       ?Multiply4@P4Optimized@TaoCrypt@@SAXPAIPBI1@Z 0044bbd0 f   taocrypt:integer.obj
 0001:0004acc0       ?Multiply8@P4Optimized@TaoCrypt@@SAXPAIPBI1@Z 0044bcc0 f   taocrypt:integer.obj
 0001:0004b010       ?Multiply8Bottom@P4Optimized@TaoCrypt@@SAXPAIPBI1@Z 0044c010 f   taocrypt:integer.obj
 0001:0004b1c0       ?RecursiveMultiply@TaoCrypt@@YAXPAI0PBI1I@Z 0044c1c0 f   taocrypt:integer.obj
 0001:0004b470       ?RecursiveMultiplyTop@TaoCrypt@@YAXPAI0PBI11I@Z 0044c470 f   taocrypt:integer.obj
 0001:0004b7a0       ?Add@TaoCrypt@@YAIPAIPBI1I@Z 0044c7a0 f i taocrypt:integer.obj
 0001:0004b7b0       ?Subtract@TaoCrypt@@YAIPAIPBI1I@Z 0044c7b0 f i taocrypt:integer.obj
 0001:0004b7c0       ?Multiply@TaoCrypt@@YAXPAI0PBI1I@Z 0044c7c0 f i taocrypt:integer.obj
 0001:0004b7f0       ?DivideByPower2Mod@TaoCrypt@@YAXPAIPBII1I@Z 0044c7f0 f   taocrypt:integer.obj
 0001:0004b8a0       ?MultiplyByPower2Mod@TaoCrypt@@YAXPAIPBII1I@Z 0044c8a0 f   taocrypt:integer.obj
 0001:0004b950       ?MultiplyTop@TaoCrypt@@YAXPAI0PBI11I@Z 0044c950 f i taocrypt:integer.obj
 0001:0004b960       ??A?$Block@IV?$AlignedAllocator@I@TaoCrypt@@@TaoCrypt@@QAEAAII@Z 0044c960 f i taocrypt:integer.obj
 0001:0004b970       ??A?$Block@IV?$AlignedAllocator@I@TaoCrypt@@@TaoCrypt@@QBEABII@Z 0044c970 f i taocrypt:integer.obj
 0001:0004b980       ??H?$Block@IV?$AlignedAllocator@I@TaoCrypt@@@TaoCrypt@@QAEPAII@Z 0044c980 f i taocrypt:integer.obj
 0001:0004b990       ??H?$Block@IV?$AlignedAllocator@I@TaoCrypt@@@TaoCrypt@@QBEPBII@Z 0044c990 f i taocrypt:integer.obj
 0001:0004b9a0       ?size@?$Block@IV?$AlignedAllocator@I@TaoCrypt@@@TaoCrypt@@QBEIXZ 0044c9a0 f i taocrypt:integer.obj
 0001:0004b9b0       ?get_buffer@?$Block@IV?$AlignedAllocator@I@TaoCrypt@@@TaoCrypt@@QBEPAIXZ 0044c9b0 f i taocrypt:integer.obj
 0001:0004b9c0       ?begin@?$Block@IV?$AlignedAllocator@I@TaoCrypt@@@TaoCrypt@@QBEPAIXZ 0044c9c0 f i taocrypt:integer.obj
 0001:0004b9d0       ??$swap@PBI@mySTL@@YAXAAPBI0@Z 0044c9d0 f i taocrypt:integer.obj
 0001:0004b9f0       ??$swap@PAI@mySTL@@YAXAAPAI0@Z 0044c9f0 f i taocrypt:integer.obj
 0001:0004ba10       ??$max@I@TaoCrypt@@YAABIABI0@Z 0044ca10 f i taocrypt:integer.obj
 0001:0004ba30       ??$swap@W4Sign@Integer@TaoCrypt@@@mySTL@@YAXAAW4Sign@Integer@TaoCrypt@@0@Z 0044ca30 f i taocrypt:integer.obj
 0001:0004ba50       ??$swap@V?$AlignedAllocator@I@TaoCrypt@@@mySTL@@YAXAAV?$AlignedAllocator@I@TaoCrypt@@0@Z 0044ca50 f i taocrypt:integer.obj
 0001:0004ba60       ?CheckSize@?$AllocatorBase@I@TaoCrypt@@KAXI@Z 0044ca60 f i taocrypt:integer.obj
 0001:0004ba70       ??$tcArrayDelete@I@TaoCrypt@@YAXPAI@Z 0044ca70 f i taocrypt:integer.obj
 0001:0004ba80       ??$RightShift@K@?$SafeShifter@$00@TaoCrypt@@SAKKI@Z 0044ca80 f i taocrypt:integer.obj
 0001:0004ba90       ??$LeftShift@K@?$SafeShifter@$00@TaoCrypt@@SAKKI@Z 0044ca90 f i taocrypt:integer.obj
 0001:0004baa0       ??$DivideThreeWordsByTwo@IVDWord@TaoCrypt@@@TaoCrypt@@YAIPAIIIPAVDWord@0@@Z 0044caa0 f i taocrypt:integer.obj
 0001:0004bb70       ?prev@Source@TaoCrypt@@QAEEXZ 0044cb70 f i taocrypt:integer.obj
 0001:0004bb80       ??0AbstractRing@TaoCrypt@@QAE@XZ 0044cb80 f i taocrypt:integer.obj
 0001:0004bb90       ?MultiplyAndAdd@DWord@TaoCrypt@@SA?AV12@III@Z 0044cb90 f i taocrypt:integer.obj
 0001:0004bbf0       ?Multiply4@Portable@TaoCrypt@@SAXPAIPBI1@Z 0044cbf0 f   taocrypt:integer.obj
 0001:0004be30       ?Square2@Portable@TaoCrypt@@SAXPAIPBI@Z 0044ce30 f   taocrypt:integer.obj
 0001:0004bea0       ?Square4@Portable@TaoCrypt@@SAXPAIPBI@Z 0044cea0 f   taocrypt:integer.obj
 0001:0004bec0       ?Multiply8@Portable@TaoCrypt@@SAXPAIPBI1@Z 0044cec0 f   taocrypt:integer.obj
 0001:0004c7e0       ?Multiply4Bottom@Portable@TaoCrypt@@SAXPAIPBI1@Z 0044d7e0 f   taocrypt:integer.obj
 0001:0004c8d0       ?Multiply8Bottom@Portable@TaoCrypt@@SAXPAIPBI1@Z 0044d8d0 f   taocrypt:integer.obj
 0001:0004cde0       ?Square4@LowLevel@TaoCrypt@@SAXPAIPBI@Z 0044dde0 f i taocrypt:integer.obj
 0001:0004ce00       ?RecursiveSquare@TaoCrypt@@YAXPAI0PBII@Z 0044de00 f   taocrypt:integer.obj
 0001:0004cee0       ?RecursiveMultiplyBottom@TaoCrypt@@YAXPAI0PBI1I@Z 0044dee0 f   taocrypt:integer.obj
 0001:0004cfc0       ?Square@TaoCrypt@@YAXPAI0PBII@Z 0044dfc0 f i taocrypt:integer.obj
 0001:0004cfd0       ?AsymmetricMultiply@TaoCrypt@@YAXPAI0PBII1I@Z 0044dfd0 f   taocrypt:integer.obj
 0001:0004d1f0       ?AlmostInverse@TaoCrypt@@YAIPAI0PBII1I@Z 0044e1f0 f   taocrypt:integer.obj
 0001:0004d590       ?GetBit@Integer@TaoCrypt@@QBE_NI@Z 0044e590 f   taocrypt:integer.obj
 0001:0004d5c0       ?GetBits@Integer@TaoCrypt@@QBEKII@Z 0044e5c0 f   taocrypt:integer.obj
 0001:0004d610       ?GetByte@Integer@TaoCrypt@@QBEEI@Z 0044e610 f   taocrypt:integer.obj
 0001:0004d640       ?WordCount@Integer@TaoCrypt@@QBEIXZ 0044e640 f   taocrypt:integer.obj
 0001:0004d7b0       ?Modulo@Integer@TaoCrypt@@QBEII@Z 0044e7b0 f   taocrypt:integer.obj
 0001:0004d860       ?IsUnit@Integer@TaoCrypt@@QBE_NXZ 0044e860 f   taocrypt:integer.obj
 0001:0004d890       ?MultiplyBottom@TaoCrypt@@YAXPAI0PBI1I@Z 0044e890 f i taocrypt:integer.obj
 0001:0004d8a0       ?MontgomeryReduce@TaoCrypt@@YAXPAI0PBI11I@Z 0044e8a0 f   taocrypt:integer.obj
 0001:0004d920       ?RecursiveInverseModPower2@TaoCrypt@@YAXPAI0PBII@Z 0044e920 f   taocrypt:integer.obj
 0001:0004daa0       ?Multiply@MontgomeryRepresentation@TaoCrypt@@UBEABVInteger@2@ABV32@0@Z 0044eaa0 f   taocrypt:integer.obj
 0001:0004db30       ?Square@MontgomeryRepresentation@TaoCrypt@@UBEABVInteger@2@ABV32@@Z 0044eb30 f   taocrypt:integer.obj
 0001:0004dba0       ?MultiplicativeInverse@MontgomeryRepresentation@TaoCrypt@@UBEABVInteger@2@ABV32@@Z 0044eba0 f   taocrypt:integer.obj
 0001:0004dc60       ?Swap@?$Block@IV?$AlignedAllocator@I@TaoCrypt@@@TaoCrypt@@QAEXAAV12@@Z 0044ec60 f i taocrypt:integer.obj
 0001:0004dc80       ?allocate@?$AlignedAllocator@I@TaoCrypt@@QAEPAIIPBX@Z 0044ec80 f i taocrypt:integer.obj
 0001:0004dcc0       ?deallocate@?$AlignedAllocator@I@TaoCrypt@@QAEXPAXI@Z 0044ecc0 f i taocrypt:integer.obj
 0001:0004dd00       ??$SafeRightShift@$0CA@K@TaoCrypt@@YAKK@Z 0044ed00 f i taocrypt:integer.obj
 0001:0004dd10       ??$SafeLeftShift@$0CA@K@TaoCrypt@@YAKK@Z 0044ed10 f i taocrypt:integer.obj
 0001:0004dd20       ??$DivideFourWordsByTwo@IVDWord@TaoCrypt@@@TaoCrypt@@YA?AVDWord@0@PAIABV10@11@Z 0044ed20 f i taocrypt:integer.obj
 0001:0004dda0       ??$StdReallocate@IV?$AlignedAllocator@I@TaoCrypt@@@TaoCrypt@@YAPAIAAV?$AlignedAllocator@I@0@PAIII_N@Z 0044eda0 f i taocrypt:integer.obj
 0001:0004de90       ?IsEven@Integer@TaoCrypt@@QBE_NXZ 0044ee90 f i taocrypt:integer.obj
 0001:0004dec0       ?IsOdd@Integer@TaoCrypt@@QBE_NXZ 0044eec0 f i taocrypt:integer.obj
 0001:0004def0       ??LTaoCrypt@@YAIABVInteger@0@I@Z 0044eef0 f i taocrypt:integer.obj
 0001:0004df00       ??7Integer@TaoCrypt@@QBE_NXZ 0044ef00 f   taocrypt:integer.obj
 0001:0004df40       ?PositiveSubtract@TaoCrypt@@YAXAAVInteger@1@ABV21@1@Z 0044ef40 f   taocrypt:integer.obj
 0001:0004e0c0       ?PositiveCompare@Integer@TaoCrypt@@ABEHABV12@@Z 0044f0c0 f   taocrypt:integer.obj
 0001:0004e120       ?BitCount@Integer@TaoCrypt@@QBEIXZ 0044f120 f   taocrypt:integer.obj
 0001:0004e160       ?ByteCount@Integer@TaoCrypt@@QBEIXZ 0044f160 f   taocrypt:integer.obj
 0001:0004e1a0       ?IsConvertableToLong@Integer@TaoCrypt@@QBE_NXZ 0044f1a0 f   taocrypt:integer.obj
 0001:0004e210       ?ConvertToLong@Integer@TaoCrypt@@QBEJXZ 0044f210 f   taocrypt:integer.obj
 0001:0004e220       ?Swap@Integer@TaoCrypt@@QAEXAAV12@@Z 0044f220 f   taocrypt:integer.obj
 0001:0004e2b0       ?Divide@TaoCrypt@@YAXPAI00PBII1I@Z 0044f2b0 f   taocrypt:integer.obj
 0001:0004e560       ?InverseMod@Integer@TaoCrypt@@QBEII@Z 0044f560 f   taocrypt:integer.obj
 0001:0004e5d0       ?Inverse@ModularArithmetic@TaoCrypt@@UBEABVInteger@2@ABV32@@Z 0044f5d0 f   taocrypt:integer.obj
 0001:0004e670       ?reallocate@?$AlignedAllocator@I@TaoCrypt@@QAEPAIPAIII_N@Z 0044f670 f i taocrypt:integer.obj
 0001:0004e690       ?IsZero@Integer@TaoCrypt@@QBE_NXZ 0044f690 f i taocrypt:integer.obj
 0001:0004e6d0       ?NotZero@Integer@TaoCrypt@@QBE_NXZ 0044f6d0 f i taocrypt:integer.obj
 0001:0004e730       ?IsPositive@Integer@TaoCrypt@@QBE_NXZ 0044f730 f i taocrypt:integer.obj
 0001:0004e750       ?ScalarMultiply@MultiplicativeGroupT@AbstractRing@TaoCrypt@@UBE?AVInteger@3@ABV43@0@Z 0044f750 f i taocrypt:integer.obj
 0001:0004e770       ?CascadeScalarMultiply@MultiplicativeGroupT@AbstractRing@TaoCrypt@@UBE?AVInteger@3@ABV43@000@Z 0044f770 f i taocrypt:integer.obj
 0001:0004e7a0       ??1AbstractEuclideanDomain@TaoCrypt@@UAE@XZ 0044f7a0 f i taocrypt:integer.obj
 0001:0004e7d0       ??1EuclideanDomainOf@TaoCrypt@@UAE@XZ 0044f7d0 f i taocrypt:integer.obj
 0001:0004e830       ??1ModularArithmetic@TaoCrypt@@UAE@XZ 0044f830 f i taocrypt:integer.obj
 0001:0004e8b0       ?CascadeExponentiate@MontgomeryRepresentation@TaoCrypt@@UBE?AVInteger@2@ABV32@000@Z 0044f8b0 f i taocrypt:integer.obj
 0001:0004e8e0       ?Negate@Integer@TaoCrypt@@QAEXXZ 0044f8e0 f   taocrypt:integer.obj
 0001:0004e920       ?Compare@Integer@TaoCrypt@@QBEHABV12@@Z 0044f920 f   taocrypt:integer.obj
 0001:0004e960       ??1MontgomeryRepresentation@TaoCrypt@@UAE@XZ 0044f960 f i taocrypt:integer.obj
 0001:0004e9c0       ?CleanGrow@?$Block@IV?$AlignedAllocator@I@TaoCrypt@@@TaoCrypt@@QAEXI@Z 0044f9c0 f i taocrypt:integer.obj
 0001:0004ea10       ?New@?$Block@IV?$AlignedAllocator@I@TaoCrypt@@@TaoCrypt@@QAEXI@Z 0044fa10 f i taocrypt:integer.obj
 0001:0004eaa0       ?resize@?$Block@IV?$AlignedAllocator@I@TaoCrypt@@@TaoCrypt@@QAEXI@Z 0044faa0 f i taocrypt:integer.obj
 0001:0004ead0       ??_GInteger@TaoCrypt@@QAEPAXI@Z 0044fad0 f i taocrypt:integer.obj
 0001:0004eb10       ??8TaoCrypt@@YA_NABVInteger@0@0@Z 0044fb10 f i taocrypt:integer.obj
 0001:0004eb70       ??OTaoCrypt@@YA_NABVInteger@0@0@Z 0044fb70 f i taocrypt:integer.obj
 0001:0004ebd0       ??PTaoCrypt@@YA_NABVInteger@0@0@Z 0044fbd0 f i taocrypt:integer.obj
 0001:0004ec30       ??MTaoCrypt@@YA_NABVInteger@0@0@Z 0044fc30 f i taocrypt:integer.obj
 0001:0004ec90       ?SetBit@Integer@TaoCrypt@@QAEXI_N@Z 0044fc90 f   taocrypt:integer.obj
 0001:0004ed00       ?SetByte@Integer@TaoCrypt@@QAEXIE@Z 0044fd00 f   taocrypt:integer.obj
 0001:0004ede0       ??4Integer@TaoCrypt@@QAEAAV01@ABV01@@Z 0044fde0 f   taocrypt:integer.obj
 0001:0004ee50       ??_3Integer@TaoCrypt@@QAEAAV01@I@Z 0044fe50 f   taocrypt:integer.obj
 0001:0004ef80       ?PositiveAdd@TaoCrypt@@YAXAAVInteger@1@ABV21@1@Z 0044ff80 f   taocrypt:integer.obj
 0001:0004f0e0       ?CleanNew@?$Block@IV?$AlignedAllocator@I@TaoCrypt@@@TaoCrypt@@QAEXI@Z 004500e0 f i taocrypt:integer.obj
 0001:0004f110       ??$tcDelete@VInteger@TaoCrypt@@@TaoCrypt@@YAXPAVInteger@0@@Z 00450110 f i taocrypt:integer.obj
 0001:0004f160       ?Accumulate@MultiplicativeGroupT@AbstractRing@TaoCrypt@@UBEAAVInteger@3@AAV43@ABV43@@Z 00450160 f i taocrypt:integer.obj
 0001:0004f180       ?Reduce@MultiplicativeGroupT@AbstractRing@TaoCrypt@@UBEAAVInteger@3@AAV43@ABV43@@Z 00450180 f i taocrypt:integer.obj
 0001:0004f1a0       ?Decode@Integer@TaoCrypt@@QAEXAAVSource@2@@Z 004501a0 f   taocrypt:integer.obj
 0001:0004f260       ?Decode@Integer@TaoCrypt@@QAEXPBEIW4Signedness@12@@Z 00450260 f   taocrypt:integer.obj
 0001:0004f3f0       ?CleanUp@TaoCrypt@@YAXXZ   004503f0 f   taocrypt:integer.obj
 0001:0004f480       ?Randomize@Integer@TaoCrypt@@QAEXAAVRandomNumberGenerator@2@I@Z 00450480 f   taocrypt:integer.obj
 0001:0004f530       ??YInteger@TaoCrypt@@QAEAAV01@ABV01@@Z 00450530 f   taocrypt:integer.obj
 0001:0004f5d0       ??ZInteger@TaoCrypt@@QAEAAV01@ABV01@@Z 004505d0 f   taocrypt:integer.obj
 0001:0004f670       ?Accumulate@ModularArithmetic@TaoCrypt@@UBEAAVInteger@2@AAV32@ABV32@@Z 00450670 f   taocrypt:integer.obj
 0001:0004f700       ?Reduce@ModularArithmetic@TaoCrypt@@UBEAAVInteger@2@AAV32@ABV32@@Z 00450700 f   taocrypt:integer.obj
 0001:0004f770       ??0?$Block@IV?$AlignedAllocator@I@TaoCrypt@@@TaoCrypt@@QAE@I@Z 00450770 f i taocrypt:integer.obj
 0001:0004f7d0       ?PositiveMultiply@TaoCrypt@@YAXAAVInteger@1@ABV21@1@Z 004507d0 f   taocrypt:integer.obj
 0001:0004f990       ?Multiply@TaoCrypt@@YAXAAVInteger@1@ABV21@1@Z 00450990 f   taocrypt:integer.obj
 0001:0004f9d0       ??0Integer@TaoCrypt@@QAE@XZ 004509d0 f   taocrypt:integer.obj
 0001:0004fa20       ??0Integer@TaoCrypt@@QAE@ABV01@@Z 00450a20 f   taocrypt:integer.obj
 0001:0004fac0       ??0Integer@TaoCrypt@@QAE@J@Z 00450ac0 f   taocrypt:integer.obj
 0001:0004fb40       ??0Integer@TaoCrypt@@QAE@W4Sign@01@II@Z 00450b40 f   taocrypt:integer.obj
 0001:0004fba0       ??0Integer@TaoCrypt@@AAE@II@Z 00450ba0 f   taocrypt:integer.obj
 0001:0004fc20       ??0Integer@TaoCrypt@@QAE@PBEIW4Signedness@01@@Z 00450c20 f   taocrypt:integer.obj
 0001:0004fc70       ??0Integer@TaoCrypt@@QAE@AAVSource@1@@Z 00450c70 f   taocrypt:integer.obj
 0001:0004fcd0       ?Zero@Integer@TaoCrypt@@SAABV12@XZ 00450cd0 f   taocrypt:integer.obj
 0001:0004fd00       ?One@Integer@TaoCrypt@@SAABV12@XZ 00450d00 f   taocrypt:integer.obj
 0001:0004fd60       ?Power2@Integer@TaoCrypt@@SA?AV12@I@Z 00450d60 f   taocrypt:integer.obj
 0001:0004fdf0       ??GInteger@TaoCrypt@@QBE?AV01@XZ 00450df0 f   taocrypt:integer.obj
 0001:0004fe90       ??EInteger@TaoCrypt@@QAEAAV01@XZ 00450e90 f   taocrypt:integer.obj
 0001:0004ff60       ??FInteger@TaoCrypt@@QAEAAV01@XZ 00450f60 f   taocrypt:integer.obj
 0001:00050030       ??_2Integer@TaoCrypt@@QAEAAV01@I@Z 00451030 f   taocrypt:integer.obj
 0001:000500f0       ?MinEncodedSize@Integer@TaoCrypt@@QBEIW4Signedness@12@@Z 004510f0 f   taocrypt:integer.obj
 0001:00050250       ?Plus@Integer@TaoCrypt@@QBE?AV12@ABV12@@Z 00451250 f   taocrypt:integer.obj
 0001:00050320       ?Minus@Integer@TaoCrypt@@QBE?AV12@ABV12@@Z 00451320 f   taocrypt:integer.obj
 0001:000503f0       ?Times@Integer@TaoCrypt@@QBE?AV12@ABV12@@Z 004513f0 f   taocrypt:integer.obj
 0001:000504c0       ?PositiveDivide@TaoCrypt@@YAXAAVInteger@1@0ABV21@1@Z 004514c0 f   taocrypt:integer.obj
 0001:00050660       ?AbsoluteValue@Integer@TaoCrypt@@QBE?AV12@XZ 00451660 f   taocrypt:integer.obj
 0001:000506d0       ?MultiplicativeInverse@Integer@TaoCrypt@@QBE?AV12@XZ 004516d0 f   taocrypt:integer.obj
 0001:00050750       ?ConvertOut@MontgomeryRepresentation@TaoCrypt@@UBE?AVInteger@2@ABV32@@Z 00451750 f   taocrypt:integer.obj
 0001:000507d0       ??5Integer@TaoCrypt@@QBE?AV01@I@Z 004517d0 f i taocrypt:integer.obj
 0001:00050840       ??6Integer@TaoCrypt@@QBE?AV01@I@Z 00451840 f i taocrypt:integer.obj
 0001:000508b0       ?Squared@Integer@TaoCrypt@@QBE?AV12@XZ 004518b0 f i taocrypt:integer.obj
 0001:000508d0       ??HTaoCrypt@@YA?AVInteger@0@ABV10@0@Z 004518d0 f i taocrypt:integer.obj
 0001:000508f0       ??GTaoCrypt@@YA?AVInteger@0@ABV10@0@Z 004518f0 f i taocrypt:integer.obj
 0001:00050910       ??DTaoCrypt@@YA?AVInteger@0@ABV10@0@Z 00451910 f i taocrypt:integer.obj
 0001:00050930       ??0AbstractEuclideanDomain@TaoCrypt@@QAE@XZ 00451930 f i taocrypt:integer.obj
 0001:00050950       ??0ModularArithmetic@TaoCrypt@@QAE@ABVInteger@1@@Z 00451950 f i taocrypt:integer.obj
 0001:00050990       ?MultiplicativeGroup@AbstractRing@TaoCrypt@@UBEABVAbstractGroup@2@XZ 00451990 f i taocrypt:integer.obj
 0001:000509a0       ?IsMontgomeryRepresentation@ModularArithmetic@TaoCrypt@@UBE_NXZ 004519a0 f i taocrypt:integer.obj
 0001:000509b0       ?Double@ModularArithmetic@TaoCrypt@@UBEABVInteger@2@ABV32@@Z 004519b0 f i taocrypt:integer.obj
 0001:000509c0       ?Divide@ModularArithmetic@TaoCrypt@@UBEABVInteger@2@ABV32@0@Z 004519c0 f i taocrypt:integer.obj
 0001:000509e0       ?Equal@ModularArithmetic@TaoCrypt@@UBE_NABVInteger@2@0@Z 004519e0 f i taocrypt:integer.obj
 0001:00050a00       ??_EModularArithmetic@TaoCrypt@@UAEPAXI@Z 00451a00 f i taocrypt:integer.obj
 0001:00050a00       ??_GModularArithmetic@TaoCrypt@@UAEPAXI@Z 00451a00 f i taocrypt:integer.obj
 0001:00050a20       ?ConvertOut@ModularArithmetic@TaoCrypt@@UBE?AVInteger@2@ABV32@@Z 00451a20 f i taocrypt:integer.obj
 0001:00050a40       ?Identity@ModularArithmetic@TaoCrypt@@UBEABVInteger@2@XZ 00451a40 f i taocrypt:integer.obj
 0001:00050a70       ?MultiplicativeIdentity@ModularArithmetic@TaoCrypt@@UBEABVInteger@2@XZ 00451a70 f i taocrypt:integer.obj
 0001:00050a80       ?Encode@Integer@TaoCrypt@@QBEIPAEIW4Signedness@12@@Z 00451a80 f   taocrypt:integer.obj
 0001:00050bc0       ?Randomize@Integer@TaoCrypt@@QAEXAAVRandomNumberGenerator@2@ABV12@1@Z 00451bc0 f   taocrypt:integer.obj
 0001:00050dc0       ?Divide@Integer@TaoCrypt@@SAXAAV12@0ABV12@1@Z 00451dc0 f   taocrypt:integer.obj
 0001:00050e90       ?DivideByPowerOf2@Integer@TaoCrypt@@SAXAAV12@0ABV12@I@Z 00451e90 f   taocrypt:integer.obj
 0001:00051060       ?DividedBy@Integer@TaoCrypt@@QBE?AV12@ABV12@@Z 00452060 f   taocrypt:integer.obj
 0001:00051170       ?Modulo@Integer@TaoCrypt@@QBE?AV12@ABV12@@Z 00452170 f   taocrypt:integer.obj
 0001:00051280       ?Divide@Integer@TaoCrypt@@SAXAAIAAV12@ABV12@I@Z 00452280 f   taocrypt:integer.obj
 0001:000513e0       ?DividedBy@Integer@TaoCrypt@@QBE?AV12@I@Z 004523e0 f   taocrypt:integer.obj
 0001:00051490       ?a_exp_b_mod_c@TaoCrypt@@YA?AVInteger@1@ABV21@00@Z 00452490 f   taocrypt:integer.obj
 0001:00051500       ?Half@ModularArithmetic@TaoCrypt@@QBEABVInteger@2@ABV32@@Z 00452500 f   taocrypt:integer.obj
 0001:00051630       ?Add@ModularArithmetic@TaoCrypt@@UBEABVInteger@2@ABV32@0@Z 00452630 f   taocrypt:integer.obj
 0001:00051710       ?Subtract@ModularArithmetic@TaoCrypt@@UBEABVInteger@2@ABV32@0@Z 00452710 f   taocrypt:integer.obj
 0001:000517e0       ??0MontgomeryRepresentation@TaoCrypt@@QAE@ABVInteger@1@@Z 004527e0 f   taocrypt:integer.obj
 0001:00051860       ?IsMontgomeryRepresentation@MontgomeryRepresentation@TaoCrypt@@UBE_NXZ 00452860 f i taocrypt:integer.obj
 0001:00051870       ??_EMontgomeryRepresentation@TaoCrypt@@UAEPAXI@Z 00452870 f i taocrypt:integer.obj
 0001:00051870       ??_GMontgomeryRepresentation@TaoCrypt@@UAEPAXI@Z 00452870 f i taocrypt:integer.obj
 0001:00051890       ??KTaoCrypt@@YA?AVInteger@0@ABV10@0@Z 00452890 f i taocrypt:integer.obj
 0001:000518b0       ??LTaoCrypt@@YA?AVInteger@0@ABV10@0@Z 004528b0 f i taocrypt:integer.obj
 0001:000518d0       ?ModularExponentiation@TaoCrypt@@YA?AVInteger@1@ABV21@00@Z 004528d0 f i taocrypt:integer.obj
 0001:00051900       ??0EuclideanDomainOf@TaoCrypt@@QAE@XZ 00452900 f i taocrypt:integer.obj
 0001:00051930       ?IsUnit@EuclideanDomainOf@TaoCrypt@@UBE_NABVInteger@2@@Z 00452930 f i taocrypt:integer.obj
 0001:00051970       ?Equal@EuclideanDomainOf@TaoCrypt@@UBE_NABVInteger@2@0@Z 00452970 f i taocrypt:integer.obj
 0001:00051990       ??_EEuclideanDomainOf@TaoCrypt@@UAEPAXI@Z 00452990 f i taocrypt:integer.obj
 0001:00051990       ??_GEuclideanDomainOf@TaoCrypt@@UAEPAXI@Z 00452990 f i taocrypt:integer.obj
 0001:000519b0       ?Accumulate@EuclideanDomainOf@TaoCrypt@@UBEAAVInteger@2@AAV32@ABV32@@Z 004529b0 f i taocrypt:integer.obj
 0001:000519d0       ?Reduce@EuclideanDomainOf@TaoCrypt@@UBEAAVInteger@2@AAV32@ABV32@@Z 004529d0 f i taocrypt:integer.obj
 0001:000519f0       ?Identity@EuclideanDomainOf@TaoCrypt@@UBEABVInteger@2@XZ 004529f0 f i taocrypt:integer.obj
 0001:00051a20       ?Add@EuclideanDomainOf@TaoCrypt@@UBEABVInteger@2@ABV32@0@Z 00452a20 f i taocrypt:integer.obj
 0001:00051a90       ?Inverse@EuclideanDomainOf@TaoCrypt@@UBEABVInteger@2@ABV32@@Z 00452a90 f i taocrypt:integer.obj
 0001:00051af0       ?Subtract@EuclideanDomainOf@TaoCrypt@@UBEABVInteger@2@ABV32@0@Z 00452af0 f i taocrypt:integer.obj
 0001:00051b60       ?Double@EuclideanDomainOf@TaoCrypt@@UBEABVInteger@2@ABV32@@Z 00452b60 f i taocrypt:integer.obj
 0001:00051bd0       ?MultiplicativeIdentity@EuclideanDomainOf@TaoCrypt@@UBEABVInteger@2@XZ 00452bd0 f i taocrypt:integer.obj
 0001:00051be0       ?Multiply@EuclideanDomainOf@TaoCrypt@@UBEABVInteger@2@ABV32@0@Z 00452be0 f i taocrypt:integer.obj
 0001:00051c50       ?Square@EuclideanDomainOf@TaoCrypt@@UBEABVInteger@2@ABV32@@Z 00452c50 f i taocrypt:integer.obj
 0001:00051cc0       ?MultiplicativeInverse@EuclideanDomainOf@TaoCrypt@@UBEABVInteger@2@ABV32@@Z 00452cc0 f i taocrypt:integer.obj
 0001:00051d20       ?Divide@EuclideanDomainOf@TaoCrypt@@UBEABVInteger@2@ABV32@0@Z 00452d20 f i taocrypt:integer.obj
 0001:00051d90       ?Mod@EuclideanDomainOf@TaoCrypt@@UBEABVInteger@2@ABV32@0@Z 00452d90 f i taocrypt:integer.obj
 0001:00051e00       ?DivisionAlgorithm@EuclideanDomainOf@TaoCrypt@@UBEXAAVInteger@2@0ABV32@1@Z 00452e00 f i taocrypt:integer.obj
 0001:00051e20       ?ConvertIn@ModularArithmetic@TaoCrypt@@UBE?AVInteger@2@ABV32@@Z 00452e20 f i taocrypt:integer.obj
 0001:00051e40       ?Multiply@ModularArithmetic@TaoCrypt@@UBEABVInteger@2@ABV32@0@Z 00452e40 f i taocrypt:integer.obj
 0001:00051ee0       ?Square@ModularArithmetic@TaoCrypt@@UBEABVInteger@2@ABV32@@Z 00452ee0 f i taocrypt:integer.obj
 0001:00051f80       ?ConvertIn@MontgomeryRepresentation@TaoCrypt@@UBE?AVInteger@2@ABV32@@Z 00452f80 f i taocrypt:integer.obj
 0001:00051ff0       ?MultiplicativeIdentity@MontgomeryRepresentation@TaoCrypt@@UBEABVInteger@2@XZ 00452ff0 f i taocrypt:integer.obj
 0001:00052090       ??0Integer@TaoCrypt@@QAE@AAVRandomNumberGenerator@1@ABV01@1@Z 00453090 f   taocrypt:integer.obj
 0001:000520e0       ?SquareRoot@Integer@TaoCrypt@@QBE?AV12@XZ 004530e0 f   taocrypt:integer.obj
 0001:00052310       ?IsSquare@Integer@TaoCrypt@@QBE_NXZ 00453310 f   taocrypt:integer.obj
 0001:000523a0       ?a_times_b_mod_c@TaoCrypt@@YA?AVInteger@1@ABV21@00@Z 004533a0 f   taocrypt:integer.obj
 0001:00052410       ?Gcd@Integer@TaoCrypt@@SA?AV12@ABV12@0@Z 00453410 f   taocrypt:integer.obj
 0001:00052470       ?InverseMod@Integer@TaoCrypt@@QBE?AV12@ABV12@@Z 00453470 f   taocrypt:integer.obj
 0001:000526f0       ?CascadeExponentiate@ModularArithmetic@TaoCrypt@@UBE?AVInteger@2@ABV32@000@Z 004536f0 f   taocrypt:integer.obj
 0001:00052860       ?SimultaneousExponentiate@ModularArithmetic@TaoCrypt@@UBEXPAVInteger@2@ABV32@PBV32@I@Z 00453860 f   taocrypt:integer.obj
 0001:000529d0       ?CRT@TaoCrypt@@YA?AVInteger@1@ABV21@0000@Z 004539d0 f   taocrypt:integer.obj
 0001:00052ae0       ?IsUnit@ModularArithmetic@TaoCrypt@@UBE_NABVInteger@2@@Z 00453ae0 f i taocrypt:integer.obj
 0001:00052b70       ?MultiplicativeInverse@ModularArithmetic@TaoCrypt@@UBEABVInteger@2@ABV32@@Z 00453b70 f i taocrypt:integer.obj
 0001:00052be0       ?ModularRoot@TaoCrypt@@YA?AVInteger@1@ABV21@00000@Z 00453be0 f   taocrypt:integer.obj
 0001:00052d10       ??1HASH64withTransform@TaoCrypt@@UAE@XZ 00453d10 f i taocrypt:sha.obj
 0001:00052d20       ??1SHA256@TaoCrypt@@UAE@XZ 00453d20 f i taocrypt:sha.obj
 0001:00052d30       ??1SHA224@TaoCrypt@@UAE@XZ 00453d30 f i taocrypt:sha.obj
 0001:00052d40       ??1SHA512@TaoCrypt@@UAE@XZ 00453d40 f i taocrypt:sha.obj
 0001:00052d50       ??1SHA384@TaoCrypt@@UAE@XZ 00453d50 f i taocrypt:sha.obj
 0001:00052d60       ?Init@SHA@TaoCrypt@@UAEXXZ 00453d60 f   taocrypt:sha.obj
 0001:00052d90       ?Init@SHA256@TaoCrypt@@UAEXXZ 00453d90 f   taocrypt:sha.obj
 0001:00052de0       ?Init@SHA224@TaoCrypt@@UAEXXZ 00453de0 f   taocrypt:sha.obj
 0001:00052e30       ?Init@SHA512@TaoCrypt@@UAEXXZ 00453e30 f   taocrypt:sha.obj
 0001:00052eb0       ?Init@SHA384@TaoCrypt@@UAEXXZ 00453eb0 f   taocrypt:sha.obj
 0001:00052f30       ??0SHA@TaoCrypt@@QAE@ABV01@@Z 00453f30 f   taocrypt:sha.obj
 0001:00052fa0       ??0SHA256@TaoCrypt@@QAE@ABV01@@Z 00453fa0 f   taocrypt:sha.obj
 0001:00052ff0       ?getByteOrder@SHA256@TaoCrypt@@UBE?AW4ByteOrder@2@XZ 00453ff0 f i taocrypt:sha.obj
 0001:00053000       ?getBlockSize@SHA256@TaoCrypt@@UBEIXZ 00454000 f i taocrypt:sha.obj
 0001:00053010       ?getDigestSize@SHA256@TaoCrypt@@UBEIXZ 00454010 f i taocrypt:sha.obj
 0001:00053020       ?getPadSize@SHA256@TaoCrypt@@UBEIXZ 00454020 f i taocrypt:sha.obj
 0001:00053030       ??0SHA224@TaoCrypt@@QAE@ABV01@@Z 00454030 f   taocrypt:sha.obj
 0001:00053080       ?getByteOrder@SHA224@TaoCrypt@@UBE?AW4ByteOrder@2@XZ 00454080 f i taocrypt:sha.obj
 0001:00053090       ?getBlockSize@SHA224@TaoCrypt@@UBEIXZ 00454090 f i taocrypt:sha.obj
 0001:000530a0       ?getDigestSize@SHA224@TaoCrypt@@UBEIXZ 004540a0 f i taocrypt:sha.obj
 0001:000530b0       ?getPadSize@SHA224@TaoCrypt@@UBEIXZ 004540b0 f i taocrypt:sha.obj
 0001:000530c0       ??0SHA512@TaoCrypt@@QAE@ABV01@@Z 004540c0 f   taocrypt:sha.obj
 0001:00053110       ?getByteOrder@SHA512@TaoCrypt@@UBE?AW4ByteOrder@2@XZ 00454110 f i taocrypt:sha.obj
 0001:00053120       ?getBlockSize@SHA512@TaoCrypt@@UBEIXZ 00454120 f i taocrypt:sha.obj
 0001:00053130       ?getDigestSize@SHA512@TaoCrypt@@UBEIXZ 00454130 f i taocrypt:sha.obj
 0001:00053140       ?getPadSize@SHA512@TaoCrypt@@UBEIXZ 00454140 f i taocrypt:sha.obj
 0001:00053150       ??0SHA384@TaoCrypt@@QAE@ABV01@@Z 00454150 f   taocrypt:sha.obj
 0001:000531a0       ?getByteOrder@SHA384@TaoCrypt@@UBE?AW4ByteOrder@2@XZ 004541a0 f i taocrypt:sha.obj
 0001:000531b0       ?getBlockSize@SHA384@TaoCrypt@@UBEIXZ 004541b0 f i taocrypt:sha.obj
 0001:000531c0       ?getDigestSize@SHA384@TaoCrypt@@UBEIXZ 004541c0 f i taocrypt:sha.obj
 0001:000531d0       ?getPadSize@SHA384@TaoCrypt@@UBEIXZ 004541d0 f i taocrypt:sha.obj
 0001:000531e0       ?Transform@SHA@TaoCrypt@@EAEXXZ 004541e0 f   taocrypt:sha.obj
 0001:000551a0       ?Transform@SHA256@TaoCrypt@@EAEXXZ 004561a0 f   taocrypt:sha.obj
 0001:000551c0       ?Transform@SHA224@TaoCrypt@@EAEXXZ 004561c0 f   taocrypt:sha.obj
 0001:000551e0       ?AsmTransform@SHA@TaoCrypt@@AAEXPBEI@Z 004561e0 f   taocrypt:sha.obj
 0001:00056180       ??$rotrFixed@_K@TaoCrypt@@YA_K_KI@Z 00457180 f i taocrypt:sha.obj
 0001:000561d0       ??_GSHA256@TaoCrypt@@UAEPAXI@Z 004571d0 f i taocrypt:sha.obj
 0001:000561d0       ??_ESHA256@TaoCrypt@@UAEPAXI@Z 004571d0 f i taocrypt:sha.obj
 0001:000561f0       ??_ESHA224@TaoCrypt@@UAEPAXI@Z 004571f0 f i taocrypt:sha.obj
 0001:000561f0       ??_GSHA224@TaoCrypt@@UAEPAXI@Z 004571f0 f i taocrypt:sha.obj
 0001:00056210       ??_GSHA512@TaoCrypt@@UAEPAXI@Z 00457210 f i taocrypt:sha.obj
 0001:00056210       ??_ESHA512@TaoCrypt@@UAEPAXI@Z 00457210 f i taocrypt:sha.obj
 0001:00056230       ??_ESHA384@TaoCrypt@@UAEPAXI@Z 00457230 f i taocrypt:sha.obj
 0001:00056230       ??_GSHA384@TaoCrypt@@UAEPAXI@Z 00457230 f i taocrypt:sha.obj
 0001:00056250       ?Swap@SHA@TaoCrypt@@QAEXAAV12@@Z 00457250 f   taocrypt:sha.obj
 0001:000562b0       ?Swap@SHA256@TaoCrypt@@QAEXAAV12@@Z 004572b0 f   taocrypt:sha.obj
 0001:00056300       ?Swap@SHA224@TaoCrypt@@QAEXAAV12@@Z 00457300 f   taocrypt:sha.obj
 0001:00056350       ?Swap@SHA512@TaoCrypt@@QAEXAAV12@@Z 00457350 f   taocrypt:sha.obj
 0001:000563a0       ?Swap@SHA384@TaoCrypt@@QAEXAAV12@@Z 004573a0 f   taocrypt:sha.obj
 0001:000563f0       ?Update@SHA@TaoCrypt@@UAEXPBEI@Z 004573f0 f   taocrypt:sha.obj
 0001:00058a90       ?Transform@SHA512@TaoCrypt@@EAEXXZ 00459a90 f   taocrypt:sha.obj
 0001:00058ab0       ?Transform@SHA384@TaoCrypt@@EAEXXZ 00459ab0 f   taocrypt:sha.obj
 0001:00058ad0       ??4SHA@TaoCrypt@@QAEAAV01@ABV01@@Z 00459ad0 f   taocrypt:sha.obj
 0001:00058b00       ??4SHA256@TaoCrypt@@QAEAAV01@ABV01@@Z 00459b00 f   taocrypt:sha.obj
 0001:00058b90       ??4SHA224@TaoCrypt@@QAEAAV01@ABV01@@Z 00459b90 f   taocrypt:sha.obj
 0001:00058c20       ??4SHA512@TaoCrypt@@QAEAAV01@ABV01@@Z 00459c20 f   taocrypt:sha.obj
 0001:00058cc0       ??4SHA384@TaoCrypt@@QAEAAV01@ABV01@@Z 00459cc0 f   taocrypt:sha.obj
 0001:00058d60       ?Init@RIPEMD160@TaoCrypt@@UAEXXZ 00459d60 f   taocrypt:ripemd.obj
 0001:00058d90       ??0RIPEMD160@TaoCrypt@@QAE@ABV01@@Z 00459d90 f   taocrypt:ripemd.obj
 0001:00058e00       ?Transform@RIPEMD160@TaoCrypt@@EAEXXZ 00459e00 f   taocrypt:ripemd.obj
 0001:0005aa60       ?AsmTransform@RIPEMD160@TaoCrypt@@AAEXPBEI@Z 0045ba60 f   taocrypt:ripemd.obj
 0001:0005ba80       ?Swap@RIPEMD160@TaoCrypt@@QAEXAAV12@@Z 0045ca80 f   taocrypt:ripemd.obj
 0001:0005bae0       ?Update@RIPEMD160@TaoCrypt@@UAEXPBEI@Z 0045cae0 f   taocrypt:ripemd.obj
 0001:0005bbc0       ??4RIPEMD160@TaoCrypt@@QAEAAV01@ABV01@@Z 0045cbc0 f   taocrypt:ripemd.obj
 0001:0005bbf0       ?ReverseDir@TaoCrypt@@YA?AW4CipherDir@1@W421@@Z 0045cbf0 f i taocrypt:des.obj
 0001:0005bc00       ?UnalignedGetWordNonTemplate@TaoCrypt@@YAIW4ByteOrder@1@PBEPAI@Z 0045cc00 f i taocrypt:des.obj
 0001:0005bc40       ?UnalignedPutWord@TaoCrypt@@YAXW4ByteOrder@1@PAEIPBE@Z 0045cc40 f i taocrypt:des.obj
 0001:0005bcb0       ?ECB_Process@Mode_BASE@TaoCrypt@@IAEXPAEPBEI@Z 0045ccb0 f i taocrypt:des.obj
 0001:0005bdf0       ?RawProcessBlock@BasicDES@TaoCrypt@@QBEXAAI0@Z 0045cdf0 f   taocrypt:des.obj
 0001:0005bf30       ?AsmProcess@DES_EDE3@TaoCrypt@@ABEXPBEPAEPAX@Z 0045cf30 f   taocrypt:des.obj
 0001:0005d560       ??0?$PutBlock@IU?$EnumToType@W4ByteOrder@TaoCrypt@@$00@TaoCrypt@@$00@TaoCrypt@@QAE@PBXPAX@Z 0045e560 f i taocrypt:des.obj
 0001:0005d580       ??0?$GetBlock@IU?$EnumToType@W4ByteOrder@TaoCrypt@@$00@TaoCrypt@@$00@TaoCrypt@@QAE@PBX@Z 0045e580 f i taocrypt:des.obj
 0001:0005d590       ?ToEnum@?$EnumToType@W4ByteOrder@TaoCrypt@@$00@TaoCrypt@@SA?AW4ByteOrder@2@XZ 0045e590 f i taocrypt:des.obj
 0001:0005d5a0       ??$UnalignedGetWord@I@TaoCrypt@@YAIW4ByteOrder@0@PBEPAI@Z 0045e5a0 f i taocrypt:des.obj
 0001:0005d5e0       ?SetKey@BasicDES@TaoCrypt@@QAEXPBEIW4CipherDir@2@@Z 0045e5e0 f   taocrypt:des.obj
 0001:0005d9c0       ?SetKey@DES_EDE2@TaoCrypt@@QAEXPBEIW4CipherDir@2@@Z 0045e9c0 f   taocrypt:des.obj
 0001:0005da00       ?SetKey@DES_EDE3@TaoCrypt@@QAEXPBEIW4CipherDir@2@@Z 0045ea00 f   taocrypt:des.obj
 0001:0005da60       ?Process@DES_EDE3@TaoCrypt@@UAEXPAEPBEI@Z 0045ea60 f   taocrypt:des.obj
 0001:0005dbb0       ?Get@?$BlockGetAndPut@IU?$EnumToType@W4ByteOrder@TaoCrypt@@$00@TaoCrypt@@$00@TaoCrypt@@SA?AV?$GetBlock@IU?$EnumToType@W4ByteOrder@TaoCrypt@@$00@TaoCrypt@@$00@2@PBX@Z 0045ebb0 f i taocrypt:des.obj
 0001:0005dbc0       ??$ByteReverseIf@I@TaoCrypt@@YAIIW4ByteOrder@0@@Z 0045ebc0 f i taocrypt:des.obj
 0001:0005dbf0       ??$GetWord@I@TaoCrypt@@YAI_NW4ByteOrder@0@PBE@Z 0045ebf0 f i taocrypt:des.obj
 0001:0005dc60       ??$PutWord@I@TaoCrypt@@YAX_NW4ByteOrder@0@PAEIPBE@Z 0045ec60 f i taocrypt:des.obj
 0001:0005dd00       ??$?RI@?$GetBlock@IU?$EnumToType@W4ByteOrder@TaoCrypt@@$00@TaoCrypt@@$00@TaoCrypt@@QAEAAV01@AAI@Z 0045ed00 f i taocrypt:des.obj
 0001:0005dd30       ??$?RI@?$PutBlock@IU?$EnumToType@W4ByteOrder@TaoCrypt@@$00@TaoCrypt@@$00@TaoCrypt@@QAEAAV01@I@Z 0045ed30 f i taocrypt:des.obj
 0001:0005dd90       ?ProcessAndXorBlock@DES@TaoCrypt@@EBEXPBE0PAE@Z 0045ed90 f   taocrypt:des.obj
 0001:0005de30       ?ProcessAndXorBlock@DES_EDE2@TaoCrypt@@EBEXPBE0PAE@Z 0045ee30 f   taocrypt:des.obj
 0001:0005df00       ?ProcessAndXorBlock@DES_EDE3@TaoCrypt@@EBEXPBE0PAE@Z 0045ef00 f   taocrypt:des.obj
 0001:0005dfd0       ?AsmEncrypt@AES@TaoCrypt@@ABEXPBEPAEPAX@Z 0045efd0 f   taocrypt:aes.obj
 0001:0005e290       ?AsmDecrypt@AES@TaoCrypt@@ABEXPBEPAEPAX@Z 0045f290 f   taocrypt:aes.obj
 0001:0005e550       ??$IsPowerOf2@I@TaoCrypt@@YA_NI@Z 0045f550 f i taocrypt:aes.obj
 0001:0005e570       ??$ModPowerOf2@II@TaoCrypt@@YAIII@Z 0045f570 f i taocrypt:aes.obj
 0001:0005e580       ??$RoundDownToMultipleOf@I@TaoCrypt@@YAIII@Z 0045f580 f i taocrypt:aes.obj
 0001:0005e5b0       ?Process@AES@TaoCrypt@@UAEXPAEPBEI@Z 0045f5b0 f   taocrypt:aes.obj
 0001:0005e780       ??$RoundUpToMultipleOf@I@TaoCrypt@@YAIII@Z 0045f780 f i taocrypt:aes.obj
 0001:0005e7b0       ??$GetUserKey@I@TaoCrypt@@YAXW4ByteOrder@0@PAIIPBEI@Z 0045f7b0 f i taocrypt:aes.obj
 0001:0005e810       ?SetKey@AES@TaoCrypt@@QAEXPBEIW4CipherDir@2@@Z 0045f810 f   taocrypt:aes.obj
 0001:0005ee40       ?encrypt@AES@TaoCrypt@@ABEXPBE0PAE@Z 0045fe40 f   taocrypt:aes.obj
 0001:0005f3b0       ?decrypt@AES@TaoCrypt@@ABEXPBE0PAE@Z 004603b0 f   taocrypt:aes.obj
 0001:0005f970       ?ProcessAndXorBlock@AES@TaoCrypt@@EBEXPBE0PAE@Z 00460970 f   taocrypt:aes.obj
 0001:0005f990       ?GenerateBlock@RandomNumberGenerator@TaoCrypt@@QAEXPAEI@Z 00460990 f   taocrypt:random.obj
 0001:0005f9d0       ?GenerateByte@RandomNumberGenerator@TaoCrypt@@QAEEXZ 004609d0 f   taocrypt:random.obj
 0001:0005f9f0       ??0OS_Seed@TaoCrypt@@QAE@XZ 004609f0 f   taocrypt:random.obj
 0001:0005fa20       ??1OS_Seed@TaoCrypt@@QAE@XZ 00460a20 f   taocrypt:random.obj
 0001:0005fa30       ?GenerateSeed@OS_Seed@TaoCrypt@@QAEXPAEI@Z 00460a30 f   taocrypt:random.obj
 0001:0005fa60       ??0RandomNumberGenerator@TaoCrypt@@QAE@XZ 00460a60 f   taocrypt:random.obj
 0001:0005fb10       ?SetKey@ARC4@TaoCrypt@@QAEXPBEI@Z 00460b10 f   taocrypt:arc4.obj
 0001:0005fc20       ?MakeByte@?A0x18178eb4@TaoCrypt@@YAIAAI0PAE@Z 00460c20 f i taocrypt:arc4.obj
 0001:0005fc70       ?AsmProcess@ARC4@TaoCrypt@@AAEXPAEPBEI@Z 00460c70 f   taocrypt:arc4.obj
 0001:0005fd00       ?Process@ARC4@TaoCrypt@@QAEXPAEPBEI@Z 00460d00 f   taocrypt:arc4.obj
 0001:0005fe20       ??0BER_Decoder@TaoCrypt@@QAE@AAVSource@1@@Z 00460e20 f i taocrypt:dsa.obj
 0001:0005fe40       ??1BER_Decoder@TaoCrypt@@UAE@XZ 00460e40 f i taocrypt:dsa.obj
 0001:0005fe50       ??_GBER_Decoder@TaoCrypt@@UAEPAXI@Z 00460e50 f i taocrypt:dsa.obj
 0001:0005fe50       ??_EBER_Decoder@TaoCrypt@@UAEPAXI@Z 00460e50 f i taocrypt:dsa.obj
 0001:0005fe70       ??0DSA_Private_Decoder@TaoCrypt@@QAE@AAVSource@1@@Z 00460e70 f i taocrypt:dsa.obj
 0001:0005fe90       ??1DSA_Private_Decoder@TaoCrypt@@UAE@XZ 00460e90 f i taocrypt:dsa.obj
 0001:0005fea0       ??0DSA_Public_Decoder@TaoCrypt@@QAE@AAVSource@1@@Z 00460ea0 f i taocrypt:dsa.obj
 0001:0005fec0       ??1DSA_Public_Decoder@TaoCrypt@@UAE@XZ 00460ec0 f i taocrypt:dsa.obj
 0001:0005fed0       ?Swap@DSA_PublicKey@TaoCrypt@@QAEXAAV12@@Z 00460ed0 f   taocrypt:dsa.obj
 0001:0005ff10       ?Initialize@DSA_PublicKey@TaoCrypt@@QAEXAAVSource@2@@Z 00460f10 f   taocrypt:dsa.obj
 0001:0005ff40       ?Initialize@DSA_PublicKey@TaoCrypt@@QAEXABVInteger@2@000@Z 00460f40 f   taocrypt:dsa.obj
 0001:0005ff80       ?GetModulus@DSA_PublicKey@TaoCrypt@@QBEABVInteger@2@XZ 00460f80 f   taocrypt:dsa.obj
 0001:0005ff90       ?GetSubGroupOrder@DSA_PublicKey@TaoCrypt@@QBEABVInteger@2@XZ 00460f90 f   taocrypt:dsa.obj
 0001:0005ffa0       ?GetSubGroupGenerator@DSA_PublicKey@TaoCrypt@@QBEABVInteger@2@XZ 00460fa0 f   taocrypt:dsa.obj
 0001:0005ffb0       ?GetPublicPart@DSA_PublicKey@TaoCrypt@@QBEABVInteger@2@XZ 00460fb0 f   taocrypt:dsa.obj
 0001:0005ffc0       ?SetModulus@DSA_PublicKey@TaoCrypt@@QAEXABVInteger@2@@Z 00460fc0 f   taocrypt:dsa.obj
 0001:0005ffd0       ?SetSubGroupOrder@DSA_PublicKey@TaoCrypt@@QAEXABVInteger@2@@Z 00460fd0 f   taocrypt:dsa.obj
 0001:0005ffe0       ?SetSubGroupGenerator@DSA_PublicKey@TaoCrypt@@QAEXABVInteger@2@@Z 00460fe0 f   taocrypt:dsa.obj
 0001:0005fff0       ?SetPublicPart@DSA_PublicKey@TaoCrypt@@QAEXABVInteger@2@@Z 00460ff0 f   taocrypt:dsa.obj
 0001:00060000       ?SignatureLength@DSA_PublicKey@TaoCrypt@@QBEIXZ 00461000 f   taocrypt:dsa.obj
 0001:00060010       ?Initialize@DSA_PrivateKey@TaoCrypt@@QAEXAAVSource@2@@Z 00461010 f   taocrypt:dsa.obj
 0001:00060040       ?Initialize@DSA_PrivateKey@TaoCrypt@@QAEXABVInteger@2@0000@Z 00461040 f   taocrypt:dsa.obj
 0001:00060090       ?GetPrivatePart@DSA_PrivateKey@TaoCrypt@@QBEABVInteger@2@XZ 00461090 f   taocrypt:dsa.obj
 0001:000600a0       ?SetPrivatePart@DSA_PrivateKey@TaoCrypt@@QAEXABVInteger@2@@Z 004610a0 f   taocrypt:dsa.obj
 0001:000600b0       ?GetR@DSA_Signer@TaoCrypt@@QBEABVInteger@2@XZ 004610b0 f   taocrypt:dsa.obj
 0001:000600c0       ?GetS@DSA_Signer@TaoCrypt@@QBEABVInteger@2@XZ 004610c0 f   taocrypt:dsa.obj
 0001:000600d0       ?GetR@DSA_Verifier@TaoCrypt@@QBEABVInteger@2@XZ 004610d0 f   taocrypt:dsa.obj
 0001:000600e0       ?GetS@DSA_Verifier@TaoCrypt@@QBEABVInteger@2@XZ 004610e0 f   taocrypt:dsa.obj
 0001:000600f0       ??_1Integer@TaoCrypt@@QAEAAV01@ABV01@@Z 004610f0 f i taocrypt:dsa.obj
 0001:00060130       ??_GDSA_Private_Decoder@TaoCrypt@@UAEPAXI@Z 00461130 f i taocrypt:dsa.obj
 0001:00060130       ??_EDSA_Private_Decoder@TaoCrypt@@UAEPAXI@Z 00461130 f i taocrypt:dsa.obj
 0001:00060150       ??_EDSA_Public_Decoder@TaoCrypt@@UAEPAXI@Z 00461150 f i taocrypt:dsa.obj
 0001:00060150       ??_GDSA_Public_Decoder@TaoCrypt@@UAEPAXI@Z 00461150 f i taocrypt:dsa.obj
 0001:00060170       ??0DSA_PublicKey@TaoCrypt@@QAE@ABV01@@Z 00461170 f   taocrypt:dsa.obj
 0001:000601b0       ??4DSA_PublicKey@TaoCrypt@@QAEAAV01@ABV01@@Z 004611b0 f   taocrypt:dsa.obj
 0001:00060280       ??0DSA_PublicKey@TaoCrypt@@QAE@AAVSource@1@@Z 00461280 f   taocrypt:dsa.obj
 0001:000602d0       ??0DSA_PrivateKey@TaoCrypt@@QAE@AAVSource@1@@Z 004612d0 f   taocrypt:dsa.obj
 0001:00060320       ??0DSA_Signer@TaoCrypt@@QAE@ABVDSA_PrivateKey@1@@Z 00461320 f   taocrypt:dsa.obj
 0001:00060340       ?Sign@DSA_Signer@TaoCrypt@@QAEIPBEPAEAAVRandomNumberGenerator@2@@Z 00461340 f   taocrypt:dsa.obj
 0001:00060590       ??0DSA_Verifier@TaoCrypt@@QAE@ABVDSA_PublicKey@1@@Z 00461590 f   taocrypt:dsa.obj
 0001:000605b0       ?Verify@DSA_Verifier@TaoCrypt@@QAE_NPBE0@Z 004615b0 f   taocrypt:dsa.obj
 0001:000608f0       ??0DH_Decoder@TaoCrypt@@QAE@AAVSource@1@@Z 004618f0 f i taocrypt:dh.obj
 0001:00060910       ??1DH_Decoder@TaoCrypt@@UAE@XZ 00461910 f i taocrypt:dh.obj
 0001:00060920       ?DiscreteLogWorkFactor@?A0x9225393d@TaoCrypt@@YAII@Z 00461920 f   taocrypt:dh.obj
 0001:00060980       ?Initialize@DH@TaoCrypt@@QAEXAAVSource@2@@Z 00461980 f   taocrypt:dh.obj
 0001:000609b0       ??$min@VInteger@TaoCrypt@@@TaoCrypt@@YAABVInteger@0@ABV10@0@Z 004619b0 f i taocrypt:dh.obj
 0001:000609d0       ??_GDH_Decoder@TaoCrypt@@UAEPAXI@Z 004619d0 f i taocrypt:dh.obj
 0001:000609d0       ??_EDH_Decoder@TaoCrypt@@UAEPAXI@Z 004619d0 f i taocrypt:dh.obj
 0001:000609f0       ?GeneratePrivate@DH@TaoCrypt@@AAEXAAVRandomNumberGenerator@2@PAE@Z 004619f0 f   taocrypt:dh.obj
 0001:00060ad0       ?GeneratePublic@DH@TaoCrypt@@AAEXPBEPAE@Z 00461ad0 f   taocrypt:dh.obj
 0001:00060b50       ?Agree@DH@TaoCrypt@@QAEXPAEPBE1I@Z 00461b50 f   taocrypt:dh.obj
 0001:00060c10       ??0DH@TaoCrypt@@QAE@AAVSource@1@@Z 00461c10 f   taocrypt:dh.obj
 0001:00060c50       ?GenerateKeyPair@DH@TaoCrypt@@QAEXAAVRandomNumberGenerator@2@PAE1@Z 00461c50 f   taocrypt:dh.obj
 0001:00060c80       ?XorWords@TaoCrypt@@YAXPAIPBII@Z 00461c80 f i taocrypt:misc.obj
 0001:00060ca0       ?xorbuf@TaoCrypt@@YAXPAEPBEI@Z 00461ca0 f   taocrypt:misc.obj
 0001:00060cf0       ?BytePrecision@TaoCrypt@@YAII@Z 00461cf0 f   taocrypt:misc.obj
 0001:00060d20       ?BitPrecision@TaoCrypt@@YAII@Z 00461d20 f   taocrypt:misc.obj
 0001:00060d60       ?Crop@TaoCrypt@@YAIII@Z    00461d60 f   taocrypt:misc.obj
 0001:00060d80       ?HaveCpuId@TaoCrypt@@YA_NXZ 00461d80 f   taocrypt:misc.obj
 0001:00060e00       ?CpuId@TaoCrypt@@YAXIPAI@Z 00461e00 f   taocrypt:misc.obj
 0001:00060e20       ?IsPentium@TaoCrypt@@YA_NXZ 00461e20 f   taocrypt:misc.obj
 0001:00060f20       ??0RSA_Private_Decoder@TaoCrypt@@QAE@AAVSource@1@@Z 00461f20 f i taocrypt:rsa.obj
 0001:00060f40       ??1RSA_Private_Decoder@TaoCrypt@@UAE@XZ 00461f40 f i taocrypt:rsa.obj
 0001:00060f50       ??0RSA_Public_Decoder@TaoCrypt@@QAE@AAVSource@1@@Z 00461f50 f i taocrypt:rsa.obj
 0001:00060f70       ??1RSA_Public_Decoder@TaoCrypt@@UAE@XZ 00461f70 f i taocrypt:rsa.obj
 0001:00060f80       ?Initialize@RSA_PublicKey@TaoCrypt@@QAEXAAVSource@2@@Z 00461f80 f   taocrypt:rsa.obj
 0001:00060fb0       ?Initialize@RSA_PrivateKey@TaoCrypt@@QAEXAAVSource@2@@Z 00461fb0 f   taocrypt:rsa.obj
 0001:00060fe0       ?Pad@RSA_BlockType2@TaoCrypt@@QBEXPBEIPAEIAAVRandomNumberGenerator@2@@Z 00461fe0 f   taocrypt:rsa.obj
 0001:00061060       ?Pad@RSA_BlockType1@TaoCrypt@@QBEXPBEIPAEIAAVRandomNumberGenerator@2@@Z 00462060 f   taocrypt:rsa.obj
 0001:000610c0       ??_ERSA_Private_Decoder@TaoCrypt@@UAEPAXI@Z 004620c0 f i taocrypt:rsa.obj
 0001:000610c0       ??_GRSA_Private_Decoder@TaoCrypt@@UAEPAXI@Z 004620c0 f i taocrypt:rsa.obj
 0001:000610e0       ??_GRSA_Public_Decoder@TaoCrypt@@UAEPAXI@Z 004620e0 f i taocrypt:rsa.obj
 0001:000610e0       ??_ERSA_Public_Decoder@TaoCrypt@@UAEPAXI@Z 004620e0 f i taocrypt:rsa.obj
 0001:00061100       ?ApplyFunction@RSA_PublicKey@TaoCrypt@@QBE?AVInteger@2@ABV32@@Z 00462100 f   taocrypt:rsa.obj
 0001:00061120       ??0RSA_PublicKey@TaoCrypt@@QAE@AAVSource@1@@Z 00462120 f   taocrypt:rsa.obj
 0001:00061160       ?CalculateInverse@RSA_PrivateKey@TaoCrypt@@QBE?AVInteger@2@AAVRandomNumberGenerator@2@ABV32@@Z 00462160 f   taocrypt:rsa.obj
 0001:00061300       ??0RSA_PrivateKey@TaoCrypt@@QAE@AAVSource@1@@Z 00462300 f   taocrypt:rsa.obj
 0001:00061370       ?UnPad@RSA_BlockType2@TaoCrypt@@QBEIPBEIPAE@Z 00462370 f   taocrypt:rsa.obj
 0001:000613f0       ?UnPad@RSA_BlockType1@TaoCrypt@@QBEIPBEIPAE@Z 004623f0 f   taocrypt:rsa.obj
 0001:00061470       ?SSL_Decrypt@TaoCrypt@@YAIABVRSA_PublicKey@1@PBEPAE@Z 00462470 f   taocrypt:rsa.obj
 0001:00061590       ??0PKCS12_Decoder@TaoCrypt@@QAE@AAVSource@1@@Z 00462590 f i taocrypt:asn.obj
 0001:000615b0       ??1PKCS12_Decoder@TaoCrypt@@UAE@XZ 004625b0 f i taocrypt:asn.obj
 0001:000615c0       ?GetPublicKey@Signer@TaoCrypt@@QBEABVPublicKey@2@XZ 004625c0 f i taocrypt:asn.obj
 0001:000615d0       ?GetHash@Signer@TaoCrypt@@QBEPBEXZ 004625d0 f i taocrypt:asn.obj
 0001:000615e0       ??0DER_Encoder@TaoCrypt@@QAE@XZ 004625e0 f i taocrypt:asn.obj
 0001:000615f0       ??1DER_Encoder@TaoCrypt@@UAE@XZ 004625f0 f i taocrypt:asn.obj
 0001:00061600       ??_EDER_Encoder@TaoCrypt@@UAEPAXI@Z 00462600 f i taocrypt:asn.obj
 0001:00061600       ??_GDER_Encoder@TaoCrypt@@UAEPAXI@Z 00462600 f i taocrypt:asn.obj
 0001:00061620       ?get_index@Source@TaoCrypt@@QBEIXZ 00462620 f i taocrypt:asn.obj
 0001:00061630       ?set_index@Source@TaoCrypt@@QAEXI@Z 00462630 f i taocrypt:asn.obj
 0001:00061640       ?advance@Source@TaoCrypt@@QAEXI@Z 00462640 f i taocrypt:asn.obj
 0001:00061650       ?GetError@Source@TaoCrypt@@QAE?AUError@2@XZ 00462650 f i taocrypt:asn.obj
 0001:00061660       ?SetModulus@RSA_PublicKey@TaoCrypt@@QAEXABVInteger@2@@Z 00462660 f i taocrypt:asn.obj
 0001:00061670       ?SetPublicExponent@RSA_PublicKey@TaoCrypt@@QAEXABVInteger@2@@Z 00462670 f i taocrypt:asn.obj
 0001:00061680       ?SetPrime1@RSA_PrivateKey@TaoCrypt@@QAEXABVInteger@2@@Z 00462680 f i taocrypt:asn.obj
 0001:00061690       ?SetPrime2@RSA_PrivateKey@TaoCrypt@@QAEXABVInteger@2@@Z 00462690 f i taocrypt:asn.obj
 0001:000616a0       ?SetPrivateExponent@RSA_PrivateKey@TaoCrypt@@QAEXABVInteger@2@@Z 004626a0 f i taocrypt:asn.obj
 0001:000616b0       ?SetModPrime1PrivateExponent@RSA_PrivateKey@TaoCrypt@@QAEXABVInteger@2@@Z 004626b0 f i taocrypt:asn.obj
 0001:000616c0       ?SetModPrime2PrivateExponent@RSA_PrivateKey@TaoCrypt@@QAEXABVInteger@2@@Z 004626c0 f i taocrypt:asn.obj
 0001:000616d0       ?SetMultiplicativeInverseOfPrime2ModPrime1@RSA_PrivateKey@TaoCrypt@@QAEXABVInteger@2@@Z 004626d0 f i taocrypt:asn.obj
 0001:000616e0       ??O?A0xb76bb86b@TaoCrypt@@YA_NAAUtm@@0@Z 004626e0 f   taocrypt:asn.obj
 0001:00061770       ??M?A0xb76bb86b@TaoCrypt@@YA_NAAUtm@@0@Z 00462770 f   taocrypt:asn.obj
 0001:00061790       ?btoi@?A0xb76bb86b@TaoCrypt@@YAIE@Z 00462790 f   taocrypt:asn.obj
 0001:000617a0       ?GetTime@?A0xb76bb86b@TaoCrypt@@YAXAAHPBE0@Z 004627a0 f   taocrypt:asn.obj
 0001:000617e0       ?ValidateDate@?A0xb76bb86b@TaoCrypt@@YA_NPBEEW4DateType@CertDecoder@2@@Z 004627e0 f   taocrypt:asn.obj
 0001:00061960       ?SetLength@TaoCrypt@@YAIIPAE@Z 00462960 f   taocrypt:asn.obj
 0001:000619c0       ?SetSize@PublicKey@TaoCrypt@@QAEXI@Z 004629c0 f   taocrypt:asn.obj
 0001:000619e0       ?SetKey@PublicKey@TaoCrypt@@QAEXPBE@Z 004629e0 f   taocrypt:asn.obj
 0001:00061a00       ?GetError@BER_Decoder@TaoCrypt@@QAE?AUError@2@XZ 00462a00 f   taocrypt:asn.obj
 0001:00061a10       ?GetInteger@BER_Decoder@TaoCrypt@@QAEAAVInteger@2@AAV32@@Z 00462a10 f   taocrypt:asn.obj
 0001:00061a40       ??1Signature_Encoder@TaoCrypt@@UAE@XZ 00462a40 f i taocrypt:asn.obj
 0001:00061a50       ?SetDigest@Signature_Encoder@TaoCrypt@@AAEIPBEIPAE@Z 00462a50 f   taocrypt:asn.obj
 0001:00061a80       ?SetSequence@TaoCrypt@@YAIIPAE@Z 00462a80 f   taocrypt:asn.obj
 0001:00061aa0       ?EncodeDSA_Signature@TaoCrypt@@YAIABVInteger@1@0PAE@Z 00462aa0 f   taocrypt:asn.obj
 0001:00061bc0       ??A?$Block@EV?$AllocatorWithCleanup@E@TaoCrypt@@@TaoCrypt@@QBEABEI@Z 00462bc0 f i taocrypt:asn.obj
 0001:00061bd0       ??0?$auto_ptr@VHASH@TaoCrypt@@@mySTL@@QAE@PAVHASH@TaoCrypt@@@Z 00462bd0 f i taocrypt:asn.obj
 0001:00061be0       ??C?$auto_ptr@VHASH@TaoCrypt@@@mySTL@@QBEPAVHASH@TaoCrypt@@XZ 00462be0 f i taocrypt:asn.obj
 0001:00061bf0       ??$tcDelete@VHASH@TaoCrypt@@@TaoCrypt@@YAXPAVHASH@0@@Z 00462bf0 f i taocrypt:asn.obj
 0001:00061c00       ??_EPKCS12_Decoder@TaoCrypt@@UAEPAXI@Z 00462c00 f i taocrypt:asn.obj
 0001:00061c00       ??_GPKCS12_Decoder@TaoCrypt@@UAEPAXI@Z 00462c00 f i taocrypt:asn.obj
 0001:00061c20       ??1PublicKey@TaoCrypt@@QAE@XZ 00462c20 f i taocrypt:asn.obj
 0001:00061c30       ?get_current@Source@TaoCrypt@@QBEPBEXZ 00462c30 f i taocrypt:asn.obj
 0001:00061c40       ?add@Source@TaoCrypt@@QAEXPBEI@Z 00462c40 f i taocrypt:asn.obj
 0001:00061c80       ?GetLength@TaoCrypt@@YAIAAVSource@1@@Z 00462c80 f   taocrypt:asn.obj
 0001:00061cd0       ??0PublicKey@TaoCrypt@@QAE@PBEI@Z 00462cd0 f   taocrypt:asn.obj
 0001:00061d20       ??0Signer@TaoCrypt@@QAE@PBEIPBD0@Z 00462d20 f   taocrypt:asn.obj
 0001:00061dc0       ??1Signer@TaoCrypt@@QAE@XZ 00462dc0 f   taocrypt:asn.obj
 0001:00061dd0       ?GetSequence@BER_Decoder@TaoCrypt@@QAEIXZ 00462dd0 f   taocrypt:asn.obj
 0001:00061e10       ?GetSet@BER_Decoder@TaoCrypt@@QAEIXZ 00462e10 f   taocrypt:asn.obj
 0001:00061e50       ?GetVersion@BER_Decoder@TaoCrypt@@QAEIXZ 00462e50 f   taocrypt:asn.obj
 0001:00061ec0       ?GetExplicitVersion@BER_Decoder@TaoCrypt@@QAEIXZ 00462ec0 f   taocrypt:asn.obj
 0001:00061f00       ?Decode@RSA_Private_Decoder@TaoCrypt@@QAEXAAVRSA_PrivateKey@2@@Z 00462f00 f   taocrypt:asn.obj
 0001:000620f0       ?ReadHeader@RSA_Private_Decoder@TaoCrypt@@EAEXXZ 004630f0 f   taocrypt:asn.obj
 0001:00062140       ?Decode@DSA_Private_Decoder@TaoCrypt@@QAEXAAVDSA_PrivateKey@2@@Z 00463140 f   taocrypt:asn.obj
 0001:00062280       ?ReadHeader@DSA_Private_Decoder@TaoCrypt@@EAEXXZ 00463280 f   taocrypt:asn.obj
 0001:000622d0       ?Decode@RSA_Public_Decoder@TaoCrypt@@QAEXAAVRSA_PublicKey@2@@Z 004632d0 f   taocrypt:asn.obj
 0001:00062370       ?ReadHeader@RSA_Public_Decoder@TaoCrypt@@EAEXXZ 00463370 f   taocrypt:asn.obj
 0001:000623b0       ?Decode@DSA_Public_Decoder@TaoCrypt@@QAEXAAVDSA_PublicKey@2@@Z 004633b0 f   taocrypt:asn.obj
 0001:000624c0       ?ReadHeader@DSA_Public_Decoder@TaoCrypt@@EAEXXZ 004634c0 f   taocrypt:asn.obj
 0001:00062500       ?ReadHeader@DH_Decoder@TaoCrypt@@EAEXXZ 00463500 f   taocrypt:asn.obj
 0001:00062540       ?Decode@DH_Decoder@TaoCrypt@@QAEXAAVDH@2@@Z 00463540 f   taocrypt:asn.obj
 0001:000625e0       ??1CertDecoder@TaoCrypt@@UAE@XZ 004635e0 f   taocrypt:asn.obj
 0001:00062610       ?ReadHeader@CertDecoder@TaoCrypt@@EAEXXZ 00463610 f   taocrypt:asn.obj
 0001:00062700       ?StoreKey@CertDecoder@TaoCrypt@@AAEXXZ 00463700 f   taocrypt:asn.obj
 0001:000627a0       ?GetAlgoId@CertDecoder@TaoCrypt@@AAEIXZ 004637a0 f   taocrypt:asn.obj
 0001:00062880       ?GetSignature@CertDecoder@TaoCrypt@@AAEIXZ 00463880 f   taocrypt:asn.obj
 0001:00062930       ?GetDigest@CertDecoder@TaoCrypt@@AAEIXZ 00463930 f   taocrypt:asn.obj
 0001:000629b0       ?GetName@CertDecoder@TaoCrypt@@AAEXW4NameType@12@@Z 004639b0 f   taocrypt:asn.obj
 0001:00062db0       ?GetDate@CertDecoder@TaoCrypt@@AAEXW4DateType@12@@Z 00463db0 f   taocrypt:asn.obj
 0001:00062f10       ?GetValidity@CertDecoder@TaoCrypt@@AAEXXZ 00463f10 f   taocrypt:asn.obj
 0001:00062f70       ?SetAlgoID@DER_Encoder@TaoCrypt@@QAEIW4HashType@2@PAE@Z 00463f70 f   taocrypt:asn.obj
 0001:00063070       ?EncodeDSA_Signature@TaoCrypt@@YAIPBEPAE@Z 00464070 f   taocrypt:asn.obj
 0001:000630e0       ?Decode@PKCS12_Decoder@TaoCrypt@@QAEXXZ 004640e0 f   taocrypt:asn.obj
 0001:00063160       ?ReadHeader@PKCS12_Decoder@TaoCrypt@@EAEXXZ 00464160 f   taocrypt:asn.obj
 0001:000631b0       ?GetPKCS_Cert@TaoCrypt@@YAHPBDAAVSource@1@@Z 004641b0 f   taocrypt:asn.obj
 0001:000631d0       ?Swap@?$Block@EV?$AllocatorWithCleanup@E@TaoCrypt@@@TaoCrypt@@QAEXAAV12@@Z 004641d0 f i taocrypt:asn.obj
 0001:000631f0       ?Destroy@?$auto_ptr@VHASH@TaoCrypt@@@mySTL@@AAEXXZ 004641f0 f i taocrypt:asn.obj
 0001:00063200       ?Swap@Source@TaoCrypt@@QAEXAAV12@@Z 00464200 f i taocrypt:asn.obj
 0001:00063230       ??_ECertDecoder@TaoCrypt@@UAEPAXI@Z 00464230 f i taocrypt:asn.obj
 0001:00063230       ??_GCertDecoder@TaoCrypt@@UAEPAXI@Z 00464230 f i taocrypt:asn.obj
 0001:00063270       ??1?$auto_ptr@VHASH@TaoCrypt@@@mySTL@@QAE@XZ 00464270 f i taocrypt:asn.obj
 0001:00063280       ?reset@?$auto_ptr@VHASH@TaoCrypt@@@mySTL@@QAEXPAVHASH@TaoCrypt@@@Z 00464280 f i taocrypt:asn.obj
 0001:000632a0       ?AddToEnd@PublicKey@TaoCrypt@@QAEXPBEI@Z 004642a0 f   taocrypt:asn.obj
 0001:00063320       ?AddDSA@CertDecoder@TaoCrypt@@AAEXXZ 00464320 f   taocrypt:asn.obj
 0001:000633e0       ?DecodeDSA_Signature@TaoCrypt@@YAIPAEPBEI@Z 004643e0 f   taocrypt:asn.obj
 0001:000635b0       ?GetCert@TaoCrypt@@YAHAAVSource@1@@Z 004645b0 f   taocrypt:asn.obj
 0001:000636a0       ?CleanGrow@?$Block@EV?$AllocatorWithCleanup@E@TaoCrypt@@@TaoCrypt@@QAEXI@Z 004646a0 f i taocrypt:asn.obj
 0001:00063740       ?grow@Source@TaoCrypt@@QAEXI@Z 00464740 f i taocrypt:asn.obj
 0001:00063750       ?GetKey@CertDecoder@TaoCrypt@@AAEXXZ 00464750 f   taocrypt:asn.obj
 0001:00063830       ??0Signature_Encoder@TaoCrypt@@QAE@PBEIW4HashType@1@AAVSource@1@@Z 00464830 f   taocrypt:asn.obj
 0001:00063950       ??_ESignature_Encoder@TaoCrypt@@UAEPAXI@Z 00464950 f i taocrypt:asn.obj
 0001:00063950       ??_GSignature_Encoder@TaoCrypt@@UAEPAXI@Z 00464950 f i taocrypt:asn.obj
 0001:00063970       ??0Source@TaoCrypt@@QAE@I@Z 00464970 f i taocrypt:asn.obj
 0001:000639c0       ?DecodeToKey@CertDecoder@TaoCrypt@@QAEXXZ 004649c0 f   taocrypt:asn.obj
 0001:00063a00       ?ConfirmSignature@CertDecoder@TaoCrypt@@AAE_NAAVSource@2@@Z 00464a00 f   taocrypt:asn.obj
 0001:00063cd0       ?ValidateSelfSignature@CertDecoder@TaoCrypt@@AAE_NXZ 00464cd0 f   taocrypt:asn.obj
 0001:00063d60       ?ValidateSignature@CertDecoder@TaoCrypt@@AAE_NPAV?$list@PAVSigner@TaoCrypt@@@mySTL@@@Z 00464d60 f   taocrypt:asn.obj
 0001:00063e30       ?Decode@CertDecoder@TaoCrypt@@AAEXPAV?$list@PAVSigner@TaoCrypt@@@mySTL@@W4CertType@12@@Z 00464e30 f   taocrypt:asn.obj
 0001:00063ef0       ??0CertDecoder@TaoCrypt@@QAE@AAVSource@1@_NPAV?$list@PAVSigner@TaoCrypt@@@mySTL@@1W4CertType@01@@Z 00464ef0 f   taocrypt:asn.obj
 0001:00063f50       ?GetCompareHash@CertDecoder@TaoCrypt@@AAEXPBEIPAEI@Z 00464f50 f   taocrypt:asn.obj
 0001:000640d0       ??1FileSource@TaoCrypt@@QAE@XZ 004650d0 f   taocrypt:file.obj
 0001:000640e0       ?size@FileSource@TaoCrypt@@QAEI_N@Z 004650e0 f   taocrypt:file.obj
 0001:00064150       ?size_left@FileSource@TaoCrypt@@AAEIXZ 00465150 f   taocrypt:file.obj
 0001:00064190       ??1FileSink@TaoCrypt@@QAE@XZ 00465190 f   taocrypt:file.obj
 0001:000641a0       ?put@FileSink@TaoCrypt@@AAEXAAVSource@2@@Z 004651a0 f   taocrypt:file.obj
 0001:000641c0       ??0FileSink@TaoCrypt@@QAE@PBDAAVSource@1@@Z 004651c0 f   taocrypt:file.obj
 0001:00064200       ?reset@Source@TaoCrypt@@QAEXAAV?$Block@EV?$AllocatorWithCleanup@E@TaoCrypt@@@2@@Z 00465200 f   taocrypt:file.obj
 0001:00064230       ?get@FileSource@TaoCrypt@@AAEIAAVSource@2@@Z 00465230 f   taocrypt:file.obj
 0001:000642b0       ??0FileSource@TaoCrypt@@QAE@PBDAAVSource@1@@Z 004652b0 f   taocrypt:file.obj
 0001:000642e0       ?Double@AbstractGroup@TaoCrypt@@UBEABVInteger@2@ABV32@@Z 004652e0 f   taocrypt:algebra.obj
 0001:000642f0       ?Accumulate@AbstractGroup@TaoCrypt@@UBEAAVInteger@2@AAV32@ABV32@@Z 004652f0 f   taocrypt:algebra.obj
 0001:00064310       ?Reduce@AbstractGroup@TaoCrypt@@UBEAAVInteger@2@AAV32@ABV32@@Z 00465310 f   taocrypt:algebra.obj
 0001:00064330       ?Square@AbstractRing@TaoCrypt@@UBEABVInteger@2@ABV32@@Z 00465330 f   taocrypt:algebra.obj
 0001:00064340       ?FindNextWindow@WindowSlider@TaoCrypt@@QAEXXZ 00465340 f i taocrypt:algebra.obj
 0001:00064400       ?size@?$vector@VInteger@TaoCrypt@@@mySTL@@QBEIXZ 00465400 f i taocrypt:algebra.obj
 0001:00064410       ??A?$vector@VInteger@TaoCrypt@@@mySTL@@QAEAAVInteger@TaoCrypt@@I@Z 00465410 f i taocrypt:algebra.obj
 0001:00064420       ??A?$vector@V?$vector@VInteger@TaoCrypt@@@mySTL@@@mySTL@@QAEAAV?$vector@VInteger@TaoCrypt@@@1@I@Z 00465420 f i taocrypt:algebra.obj
 0001:00064430       ??A?$vector@UWindowSlider@TaoCrypt@@@mySTL@@QAEAAUWindowSlider@TaoCrypt@@I@Z 00465430 f i taocrypt:algebra.obj
 0001:00064450       ?capacity@?$vector@UWindowSlider@TaoCrypt@@@mySTL@@QBEIXZ 00465450 f i taocrypt:algebra.obj
 0001:00064470       ?size@?$vector@UWindowSlider@TaoCrypt@@@mySTL@@QBEIXZ 00465470 f i taocrypt:algebra.obj
 0001:00064490       ??0?$vector_base@UWindowSlider@TaoCrypt@@@mySTL@@QAE@XZ 00465490 f i taocrypt:algebra.obj
 0001:000644a0       ??0?$vector_base@VInteger@TaoCrypt@@@mySTL@@QAE@XZ 004654a0 f i taocrypt:algebra.obj
 0001:000644b0       ??$GetArrayMemory@VInteger@TaoCrypt@@@mySTL@@YAPAVInteger@TaoCrypt@@I@Z 004654b0 f i taocrypt:algebra.obj
 0001:000644c0       ??$FreeArrayMemory@VInteger@TaoCrypt@@@mySTL@@YAXPAVInteger@TaoCrypt@@@Z 004654c0 f i taocrypt:algebra.obj
 0001:000644d0       ??$GetArrayMemory@V?$vector@VInteger@TaoCrypt@@@mySTL@@@mySTL@@YAPAV?$vector@VInteger@TaoCrypt@@@0@I@Z 004654d0 f i taocrypt:algebra.obj
 0001:000644f0       ??$FreeArrayMemory@V?$vector@VInteger@TaoCrypt@@@mySTL@@@mySTL@@YAXPAV?$vector@VInteger@TaoCrypt@@@0@@Z 004654f0 f i taocrypt:algebra.obj
 0001:00064500       ??$FreeArrayMemory@UWindowSlider@TaoCrypt@@@mySTL@@YAXPAUWindowSlider@TaoCrypt@@@Z 00465500 f i taocrypt:algebra.obj
 0001:00064510       ??$swap@PAVInteger@TaoCrypt@@@mySTL@@YAXAAPAVInteger@TaoCrypt@@0@Z 00465510 f i taocrypt:algebra.obj
 0001:00064530       ??$GetArrayMemory@UWindowSlider@TaoCrypt@@@mySTL@@YAPAUWindowSlider@TaoCrypt@@I@Z 00465530 f i taocrypt:algebra.obj
 0001:00064550       ??$swap@PAUWindowSlider@TaoCrypt@@@mySTL@@YAXAAPAUWindowSlider@TaoCrypt@@0@Z 00465550 f i taocrypt:algebra.obj
 0001:00064570       ??$construct@VInteger@TaoCrypt@@V12@@mySTL@@YAXPAVInteger@TaoCrypt@@ABV12@@Z 00465570 f i taocrypt:algebra.obj
 0001:00064590       ?Subtract@AbstractGroup@TaoCrypt@@UBEABVInteger@2@ABV32@0@Z 00465590 f   taocrypt:algebra.obj
 0001:000645e0       ?Divide@AbstractRing@TaoCrypt@@UBEABVInteger@2@ABV32@0@Z 004655e0 f   taocrypt:algebra.obj
 0001:00064630       ?Mod@AbstractEuclideanDomain@TaoCrypt@@UBEABVInteger@2@ABV32@0@Z 00465630 f   taocrypt:algebra.obj
 0001:00064680       ?ScalarMultiply@AbstractGroup@TaoCrypt@@UBE?AVInteger@2@ABV32@0@Z 00465680 f   taocrypt:algebra.obj
 0001:000646e0       ??0WindowSlider@TaoCrypt@@QAE@ABVInteger@1@_NI@Z 004656e0 f i taocrypt:algebra.obj
 0001:00064790       ??1WindowSlider@TaoCrypt@@QAE@XZ 00465790 f i taocrypt:algebra.obj
 0001:000647c0       ?Exponentiate@AbstractRing@TaoCrypt@@UBE?AVInteger@2@ABV32@0@Z 004657c0 f   taocrypt:algebra.obj
 0001:00064820       ??0?$vector_base@VInteger@TaoCrypt@@@mySTL@@QAE@I@Z 00465820 f i taocrypt:algebra.obj
 0001:00064850       ??1?$vector_base@VInteger@TaoCrypt@@@mySTL@@QAE@XZ 00465850 f i taocrypt:algebra.obj
 0001:00064860       ??0?$vector_base@V?$vector@VInteger@TaoCrypt@@@mySTL@@@mySTL@@QAE@I@Z 00465860 f i taocrypt:algebra.obj
 0001:00064890       ??1?$vector_base@V?$vector@VInteger@TaoCrypt@@@mySTL@@@mySTL@@QAE@XZ 00465890 f i taocrypt:algebra.obj
 0001:000648a0       ??1?$vector_base@UWindowSlider@TaoCrypt@@@mySTL@@QAE@XZ 004658a0 f i taocrypt:algebra.obj
 0001:000648b0       ?Swap@?$vector_base@VInteger@TaoCrypt@@@mySTL@@QAEXAAU12@@Z 004658b0 f i taocrypt:algebra.obj
 0001:000648e0       ??0?$vector_base@UWindowSlider@TaoCrypt@@@mySTL@@QAE@I@Z 004658e0 f i taocrypt:algebra.obj
 0001:00064910       ?Swap@?$vector_base@UWindowSlider@TaoCrypt@@@mySTL@@QAEXAAU12@@Z 00465910 f i taocrypt:algebra.obj
 0001:00064940       ??$uninit_fill_n@PAVInteger@TaoCrypt@@IV12@@mySTL@@YAPAVInteger@TaoCrypt@@PAV12@IABV12@@Z 00465940 f i taocrypt:algebra.obj
 0001:00064980       ??$uninit_copy@PAVInteger@TaoCrypt@@PAV12@@mySTL@@YAPAVInteger@TaoCrypt@@PAV12@00@Z 00465980 f i taocrypt:algebra.obj
 0001:000649c0       ??0WindowSlider@TaoCrypt@@QAE@ABU01@@Z 004659c0 f i taocrypt:algebra.obj
 0001:00064a10       ??_GWindowSlider@TaoCrypt@@QAEPAXI@Z 00465a10 f i taocrypt:algebra.obj
 0001:00064a50       ??0?$vector@VInteger@TaoCrypt@@@mySTL@@QAE@ABV01@@Z 00465a50 f i taocrypt:algebra.obj
 0001:00064aa0       ??0?$vector@VInteger@TaoCrypt@@@mySTL@@QAE@I@Z 00465aa0 f i taocrypt:algebra.obj
 0001:00064b00       ??0?$vector@UWindowSlider@TaoCrypt@@@mySTL@@QAE@XZ 00465b00 f i taocrypt:algebra.obj
 0001:00064b10       ??0?$vector@VInteger@TaoCrypt@@@mySTL@@QAE@XZ 00465b10 f i taocrypt:algebra.obj
 0001:00064b20       ?Swap@?$vector@VInteger@TaoCrypt@@@mySTL@@QAEXAAV12@@Z 00465b20 f i taocrypt:algebra.obj
 0001:00064b50       ??0?$vector@VInteger@TaoCrypt@@@mySTL@@AAE@IABV01@@Z 00465b50 f i taocrypt:algebra.obj
 0001:00064bc0       ?Swap@?$vector@UWindowSlider@TaoCrypt@@@mySTL@@QAEXAAV12@@Z 00465bc0 f i taocrypt:algebra.obj
 0001:00064bf0       ??$construct@UWindowSlider@TaoCrypt@@U12@@mySTL@@YAXPAUWindowSlider@TaoCrypt@@ABU12@@Z 00465bf0 f i taocrypt:algebra.obj
 0001:00064c10       ??$uninit_copy@PAUWindowSlider@TaoCrypt@@PAU12@@mySTL@@YAPAUWindowSlider@TaoCrypt@@PAU12@00@Z 00465c10 f i taocrypt:algebra.obj
 0001:00064c80       ??$destroy@VInteger@TaoCrypt@@@mySTL@@YAXPAVInteger@TaoCrypt@@@Z 00465c80 f i taocrypt:algebra.obj
 0001:00064ca0       ??$construct@V?$vector@VInteger@TaoCrypt@@@mySTL@@V12@@mySTL@@YAXPAV?$vector@VInteger@TaoCrypt@@@0@ABV10@@Z 00465ca0 f i taocrypt:algebra.obj
 0001:00064cf0       ??$destroy@UWindowSlider@TaoCrypt@@@mySTL@@YAXPAUWindowSlider@TaoCrypt@@@Z 00465cf0 f i taocrypt:algebra.obj
 0001:00064d20       ??0?$vector@UWindowSlider@TaoCrypt@@@mySTL@@AAE@IABV01@@Z 00465d20 f i taocrypt:algebra.obj
 0001:00064da0       ??$destroy@PAVInteger@TaoCrypt@@@mySTL@@YAXPAVInteger@TaoCrypt@@0@Z 00465da0 f i taocrypt:algebra.obj
 0001:00064dd0       ??$uninit_fill_n@PAV?$vector@VInteger@TaoCrypt@@@mySTL@@IV12@@mySTL@@YAPAV?$vector@VInteger@TaoCrypt@@@0@PAV10@IABV10@@Z 00465dd0 f i taocrypt:algebra.obj
 0001:00064e60       ??$destroy@PAUWindowSlider@TaoCrypt@@@mySTL@@YAXPAUWindowSlider@TaoCrypt@@0@Z 00465e60 f i taocrypt:algebra.obj
 0001:00064ea0       ??1?$vector@VInteger@TaoCrypt@@@mySTL@@QAE@XZ 00465ea0 f i taocrypt:algebra.obj
 0001:00064ee0       ?resize@?$vector@VInteger@TaoCrypt@@@mySTL@@QAEXIABVInteger@TaoCrypt@@@Z 00465ee0 f i taocrypt:algebra.obj
 0001:00064f90       ??0?$vector@V?$vector@VInteger@TaoCrypt@@@mySTL@@@mySTL@@QAE@I@Z 00465f90 f i taocrypt:algebra.obj
 0001:00064ff0       ??1?$vector@UWindowSlider@TaoCrypt@@@mySTL@@QAE@XZ 00465ff0 f i taocrypt:algebra.obj
 0001:00065010       ?push_back@?$vector@UWindowSlider@TaoCrypt@@@mySTL@@QAEXABUWindowSlider@TaoCrypt@@@Z 00466010 f i taocrypt:algebra.obj
 0001:000650a0       ?reserve@?$vector@UWindowSlider@TaoCrypt@@@mySTL@@QAEXI@Z 004660a0 f i taocrypt:algebra.obj
 0001:00065110       ??_G?$vector@VInteger@TaoCrypt@@@mySTL@@QAEPAXI@Z 00466110 f i taocrypt:algebra.obj
 0001:00065130       ?Gcd@AbstractEuclideanDomain@TaoCrypt@@UBEABVInteger@2@ABV32@0@Z 00466130 f   taocrypt:algebra.obj
 0001:00065240       ?CascadeScalarMultiply@AbstractGroup@TaoCrypt@@UBE?AVInteger@2@ABV32@000@Z 00466240 f   taocrypt:algebra.obj
 0001:000656d0       ?CascadeExponentiate@AbstractRing@TaoCrypt@@UBE?AVInteger@2@ABV32@000@Z 004666d0 f   taocrypt:algebra.obj
 0001:00065700       ??$destroy@V?$vector@VInteger@TaoCrypt@@@mySTL@@@mySTL@@YAXPAV?$vector@VInteger@TaoCrypt@@@0@@Z 00466700 f i taocrypt:algebra.obj
 0001:00065710       ??$destroy@PAV?$vector@VInteger@TaoCrypt@@@mySTL@@@mySTL@@YAXPAV?$vector@VInteger@TaoCrypt@@@0@0@Z 00466710 f i taocrypt:algebra.obj
 0001:00065760       ??1?$vector@V?$vector@VInteger@TaoCrypt@@@mySTL@@@mySTL@@QAE@XZ 00466760 f i taocrypt:algebra.obj
 0001:00065780       ?SimultaneousMultiply@AbstractGroup@TaoCrypt@@UBEXPAVInteger@2@ABV32@PBV32@I@Z 00466780 f   taocrypt:algebra.obj
 0001:00065ac0       ?SimultaneousExponentiate@AbstractRing@TaoCrypt@@UBEXPAVInteger@2@ABV32@PBV32@I@Z 00466ac0 f   taocrypt:algebra.obj
 0001:00065af0       ?Init@MD2@TaoCrypt@@UAEXXZ 00466af0 f   taocrypt:md2.obj
 0001:00065b20       ?Update@MD2@TaoCrypt@@UAEXPBEI@Z 00466b20 f   taocrypt:md2.obj
 0001:00065d80       ?Final@MD2@TaoCrypt@@UAEXPAE@Z 00466d80 f   taocrypt:md2.obj
 0001:00065e20       ??0MD2@TaoCrypt@@QAE@XZ    00466e20 f   taocrypt:md2.obj
 0001:00065f00       ?getBlockSize@MD2@TaoCrypt@@UBEIXZ 00466f00 f i taocrypt:md2.obj
 0001:00065f10       ?getDigestSize@MD2@TaoCrypt@@UBEIXZ 00466f10 f i taocrypt:md2.obj
 0001:00065f20       ??_EMD2@TaoCrypt@@UAEPAXI@Z 00466f20 f i taocrypt:md2.obj
 0001:00065f20       ??_GMD2@TaoCrypt@@UAEPAXI@Z 00466f20 f i taocrypt:md2.obj
 0001:00065f40       ??1MD2@TaoCrypt@@UAE@XZ    00466f40 f i taocrypt:md2.obj
 0001:00065fb0       _my_inet_ntoa              00466fb0 f   mysys:my_net.obj
 0001:00065fdf       __fpclear                  00466fdf f   LIBCMT:fpinit.obj
 0001:00065fe0       __cfltcvt_init             00466fe0 f   LIBCMT:fpinit.obj
 0001:00066018       ___setfflag                00467018 f   LIBCMT:fpinit.obj
 0001:00066028       __fpmath                   00467028 f   LIBCMT:fpinit.obj
 0001:00066048       __ftol2                    00467048 f   LIBCMT:ftol2.obj
 0001:000660bd       __purecall                 004670bd f   LIBCMT:purevirt.obj
 0001:000660d1       __set_purecall_handler     004670d1 f   LIBCMT:purevirt.obj
 0001:000660e1       ??1type_info@@UAE@XZ       004670e1 f   LIBCMT:typinfo.obj
 0001:00066127       ??_Etype_info@@UAEPAXI@Z   00467127 f i LIBCMT:typinfo.obj
 0001:00066127       ??_Gtype_info@@UAEPAXI@Z   00467127 f i LIBCMT:typinfo.obj
 0001:00066143       ??8type_info@@QBEHABV0@@Z  00467143 f   LIBCMT:typinfo.obj
 0001:0006615e       ??9type_info@@QBEHABV0@@Z  0046715e f   LIBCMT:typinfo.obj
 0001:0006617a       ?before@type_info@@QBEHABV1@@Z 0046717a f   LIBCMT:typinfo.obj
 0001:00066199       ?raw_name@type_info@@QBEPBDXZ 00467199 f   LIBCMT:typinfo.obj
 0001:0006619d       ??0type_info@@AAE@ABV0@@Z  0046719d f   LIBCMT:typinfo.obj
 0001:000661a8       ??4type_info@@AAEAAV0@ABV0@@Z 004671a8 f   LIBCMT:typinfo.obj
 0001:000661ad       ??3@YAXPAX@Z               004671ad f   LIBCMT:delete.obj
 0001:000661d0       _strchr                    004671d0 f   LIBCMT:strchr.obj
 0001:000661d6       ___from_strstr_to_strchr   004671d6     LIBCMT:strchr.obj
 0001:0006628e       _atol                      0046728e f   LIBCMT:atox.obj
 0001:00066316       _atoi                      00467316 f   LIBCMT:atox.obj
 0001:0006631b       __atoi64                   0046731b f   LIBCMT:atox.obj
 0001:000663f3       @__security_check_cookie@4 004673f3 f   LIBCMT:secchk.obj
 0001:00066401       _time                      00467401 f   LIBCMT:time.obj
 0001:00066440       __allmul                   00467440 f   LIBCMT:llmul.obj
 0001:00066474       ??2@YAPAXI@Z               00467474 f   LIBCMT:new.obj
 0001:00066490       _strncmp                   00467490 f   LIBCMT:strncmp.obj
 0001:000664c9       __snprintf                 004674c9 f   LIBCMT:snprintf.obj
 0001:00066520       _strstr                    00467520 f   LIBCMT:strstr.obj
 0001:000665a6       _fscanf                    004675a6 f   LIBCMT:fscanf.obj
 0001:000665f0       _printf                    004675f0 f   LIBCMT:printf.obj
 0001:00066656       _strerror                  00467656 f   LIBCMT:strerror.obj
 0001:000666a6       __errno                    004676a6 f   LIBCMT:dosmap.obj
 0001:000666af       ___doserrno                004676af f   LIBCMT:dosmap.obj
 0001:000666b8       __dosmaperr                004676b8 f   LIBCMT:dosmap.obj
 0001:0006672b       _fprintf                   0046772b f   LIBCMT:fprintf.obj
 0001:00066789       __vsnprintf                00467789 f   LIBCMT:vsnprint.obj
 0001:000667df       _sprintf                   004677df f   LIBCMT:sprintf.obj
 0001:00066837       __scprintf                 00467837 f   LIBCMT:sprintf.obj
 0001:00066868       ___iob_func                00467868 f   LIBCMT:_file.obj
 0001:0006686e       ___initstdio               0046786e f   LIBCMT:_file.obj
 0001:00066917       ___endstdio                00467917 f   LIBCMT:_file.obj
 0001:0006692b       __lock_file                0046792b f   LIBCMT:_file.obj
 0001:0006695a       __lock_file2               0046795a f   LIBCMT:_file.obj
 0001:0006697d       __unlock_file              0046797d f   LIBCMT:_file.obj
 0001:000669ac       __unlock_file2             004679ac f   LIBCMT:_file.obj
 0001:000669cf       _vfprintf                  004679cf f   LIBCMT:vfprintf.obj
 0001:00066a2c       _setbuf                    00467a2c f   LIBCMT:setbuf.obj
 0001:00066a51       ___crtExitProcess          00467a51 f   LIBCMT:crt0dat.obj
 0001:00066a81       __lockexit                 00467a81 f   LIBCMT:crt0dat.obj
 0001:00066a8a       __unlockexit               00467a8a f   LIBCMT:crt0dat.obj
 0001:00066ac9       __cinit                    00467ac9 f   LIBCMT:crt0dat.obj
 0001:00066bf6       _exit                      00467bf6 f   LIBCMT:crt0dat.obj
 0001:00066c07       __exit                     00467c07 f   LIBCMT:crt0dat.obj
 0001:00066c18       __cexit                    00467c18 f   LIBCMT:crt0dat.obj
 0001:00066c27       __c_exit                   00467c27 f   LIBCMT:crt0dat.obj
 0001:00066cf3       ___fpecode                 00467cf3 f   LIBCMT:winsig.obj
 0001:00066cfc       ___pxcptinfoptrs           00467cfc f   LIBCMT:winsig.obj
 0001:00066d05       _signal                    00467d05 f   LIBCMT:winsig.obj
 0001:00066ea6       _raise                     00467ea6 f   LIBCMT:winsig.obj
 0001:0006701f       _srand                     0046801f f   LIBCMT:rand.obj
 0001:0006702c       _rand                      0046802c f   LIBCMT:rand.obj
 0001:0006704e       _fgets                     0046804e f   LIBCMT:fgets.obj
 0001:000670e0       _strrchr                   004680e0 f   LIBCMT:strrchr.obj
 0001:00067160       __popen                    00468160 f   LIBCMT:popen.obj
 0001:00067525       __pclose                   00468525 f   LIBCMT:popen.obj
 0001:000675b4       _setvbuf                   004685b4 f   LIBCMT:setvbuf.obj
 0001:00067690       _memmove                   00468690 f   LIBCMT:memmove.obj
 0001:000679d0       _floor                     004689d0 f   LIBCMT:floor_pentium4.obj
 0001:00067a10       __floor_pentium4           00468a10 f   LIBCMT:floor_pentium4.obj
 0001:00067af1       __getenv_lk                00468af1 f   LIBCMT:getenv.obj
 0001:00067b72       _getenv                    00468b72 f   LIBCMT:getenv.obj
 0001:00067d70       _strtol                    00468d70 f   LIBCMT:strtol.obj
 0001:00067d87       _strtoul                   00468d87 f   LIBCMT:strtol.obj
 0001:00067d9e       _isalpha                   00468d9e f   LIBCMT:_ctype.obj
 0001:00067ddd       _isupper                   00468ddd f   LIBCMT:_ctype.obj
 0001:00067e17       _islower                   00468e17 f   LIBCMT:_ctype.obj
 0001:00067e51       _isdigit                   00468e51 f   LIBCMT:_ctype.obj
 0001:00067e8b       _isxdigit                  00468e8b f   LIBCMT:_ctype.obj
 0001:00067eca       _isspace                   00468eca f   LIBCMT:_ctype.obj
 0001:00067f04       _ispunct                   00468f04 f   LIBCMT:_ctype.obj
 0001:00067f3e       _isalnum                   00468f3e f   LIBCMT:_ctype.obj
 0001:00067f7d       _isprint                   00468f7d f   LIBCMT:_ctype.obj
 0001:00067fbc       _isgraph                   00468fbc f   LIBCMT:_ctype.obj
 0001:00067ffb       _iscntrl                   00468ffb f   LIBCMT:_ctype.obj
 0001:00068035       ___isascii                 00469035 f   LIBCMT:_ctype.obj
 0001:00068042       ___toascii                 00469042 f   LIBCMT:_ctype.obj
 0001:0006804a       ___iscsymf                 0046904a f   LIBCMT:_ctype.obj
 0001:00068064       ___iscsym                  00469064 f   LIBCMT:_ctype.obj
 0001:0006807e       __ungetch_lk               0046907e f   LIBCMT:getch.obj
 0001:0006809f       __getextendedkeycode       0046909f f   LIBCMT:getch.obj
 0001:0006814c       __getch_lk                 0046914c f   LIBCMT:getch.obj
 0001:0006820d       __getche_lk                0046920d f   LIBCMT:getch.obj
 0001:00068244       __kbhit_lk                 00469244 f   LIBCMT:getch.obj
 0001:0006836c       __ungetch                  0046936c f   LIBCMT:getch.obj
 0001:000683ad       __getch                    004693ad f   LIBCMT:getch.obj
 0001:000683e8       __getche                   004693e8 f   LIBCMT:getch.obj
 0001:00068423       __kbhit                    00469423 f   LIBCMT:getch.obj
 0001:0006845e       __cputs                    0046945e f   LIBCMT:cputs.obj
 0001:000684b6       __amsg_exit                004694b6 f   LIBCMT:crt0.obj
 0001:00068555       _mainCRTStartup            00469555 f   LIBCMT:crt0.obj
 0001:00068715       _realloc                   00469715 f   LIBCMT:realloc.obj
 0001:000688c2       __heap_alloc               004698c2 f   LIBCMT:malloc.obj
 0001:0006893d       __nh_malloc                0046993d f   LIBCMT:malloc.obj
 0001:00068969       _malloc                    00469969 f   LIBCMT:malloc.obj
 0001:0006897b       _free                      0046997b f   LIBCMT:free.obj
 0001:000689ec       __lseeki64_lk              004699ec f   LIBCMT:lseeki64.obj
 0001:00068a6f       __lseeki64                 00469a6f f   LIBCMT:lseeki64.obj
 0001:00068b2d       __telli64                  00469b2d f   LIBCMT:telli64.obj
 0001:00068b40       __findclose                00469b40 f   LIBCMT:findfile.obj
 0001:00068b60       ___timet_from_ft           00469b60 f   LIBCMT:findfile.obj
 0001:00068bc4       __findfirst                00469bc4 f   LIBCMT:findfile.obj
 0001:00068ca1       __findnext                 00469ca1 f   LIBCMT:findfile.obj
 0001:00068d79       __set_osfhnd               00469d79 f   LIBCMT:osfinfo.obj
 0001:00068df5       __free_osfhnd              00469df5 f   LIBCMT:osfinfo.obj
 0001:00068e74       __get_osfhandle            00469e74 f   LIBCMT:osfinfo.obj
 0001:00068eb5       __lock_fhandle             00469eb5 f   LIBCMT:osfinfo.obj
 0001:00068f55       __unlock_fhandle           00469f55 f   LIBCMT:osfinfo.obj
 0001:00068f77       __alloc_osfhnd             00469f77 f   LIBCMT:osfinfo.obj
 0001:000690f3       __open_osfhandle           0046a0f3 f   LIBCMT:osfinfo.obj
 0001:000691ba       __umask                    0046a1ba f   LIBCMT:umask.obj
 0001:000691ba       _umask                     0046a1ba f   LIBCMT:umask.obj
 0001:000691d0       __alldiv                   0046a1d0 f   LIBCMT:lldiv.obj
 0001:0006927a       _localtime                 0046a27a f   LIBCMT:localtim.obj
 0001:00069400       __endthread                0046a400 f   LIBCMT:thread.obj
 0001:000694d0       __beginthread              0046a4d0 f   LIBCMT:thread.obj
 0001:00069561       _gmtime                    0046a561 f   LIBCMT:gmtime.obj
 0001:00069670       __alloca_probe             0046a670     LIBCMT:chkstk.obj
 0001:00069670       __chkstk                   0046a670 f   LIBCMT:chkstk.obj
 0001:000696ad       _fputs                     0046a6ad f   LIBCMT:fputs.obj
 0001:0006971e       _puts                      0046a71e f   LIBCMT:puts.obj
 0001:000697bf       _fputc                     0046a7bf f   LIBCMT:fputc.obj
 0001:00069817       _putc                      0046a817 f   LIBCMT:fputc.obj
 0001:0006986f       __fclose_lk                0046a86f f   LIBCMT:fclose.obj
 0001:000698bb       _fclose                    0046a8bb f   LIBCMT:fclose.obj
 0001:0006990c       __fsopen                   0046a90c f   LIBCMT:fopen.obj
 0001:00069968       _fopen                     0046a968 f   LIBCMT:fopen.obj
 0001:00069f62       ___tzset                   0046af62 f   LIBCMT:tzset.obj
 0001:00069fae       __tzset                    0046afae f   LIBCMT:tzset.obj
 0001:00069fe3       __isindst                  0046afe3 f   LIBCMT:tzset.obj
 0001:0006a021       ____setlc_active_func      0046b021 f   LIBCMT:setlocal.obj
 0001:0006a027       ____unguarded_readlc_active_add_func 0046b027 f   LIBCMT:setlocal.obj
 0001:0006a02d       ___freetlocinfo            0046b02d f   LIBCMT:setlocal.obj
 0001:0006a1be       ___init_dummy              0046b1be f   LIBCMT:setlocal.obj
 0001:0006a1c1       __strcats                  0046b1c1 f   LIBCMT:setlocal.obj
 0001:0006a1e5       ___lc_strtolc              0046b1e5 f   LIBCMT:setlocal.obj
 0001:0006a2c1       ___lc_lctostr              0046b2c1 f   LIBCMT:setlocal.obj
 0001:0006a30f       ___updatetlocinfo          0046b30f f   LIBCMT:setlocal.obj
 0001:0006a409       __expandlocale             0046b409 f   LIBCMT:setlocal.obj
 0001:0006a9cd       _setlocale                 0046b9cd f   LIBCMT:setlocal.obj
 0001:0006ab27       __flush                    0046bb27 f   LIBCMT:fflush.obj
 0001:0006ab84       __fflush_lk                0046bb84 f   LIBCMT:fflush.obj
 0001:0006ac87       _fflush                    0046bc87 f   LIBCMT:fflush.obj
 0001:0006acd7       __flushall                 0046bcd7 f   LIBCMT:fflush.obj
 0001:0006ace0       __aulldiv                  0046bce0 f   LIBCMT:ulldiv.obj
 0001:0006ad48       __fputchar                 0046bd48 f   LIBCMT:fputchar.obj
 0001:0006ad59       _putchar                   0046bd59 f   LIBCMT:fputchar.obj
 0001:0006ad5e       __fread_lk                 0046bd5e f   LIBCMT:fread.obj
 0001:0006ae47       _fread                     0046be47 f   LIBCMT:fread.obj
 0001:0006ae93       __ftell_lk                 0046be93 f   LIBCMT:ftell.obj
 0001:0006aff5       _ftell                     0046bff5 f   LIBCMT:ftell.obj
 0001:0006b036       __fseek_lk                 0046c036 f   LIBCMT:fseek.obj
 0001:0006b0c5       _fseek                     0046c0c5 f   LIBCMT:fseek.obj
 0001:0006b10e       __fwrite_lk                0046c10e f   LIBCMT:fwrite.obj
 0001:0006b215       _fwrite                    0046c215 f   LIBCMT:fwrite.obj
 0001:0006b261       _ldiv                      0046c261 f   LIBCMT:ldiv.obj
 0001:0006b280       __aulldvrm                 0046c280 f   LIBCMT:ulldvrm.obj
 0001:0006b3b0       _qsort                     0046c3b0 f   LIBCMT:qsort.obj
 0001:0006b633       __copysign                 0046c633 f   LIBCMT:ieeemisc.obj
 0001:0006b654       __chgsign                  0046c654 f   LIBCMT:ieeemisc.obj
 0001:0006b67a       __scalb                    0046c67a f   LIBCMT:ieeemisc.obj
 0001:0006b690       __logb                     0046c690 f   LIBCMT:ieeemisc.obj
 0001:0006b77b       __nextafter                0046c77b f   LIBCMT:ieeemisc.obj
 0001:0006ba1e       __finite                   0046ca1e f   LIBCMT:ieeemisc.obj
 0001:0006ba33       __isnan                    0046ca33 f   LIBCMT:ieeemisc.obj
 0001:0006ba61       __fpclass                  0046ca61 f   LIBCMT:ieeemisc.obj
 0001:0006bb00       _strncpy                   0046cb00 f   LIBCMT:strncpy.obj
 0001:0006bc24       ??_V@YAXPAX@Z              0046cc24 f   LIBCMT:delete2.obj
 0001:0006bc29       ??_U@YAPAXI@Z              0046cc29 f   LIBCMT:new2.obj
 0001:0006bc2e       _rewind                    0046cc2e f   LIBCMT:rewind.obj
 0001:0006bcc0       _strncat                   0046ccc0 f   LIBCMT:strncat.obj
 0001:0006be00       __aullrem                  0046ce00 f   LIBCMT:ullrem.obj
 0001:0006be78       __global_unwind2           0046ce78 f   LIBCMT:exsup.obj
 0001:0006beba       __local_unwind2            0046ceba f   LIBCMT:exsup.obj
 0001:0006bf12       __NLG_Return2              0046cf12     LIBCMT:exsup.obj
 0001:0006bf22       __abnormal_termination     0046cf22 f   LIBCMT:exsup.obj
 0001:0006bf45       __NLG_Notify1              0046cf45 f   LIBCMT:exsup.obj
 0001:0006bf4e       __NLG_Notify               0046cf4e f   LIBCMT:exsup.obj
 0001:0006bf61       __NLG_Dispatch             0046cf61     LIBCMT:exsup.obj
 0001:0006bf70       __except_handler3          0046cf70 f   LIBCMT:exsup3.obj
 0001:0006c056       __seh_longjmp_unwind@4     0046d056 f   LIBCMT:exsup3.obj
 0001:0006c071       __aligned_offset_malloc    0046d071 f   LIBCMT:align.obj
 0001:0006c0ec       __aligned_free             0046d0ec f   LIBCMT:align.obj
 0001:0006c101       __aligned_malloc           0046d101 f   LIBCMT:align.obj
 0001:0006c114       __aligned_offset_realloc   0046d114 f   LIBCMT:align.obj
 0001:0006c265       __aligned_realloc          0046d265 f   LIBCMT:align.obj
 0001:0006c280       __aullshr                  0046d280 f   LIBCMT:ullshr.obj
 0001:0006c2a0       __allshl                   0046d2a0 f   LIBCMT:llshl.obj
 0001:0006c2c0       _pow                       0046d2c0 f   LIBCMT:pow.obj
 0001:0006c300       __CIpow                    0046d300 f   LIBCMT:pow.obj
 0001:0006c33b       __CIpow_default            0046d33b f   LIBCMT:pow.obj
 0001:0006c354       __pow_default              0046d354     LIBCMT:pow.obj
 0001:0006c54a       __assert                   0046d54a f   LIBCMT:assert.obj
 0001:0006c91f       __forcdecpt                0046d91f f   LIBCMT:cvt.obj
 0001:0006c95b       __cropzeros                0046d95b f   LIBCMT:cvt.obj
 0001:0006c9a6       __positive                 0046d9a6 f   LIBCMT:cvt.obj
 0001:0006c9c0       __fassign                  0046d9c0 f   LIBCMT:cvt.obj
 0001:0006cac9       __cftoe                    0046dac9 f   LIBCMT:cvt.obj
 0001:0006cbd1       __cftof                    0046dbd1 f   LIBCMT:cvt.obj
 0001:0006cc33       __cftog                    0046dc33 f   LIBCMT:cvt.obj
 0001:0006cccd       __cfltcvt                  0046dccd f   LIBCMT:cvt.obj
 0001:0006cd1e       __setdefaultprecision      0046dd1e f   LIBCMT:fp8.obj
 0001:0006cd30       __ms_p5_test_fdiv          0046dd30 f   LIBCMT:testfdiv.obj
 0001:0006cd70       __ms_p5_mp_test_fdiv       0046dd70 f   LIBCMT:testfdiv.obj
 0001:0006cd99       __mtinitlocks              0046dd99 f   LIBCMT:mlock.obj
 0001:0006cde2       __mtdeletelocks            0046dde2 f   LIBCMT:mlock.obj
 0001:0006ce37       __unlock                   0046de37 f   LIBCMT:mlock.obj
 0001:0006ce4c       __lockerr_exit             0046de4c f   LIBCMT:mlock.obj
 0001:0006ce64       __mtinitlocknum            0046de64 f   LIBCMT:mlock.obj
 0001:0006cf04       __lock                     0046df04 f   LIBCMT:mlock.obj
 0001:0006cf38       __SEH_prolog               0046df38 f   LIBCMT:sehprolg.obj
 0001:0006cf73       __SEH_epilog               0046df73 f   LIBCMT:sehprolg.obj
 0001:0006cf90       _strcmp                    0046df90 f   LIBCMT:strcmp.obj
 0001:0006d018       ___isctype_mt              0046e018 f   LIBCMT:isctype.obj
 0001:0006d08f       __isctype                  0046e08f f   LIBCMT:isctype.obj
 0001:0006d0b6       ___crtTlsAlloc@4           0046e0b6 f   LIBCMT:tidtable.obj
 0001:0006d0bf       __mtterm                   0046e0bf f   LIBCMT:tidtable.obj
 0001:0006d0dc       __initptd                  0046e0dc f   LIBCMT:tidtable.obj
 0001:0006d0ef       __getptd                   0046e0ef f   LIBCMT:tidtable.obj
 0001:0006d160       __freefls@4                0046e160 f   LIBCMT:tidtable.obj
 0001:0006d2a7       __freeptd                  0046e2a7 f   LIBCMT:tidtable.obj
 0001:0006d2d6       ___threadid                0046e2d6 f   LIBCMT:tidtable.obj
 0001:0006d2dc       ___threadhandle            0046e2dc f   LIBCMT:tidtable.obj
 0001:0006d2e2       __mtinit                   0046e2e2 f   LIBCMT:tidtable.obj
 0001:0006d3d1       ___security_init_cookie    0046e3d1 f   LIBCMT:seccinit.obj
 0001:0006d437       ___security_error_handler  0046e437 f   LIBCMT:secfail.obj
 0001:0006d57f       __set_security_error_handler 0046e57f f   LIBCMT:secfail.obj
 0001:0006d58f       ___buffer_overrun          0046e58f f   LIBCMT:secfail.obj
 0001:0006d59b       ___set_buffer_overrun_handler 0046e59b f   LIBCMT:secfail.obj
 0001:0006d5ab       __flsbuf                   0046e5ab f   LIBCMT:_flsbuf.obj
 0001:0006d771       __output                   0046e771 f   LIBCMT:output.obj
 0001:0006dfc3       __input                    0046efc3 f   LIBCMT:input.obj
 0001:0006ed3f       __stbuf                    0046fd3f f   LIBCMT:_sftbuf.obj
 0001:0006edc7       __ftbuf                    0046fdc7 f   LIBCMT:_sftbuf.obj
 0001:0006ee00       _strcpy                    0046fe00 f   LIBCMT:strcat.obj
 0001:0006ee10       _strcat                    0046fe10 f   LIBCMT:strcat.obj
 0001:0006eef8       __ioinit                   0046fef8 f   LIBCMT:ioinit.obj
 0001:0006f0f6       __ioterm                   004700f6 f   LIBCMT:ioinit.obj
 0001:0006f142       _calloc                    00470142 f   LIBCMT:calloc.obj
 0001:0006f1fd       __fcloseall                004701fd f   LIBCMT:closeall.obj
 0001:0006f318       ___onexitinit              00470318 f   LIBCMT:onexit.obj
 0001:0006f340       __onexit                   00470340 f   LIBCMT:onexit.obj
 0001:0006f378       _atexit                    00470378 f   LIBCMT:onexit.obj
 0001:0006f38a       __RTC_Initialize           0047038a f   LIBCMT:initsect.obj
 0001:0006f3ce       __RTC_Terminate            004703ce f   LIBCMT:initsect.obj
 0001:0006f43e       __XcptFilter               0047043e f   LIBCMT:winxfltr.obj
 0001:0006f5a2       ___CppXcptFilter           004705a2 f   LIBCMT:winxfltr.obj
 0001:0006f5c0       _memcpy                    004705c0 f   LIBCMT:memcpy.obj
 0001:0006f8fd       __filbuf                   004708fd f   LIBCMT:_filbuf.obj
 0001:0006f9de       __mbsrchr                  004709de f   LIBCMT:mbsrchr.obj
 0001:0006fa49       __getpath                  00470a49 f   LIBCMT:getpath.obj
 0001:0006fab8       __access                   00470ab8 f   LIBCMT:access.obj
 0001:0006fb00       _strlen                    00470b00 f   LIBCMT:strlen.obj
 0001:0006fb90       _memset                    00470b90 f   LIBCMT:memset.obj
 0001:0006fbf0       __fdopen                   00470bf0 f   LIBCMT:fdopen.obj
 0001:0006fbf0       _fdopen                    00470bf0 f   LIBCMT:fdopen.obj
 0001:0006fcf5       __close_lk                 00470cf5 f   LIBCMT:close.obj
 0001:0006fd78       _close                     00470d78 f   LIBCMT:close.obj
 0001:0006fd78       __close                    00470d78 f   LIBCMT:close.obj
 0001:0006fe13       __pipe                     00470e13 f   LIBCMT:pipe.obj
 0001:0007000d       __cwait                    0047100d f   LIBCMT:wait.obj
 0001:0007009c       __freebuf                  0047109c f   LIBCMT:_freebuf.obj
 0001:000700c7       ___libm_error_support      004710c7 f   LIBCMT:libm_error.obj
 0001:0007038a       ___sse2_available_init     0047138a f   LIBCMT:cpu_disp.obj
 0001:00070458       __set_SSE2_enable          00471458 f   LIBCMT:cpu_disp.obj
 0001:0007046c       __floor_default            0047146c f   LIBCMT:floor.obj
 0001:0007053f       __mbsnbicoll               0047153f f   LIBCMT:mbsnbico.obj
 0001:0007058d       ___wtomb_environ           0047158d f   LIBCMT:wtombenv.obj
 0001:0007061d       ___pwctype_func            0047161d f   LIBCMT:ctype.obj
 0001:00070623       ___pctype_func             00471623 f   LIBCMT:ctype.obj
 0001:00070629       ___initconin               00471629 f   LIBCMT:initcon.obj
 0001:00070648       ___initconout              00471648 f   LIBCMT:initcon.obj
 0001:00070667       ___termcon                 00471667 f   LIBCMT:initcon.obj
 0001:00070694       __putch_lk                 00471694 f   LIBCMT:putch.obj
 0001:000706d8       __putch                    004716d8 f   LIBCMT:putch.obj
 0001:00070717       __resetstkoflw             00471717 f   LIBCMT:resetstk.obj
 0001:000707fa       __NMSG_WRITE               004717fa f   LIBCMT:crt0msg.obj
 0001:00070971       __GET_RTERRMSG             00471971 f   LIBCMT:crt0msg.obj
 0001:0007099b       __FF_MSGBANNER             0047199b f   LIBCMT:crt0msg.obj
 0001:000709d4       __setenvp                  004719d4 f   LIBCMT:stdenvp.obj
 0001:00070c07       __setargv                  00471c07 f   LIBCMT:stdargv.obj
 0001:00070ca9       ___crtGetEnvironmentStringsA 00471ca9 f   LIBCMT:a_env.obj
 0001:00070dcb       ___heap_select             00471dcb f   LIBCMT:heapinit.obj
 0001:00070de5       __heap_init                00471de5 f   LIBCMT:heapinit.obj
 0001:00070e36       __heap_term                00471e36 f   LIBCMT:heapinit.obj
 0001:00070eb5       __get_heap_handle          00471eb5 f   LIBCMT:heapinit.obj
 0001:00070ebb       ?_set_new_handler@@YAP6AHI@ZP6AHI@Z@Z 00471ebb f   LIBCMT:handler.obj
 0001:00070edf       ?_query_new_handler@@YAP6AHI@ZXZ 00471edf f   LIBCMT:handler.obj
 0001:00070ee5       __callnewh                 00471ee5 f   LIBCMT:handler.obj
 0001:00070f00       __get_sbh_threshold        00471f00 f   LIBCMT:sbheap.obj
 0001:00070f15       ___sbh_heap_init           00471f15 f   LIBCMT:sbheap.obj
 0001:00070f5d       ___sbh_find_block          00471f5d f   LIBCMT:sbheap.obj
 0001:00070f88       ___sbh_free_block          00471f88 f   LIBCMT:sbheap.obj
 0001:000712a0       ___sbh_alloc_new_region    004722a0 f   LIBCMT:sbheap.obj
 0001:00071357       ___sbh_alloc_new_group     00472357 f   LIBCMT:sbheap.obj
 0001:0007145d       ___sbh_resize_block        0047245d f   LIBCMT:sbheap.obj
 0001:0007173c       ___sbh_heapmin             0047273c f   LIBCMT:sbheap.obj
 0001:0007180d       ___sbh_heap_check          0047280d f   LIBCMT:sbheap.obj
 0001:00071b26       __set_sbh_threshold        00472b26 f   LIBCMT:sbheap.obj
 0001:00071b81       ___sbh_alloc_block         00472b81 f   LIBCMT:sbheap.obj
 0001:00071e7d       ___loctotime_t             00472e7d f   LIBCMT:dtoxtime.obj
 0001:00071f9b       ___crtInitCritSecAndSpinCount 00472f9b f   LIBCMT:initcrit.obj
 0001:00072026       __openfile                 00473026 f   LIBCMT:_open.obj
 0001:0007218e       __getstream                0047318e f   LIBCMT:stream.obj
 0001:000722b0       __Getdays                  004732b0 f   LIBCMT:strftime.obj
 0001:0007232f       __Getmonths                0047332f f   LIBCMT:strftime.obj
 0001:000723c4       __Gettnames                004733c4 f   LIBCMT:strftime.obj
 0001:00072db6       __Strftime_mt              00473db6 f   LIBCMT:strftime.obj
 0001:00072e7b       __Strftime                 00473e7b f   LIBCMT:strftime.obj
 0001:00072ead       _strftime                  00473ead f   LIBCMT:strftime.obj
 0001:00072ec8       _localeconv                00473ec8 f   LIBCMT:lconv.obj
 0001:00073235       ___free_lc_time            00474235 f   LIBCMT:inittime.obj
 0001:000733c5       ___init_time               004743c5 f   LIBCMT:inittime.obj
 0001:00073457       ___free_lconv_num          00474457 f   LIBCMT:initnum.obj
 0001:000734b6       ___init_numeric            004744b6 f   LIBCMT:initnum.obj
 0001:000736b6       ___free_lconv_mon          004746b6 f   LIBCMT:initmon.obj
 0001:0007378f       ___init_monetary           0047478f f   LIBCMT:initmon.obj
 0001:000739ce       ___init_ctype              004749ce f   LIBCMT:initctyp.obj
 0001:00073bb8       ____mb_cur_max_func        00474bb8 f   LIBCMT:initctyp.obj
 0001:00073bbe       ____lc_codepage_func       00474bbe f   LIBCMT:initctyp.obj
 0001:00073bd7       ____lc_collate_cp_func     00474bd7 f   LIBCMT:initctyp.obj
 0001:00073bf0       ____lc_handle_func         00474bf0 f   LIBCMT:initctyp.obj
 0001:00073c09       ___init_collate            00474c09 f   LIBCMT:initcoll.obj
 0001:00073c10       _strcspn                   00474c10 f   LIBCMT:strcspn.obj
 0001:00074395       ___get_qualified_locale    00475395 f   LIBCMT:getqloc.obj
 0001:00074550       _memcmp                    00475550 f   LIBCMT:memcmp.obj
 0001:00074608       ___crtGetStringTypeA       00475608 f   LIBCMT:a_str.obj
 0001:000747d0       _strpbrk                   004757d0 f   LIBCMT:strpbrk.obj
 0001:00074810       __write_lk                 00475810 f   LIBCMT:write.obj
 0001:000749de       __write                    004759de f   LIBCMT:write.obj
 0001:000749de       _write                     004759de f   LIBCMT:write.obj
 0001:00074a89       __commit                   00475a89 f   LIBCMT:commit.obj
 0001:00074b45       __read_lk                  00475b45 f   LIBCMT:read.obj
 0001:00074d20       __read                     00475d20 f   LIBCMT:read.obj
 0001:00074d20       _read                      00475d20 f   LIBCMT:read.obj
 0001:00074dcb       __lseek_lk                 00475dcb f   LIBCMT:lseek.obj
 0001:00074e3f       __lseek                    00475e3f f   LIBCMT:lseek.obj
 0001:00074eea       _ldexp                     00475eea f   LIBCMT:ldexp.obj
 0001:000750d5       __set_exp                  004760d5 f   LIBCMT:util.obj
 0001:000750ff       __get_exp                  004760ff f   LIBCMT:util.obj
 0001:00075114       __add_exp                  00476114 f   LIBCMT:util.obj
 0001:0007513e       __set_bexp                 0047613e f   LIBCMT:util.obj
 0001:00075163       __sptype                   00476163 f   LIBCMT:util.obj
 0001:000751be       __decomp                   004761be f   LIBCMT:util.obj
 0001:0007527a       __raise_exc                0047627a f   LIBCMT:fpexcept.obj
 0001:0007551f       __handle_exc               0047651f f   LIBCMT:fpexcept.obj
 0001:00075743       __set_errno                00476743 f   LIBCMT:fpexcept.obj
 0001:0007578b       __errcode                  0047678b f   LIBCMT:fpexcept.obj
 0001:000757b8       __umatherr                 004767b8 f   LIBCMT:fpexcept.obj
 0001:00075856       __handle_qnan1             00476856 f   LIBCMT:fpexcept.obj
 0001:000758a9       __handle_qnan2             004768a9 f   LIBCMT:fpexcept.obj
 0001:00075908       __except1                  00476908 f   LIBCMT:fpexcept.obj
 0001:000759c0       __except2                  004769c0 f   LIBCMT:fpexcept.obj
 0001:00075a89       __statfp                   00476a89 f   LIBCMT:fpctrl.obj
 0001:00075a94       __clrfp                    00476a94 f   LIBCMT:fpctrl.obj
 0001:00075aa0       __ctrlfp                   00476aa0 f   LIBCMT:fpctrl.obj
 0001:00075ac4       __set_statfp               00476ac4 f   LIBCMT:fpctrl.obj
 0001:00075b1a       __ValidateEH3RN            00476b1a f   LIBCMT:eh3valid.obj
 0001:00075d43       __expand                   00476d43 f   LIBCMT:expand.obj
 0001:00075ded       __msize                    00476ded f   LIBCMT:msize.obj
 0001:00075e70       __CIpow_pentium4           00476e70 f   LIBCMT:pow_pentium4.obj
 0001:00075e89       __pow_pentium4             00476e89     LIBCMT:pow_pentium4.obj
 0001:000769d1       __fFEXP                    004779d1     LIBCMT:87tran.obj
 0001:00076a38       __rtinfpopse               00477a38     LIBCMT:87tran.obj
 0001:00076a3a       __rtinfnpopse              00477a3a     LIBCMT:87tran.obj
 0001:00076a4a       __fFLN                     00477a4a     LIBCMT:87tran.obj
 0001:00076aff       __rtinfpop                 00477aff     LIBCMT:87tran.obj
 0001:00076b01       __rtinfnpop                00477b01     LIBCMT:87tran.obj
 0001:00076b1e       __ffexpm1                  00477b1e     LIBCMT:87tran.obj
 0001:00076bd0       __trandisp1                00477bd0 f   LIBCMT:87disp.obj
 0001:00076c37       __trandisp2                00477c37 f   LIBCMT:87disp.obj
 0001:00076cc3       __rttospopde               00477cc3     LIBCMT:87disp.obj
 0001:00076cc8       __rttospop                 00477cc8     LIBCMT:87disp.obj
 0001:00076cca       __rtnospop                 00477cca     LIBCMT:87disp.obj
 0001:00076ccc       __rttosnpop                00477ccc     LIBCMT:87disp.obj
 0001:00076ccd       __rtnospopde               00477ccd     LIBCMT:87disp.obj
 0001:00076cd4       __rtzeropop                00477cd4     LIBCMT:87disp.obj
 0001:00076cd6       __rtzeronpop               00477cd6     LIBCMT:87disp.obj
 0001:00076cdb       __rtonepop                 00477cdb     LIBCMT:87disp.obj
 0001:00076cdd       __rtonenpop                00477cdd     LIBCMT:87disp.obj
 0001:00076ce2       __tosnan1                  00477ce2     LIBCMT:87disp.obj
 0001:00076d0d       __nosnan2                  00477d0d     LIBCMT:87disp.obj
 0001:00076d0f       __tosnan2                  00477d0f     LIBCMT:87disp.obj
 0001:00076d37       __nan2                     00477d37     LIBCMT:87disp.obj
 0001:00076d76       __rtindfpop                00477d76     LIBCMT:87disp.obj
 0001:00076d78       __rtindfnpop               00477d78     LIBCMT:87disp.obj
 0001:00076d89       __rttosnpopde              00477d89     LIBCMT:87disp.obj
 0001:00076d93       __rtchsifneg               00477d93     LIBCMT:87disp.obj
 0001:00076da0       __startTwoArgErrorHandling 00477da0 f   LIBCMT:genexcep.obj
 0001:00076db7       __startOneArgErrorHandling 00477db7 f   LIBCMT:genexcep.obj
 0001:00076e00       __twoToTOS                 00477e00 f   LIBCMT:common.obj
 0001:00076e15       __load_CW                  00477e15 f   LIBCMT:common.obj
 0001:00076e2c       __convertTOStoQNaN         00477e2c f   LIBCMT:common.obj
 0001:00076e45       __fload_withFB             00477e45 f   LIBCMT:common.obj
 0001:00076e88       __checkTOS_withFB          00477e88 f   LIBCMT:common.obj
 0001:00076e9e       __fast_exit                00477e9e f   LIBCMT:common.obj
 0001:00076eab       __math_exit                00477eab f   LIBCMT:common.obj
 0001:00076ed5       __check_overflow_exit      00477ed5 f   LIBCMT:common.obj
 0001:00076ee9       __check_range_exit         00477ee9 f   LIBCMT:common.obj
 0001:00076f8c       __d_inttype                00477f8c f   LIBCMT:powhlp.obj
 0001:00076ffa       __powhlp                   00477ffa f   LIBCMT:powhlp.obj
 0001:0007715c       _abort                     0047815c f   LIBCMT:abort.obj
 0001:00077174       ___crtMessageBoxA          00478174 f   LIBCMT:crtmbox.obj
 0001:000772ab       __itoa                     004782ab f   LIBCMT:xtoa.obj
 0001:000772d5       __ltoa                     004782d5 f   LIBCMT:xtoa.obj
 0001:000772fc       __ultoa                    004782fc f   LIBCMT:xtoa.obj
 0001:00077383       __i64toa                   00478383 f   LIBCMT:xtoa.obj
 0001:000773b4       __ui64toa                  004783b4 f   LIBCMT:xtoa.obj
 0001:000773cf       __tolower                  004783cf f   LIBCMT:tolower.obj
 0001:000773d7       ___tolower_mt              004783d7 f   LIBCMT:tolower.obj
 0001:0007749f       _tolower                   0047849f f   LIBCMT:tolower.obj
 0001:000774c1       __ZeroTail                 004784c1 f   LIBCMT:intrncvt.obj
 0001:000774f3       __IncMan                   004784f3 f   LIBCMT:intrncvt.obj
 0001:00077540       __RoundMan                 00478540 f   LIBCMT:intrncvt.obj
 0001:000775b2       __CopyMan                  004785b2 f   LIBCMT:intrncvt.obj
 0001:000775cd       __FillZeroMan              004785cd f   LIBCMT:intrncvt.obj
 0001:000775d9       __IsZeroMan                004785d9 f   LIBCMT:intrncvt.obj
 0001:000775f2       __ShrMan                   004785f2 f   LIBCMT:intrncvt.obj
 0001:0007766d       __ld12cvt                  0047866d f   LIBCMT:intrncvt.obj
 0001:000777c5       __ld12tod                  004787c5 f   LIBCMT:intrncvt.obj
 0001:000777db       __ld12tof                  004787db f   LIBCMT:intrncvt.obj
 0001:000777f1       __ld12told                 004787f1 f   LIBCMT:intrncvt.obj
 0001:0007786d       __atodbl                   0047886d f   LIBCMT:intrncvt.obj
 0001:000778aa       __atoldbl                  004788aa f   LIBCMT:intrncvt.obj
 0001:000778e8       __atoflt                   004788e8 f   LIBCMT:intrncvt.obj
 0001:00077925       __fptostr                  00478925 f   LIBCMT:_fptostr.obj
 0001:0007799c       ___dtold                   0047899c f   LIBCMT:cfout.obj
 0001:00077a56       __fltout2                  00478a56 f   LIBCMT:cfout.obj
 0001:00077ac2       __fptrap                   00478ac2 f   LIBCMT:crt0fp.obj
 0001:00077acb       __fpreset                  00478acb f   LIBCMT:ieee87.obj
 0001:00077c4f       __statusfp                 00478c4f f   LIBCMT:ieee87.obj
 0001:00077c5f       __clearfp                  00478c5f f   LIBCMT:ieee87.obj
 0001:00077c70       __control87                00478c70 f   LIBCMT:ieee87.obj
 0001:00077ca2       __controlfp                00478ca2 f   LIBCMT:ieee87.obj
 0001:00077ee2       ___updatetmbcinfo          00478ee2 f   LIBCMT:mbctype.obj
 0001:000780e1       __getmbcp                  004790e1 f   LIBCMT:mbctype.obj
 0001:000780f1       __setmbcp                  004790f1 f   LIBCMT:mbctype.obj
 0001:00078241       ___initmbctable            00479241 f   LIBCMT:mbctype.obj
 0001:0007825f       __getbuf                   0047925f f   LIBCMT:_getbuf.obj
 0001:000782a3       __isatty                   004792a3 f   LIBCMT:isatty.obj
 0001:000782cd       ___wctomb_mt               004792cd f   LIBCMT:wctomb.obj
 0001:0007832d       _wctomb                    0047932d f   LIBCMT:wctomb.obj
 0001:00078354       __ungetc_lk                00479354 f   LIBCMT:ungetc.obj
 0001:000783c0       _ungetc                    004793c0 f   LIBCMT:ungetc.obj
 0001:00078405       ___mbtowc_mt               00479405 f   LIBCMT:mbtowc.obj
 0001:000784c5       _mbtowc                    004794c5 f   LIBCMT:mbtowc.obj
 0001:000784f0       __matherr                  004794f0 f   LIBCMT:matherr.obj
 0001:000784f3       __frnd                     004794f3 f   LIBCMT:frnd.obj
 0001:00078520       ___crtCompareStringA       00479520 f   LIBCMT:a_cmp.obj
 0001:00078952       ___crtsetenv               00479952 f   LIBCMT:setenv.obj
 0001:00078e0e       __open                     00479e0e f   LIBCMT:open.obj
 0001:00078e63       __sopen                    00479e63 f   LIBCMT:open.obj
 0001:00078ec0       ___ascii_stricmp           00479ec0 f   LIBCMT:_stricmp.obj
 0001:00078f0e       ___getlocaleinfo           00479f0e f   LIBCMT:inithelp.obj
 0001:00079035       __stricmp                  0047a035 f   LIBCMT:stricmp.obj
 0001:00079035       _stricmp                   0047a035 f   LIBCMT:stricmp.obj
 0001:0007909e       __strnicmp                 0047a09e f   LIBCMT:strnicmp.obj
 0001:0007911d       ___ansicp                  0047a11d f   LIBCMT:convrtcp.obj
 0001:00079160       ___convertcp               0047a160 f   LIBCMT:convrtcp.obj
 0001:00079330       _fdiv_main_routine         0047a330 f   LIBCMT:adj_fdiv.obj
 0001:00079447       __adj_fdiv_r               0047a447 f   LIBCMT:adj_fdiv.obj
 0001:000798e6       __fdivp_sti_st             0047a8e6 f   LIBCMT:adj_fdiv.obj
 0001:000798f9       __fdivrp_sti_st            0047a8f9 f   LIBCMT:adj_fdiv.obj
 0001:0007990c       __adj_fdiv_m32             0047a90c f   LIBCMT:adj_fdiv.obj
 0001:00079958       __adj_fdiv_m64             0047a958 f   LIBCMT:adj_fdiv.obj
 0001:000799a4       __adj_fdiv_m16i            0047a9a4 f   LIBCMT:adj_fdiv.obj
 0001:000799d8       __adj_fdiv_m32i            0047a9d8 f   LIBCMT:adj_fdiv.obj
 0001:00079a0c       __adj_fdivr_m32            0047aa0c f   LIBCMT:adj_fdiv.obj
 0001:00079a58       __adj_fdivr_m64            0047aa58 f   LIBCMT:adj_fdiv.obj
 0001:00079aa4       __adj_fdivr_m16i           0047aaa4 f   LIBCMT:adj_fdiv.obj
 0001:00079ad8       __adj_fdivr_m32i           0047aad8 f   LIBCMT:adj_fdiv.obj
 0001:00079b0c       __safe_fdiv                0047ab0c f   LIBCMT:adj_fdiv.obj
 0001:00079b21       __safe_fdivr               0047ab21 f   LIBCMT:adj_fdiv.obj
 0001:00079b36       __fprem_common             0047ab36 f   LIBCMT:adj_fdiv.obj
 0001:00079d3c       __adj_fprem                0047ad3c f   LIBCMT:adj_fdiv.obj
 0001:00079dee       __fprem1_common            0047adee f   LIBCMT:adj_fdiv.obj
 0001:00079ff4       __adj_fprem1               0047aff4 f   LIBCMT:adj_fdiv.obj
 0001:0007a0a9       __safe_fprem               0047b0a9 f   LIBCMT:adj_fdiv.obj
 0001:0007a0af       __safe_fprem1              0047b0af f   LIBCMT:adj_fdiv.obj
 0001:0007a0b5       __adj_fpatan               0047b0b5 f   LIBCMT:adj_fdiv.obj
 0001:0007a0b8       __adj_fptan                0047b0b8 f   LIBCMT:adj_fdiv.obj
 0001:0007a0bb       __87except                 0047b0bb f   LIBCMT:87except.obj
 0001:0007a1cf       ___crtLCMapStringA         0047b1cf f   LIBCMT:a_map.obj
 0001:0007a58b       ___addl                    0047b58b f   LIBCMT:mantold.obj
 0001:0007a5ac       ___add_12                  0047b5ac f   LIBCMT:mantold.obj
 0001:0007a60a       ___shl_12                  0047b60a f   LIBCMT:mantold.obj
 0001:0007a638       ___shr_12                  0047b638 f   LIBCMT:mantold.obj
 0001:0007a665       ___mtold12                 0047b665 f   LIBCMT:mantold.obj
 0001:0007a743       ___strgtold12              0047b743 f   LIBCMT:strgtold.obj
 0001:0007ab77       ___STRINGTOLD              0047bb77 f   LIBCMT:strgtold.obj
 0001:0007abc3       _$I10_OUTPUT               0047bbc3 f   LIBCMT:x10fout.obj
 0001:0007ae51       __strdup                   0047be51 f   LIBCMT:strdup.obj
 0001:0007ae51       _strdup                    0047be51 f   LIBCMT:strdup.obj
 0001:0007ae7c       __mbschr                   0047be7c f   LIBCMT:mbschr.obj
 0001:0007aef7       __chsize_lk                0047bef7 f   LIBCMT:chsize.obj
 0001:0007b038       __chsize                   0047c038 f   LIBCMT:chsize.obj
 0001:0007b0cf       ___crtGetLocaleInfoW       0047c0cf f   LIBCMT:w_loc.obj
 0001:0007b1ff       ___crtGetLocaleInfoA       0047c1ff f   LIBCMT:a_loc.obj
 0001:0007b340       ___ascii_strnicmp          0047c340 f   LIBCMT:_strnicm.obj
 0001:0007b3a1       ___ld12mul                 0047c3a1 f   LIBCMT:tenpow.obj
 0001:0007b5d3       ___multtenpow12            0047c5d3 f   LIBCMT:tenpow.obj
 0001:0007b659       __setmode_lk               0047c659 f   LIBCMT:setmode.obj
 0001:0007b6c5       __setmode                  0047c6c5 f   LIBCMT:setmode.obj
 0001:0007b75c       _CreateEventA@16           0047c75c f   kernel32:KERNEL32.dll
 0001:0007b762       _SetEvent@4                0047c762 f   kernel32:KERNEL32.dll
 0001:0007b768       _ResetEvent@4              0047c768 f   kernel32:KERNEL32.dll
 0001:0007b76e       _WaitForMultipleObjects@16 0047c76e f   kernel32:KERNEL32.dll
 0001:0007b774       _TryEnterCriticalSection@4 0047c774 f   kernel32:KERNEL32.dll
 0001:0007b77a       _SetThreadPriority@8       0047c77a f   kernel32:KERNEL32.dll
 0001:0007b780       _GetLocaleInfoA@16         0047c780 f   kernel32:KERNEL32.dll
 0001:0007b786       _GetSystemDirectoryA@8     0047c786 f   kernel32:KERNEL32.dll
 0001:0007b78c       _GetWindowsDirectoryA@8    0047c78c f   kernel32:KERNEL32.dll
 0001:0007b792       _InterlockedIncrement@4    0047c792 f   kernel32:KERNEL32.dll
 0001:0007b798       _DeleteFileA@4             0047c798 f   kernel32:KERNEL32.dll
 0001:0007b79e       _MoveFileA@8               0047c79e f   kernel32:KERNEL32.dll
 0001:0007b7a4       _GetTickCount@0            0047c7a4 f   kernel32:KERNEL32.dll
 0001:0007b7aa       _GetFileAttributesExA@12   0047c7aa f   kernel32:KERNEL32.dll
 0001:0007b7b0       _SetEndOfFile@4            0047c7b0 f   kernel32:KERNEL32.dll
 0001:0007b7b6       _SetFilePointer@16         0047c7b6 f   kernel32:KERNEL32.dll
 0001:0007b7bc       _ReadFile@20               0047c7bc f   kernel32:KERNEL32.dll
 0001:0007b7c2       _WriteFile@20              0047c7c2 f   kernel32:KERNEL32.dll
 0001:0007b7c8       _UnmapViewOfFile@4         0047c7c8 f   kernel32:KERNEL32.dll
 0001:0007b7ce       _FindClose@4               0047c7ce f   kernel32:KERNEL32.dll
 0001:0007b7d4       _FindNextFileA@8           0047c7d4 f   kernel32:KERNEL32.dll
 0001:0007b7da       _FindFirstFileA@8          0047c7da f   kernel32:KERNEL32.dll
 0001:0007b7e0       _QueryPerformanceCounter@4 0047c7e0 f   kernel32:KERNEL32.dll
 0001:0007b7e6       _QueryPerformanceFrequency@4 0047c7e6 f   kernel32:KERNEL32.dll
 0001:0007b7ec       _ExitProcess@4             0047c7ec f   kernel32:KERNEL32.dll
 0001:0007b7f2       _SetConsoleCtrlHandler@8   0047c7f2 f   kernel32:KERNEL32.dll
 0001:0007b7f8       _ReadConsoleInputA@16      0047c7f8 f   kernel32:KERNEL32.dll
 0001:0007b7fe       _SetConsoleMode@8          0047c7fe f   kernel32:KERNEL32.dll
 0001:0007b804       _GetConsoleMode@8          0047c804 f   kernel32:KERNEL32.dll
 0001:0007b80a       _PeekConsoleInputA@16      0047c80a f   kernel32:KERNEL32.dll
 0001:0007b810       _GetNumberOfConsoleInputEvents@8 0047c810 f   kernel32:KERNEL32.dll
 0001:0007b816       _WriteConsoleA@20          0047c816 f   kernel32:KERNEL32.dll
 0001:0007b81c       _GetCommandLineA@0         0047c81c f   kernel32:KERNEL32.dll
 0001:0007b822       _GetVersionExA@4           0047c822 f   kernel32:KERNEL32.dll
 0001:0007b828       _HeapReAlloc@16            0047c828 f   kernel32:KERNEL32.dll
 0001:0007b82e       _HeapAlloc@12              0047c82e f   kernel32:KERNEL32.dll
 0001:0007b834       _HeapFree@12               0047c834 f   kernel32:KERNEL32.dll
 0001:0007b83a       _FileTimeToSystemTime@8    0047c83a f   kernel32:KERNEL32.dll
 0001:0007b840       _FileTimeToLocalFileTime@8 0047c840 f   kernel32:KERNEL32.dll
 0001:0007b846       _SetStdHandle@8            0047c846 f   kernel32:KERNEL32.dll
 0001:0007b84c       _GetFileType@4             0047c84c f   kernel32:KERNEL32.dll
 0001:0007b852       _ExitThread@4              0047c852 f   kernel32:KERNEL32.dll
 0001:0007b858       _ResumeThread@4            0047c858 f   kernel32:KERNEL32.dll
 0001:0007b85e       _CreateThread@24           0047c85e f   kernel32:KERNEL32.dll
 0001:0007b864       _WideCharToMultiByte@32    0047c864 f   kernel32:KERNEL32.dll
 0001:0007b86a       _GetTimeZoneInformation@4  0047c86a f   kernel32:KERNEL32.dll
 0001:0007b870       _RtlUnwind@16              0047c870 f   kernel32:KERNEL32.dll
 0001:0007b876       _FatalAppExitA@8           0047c876 f   kernel32:KERNEL32.dll
 0001:0007b87c       _TlsAlloc@0                0047c87c f   kernel32:KERNEL32.dll
 0001:0007b882       _GetCurrentThread@0        0047c882 f   kernel32:KERNEL32.dll
 0001:0007b888       _TlsFree@4                 0047c888 f   kernel32:KERNEL32.dll
 0001:0007b88e       _TlsSetValue@8             0047c88e f   kernel32:KERNEL32.dll
 0001:0007b894       _TlsGetValue@4             0047c894 f   kernel32:KERNEL32.dll
 0001:0007b89a       _GetCurrentProcessId@0     0047c89a f   kernel32:KERNEL32.dll
 0001:0007b8a0       _SetHandleCount@4          0047c8a0 f   kernel32:KERNEL32.dll
 0001:0007b8a6       _GetStdHandle@4            0047c8a6 f   kernel32:KERNEL32.dll
 0001:0007b8ac       _GetStartupInfoA@4         0047c8ac f   kernel32:KERNEL32.dll
 0001:0007b8b2       _UnhandledExceptionFilter@4 0047c8b2 f   kernel32:KERNEL32.dll
 0001:0007b8b8       _GetFileAttributesA@4      0047c8b8 f   kernel32:KERNEL32.dll
 0001:0007b8be       _CreatePipe@16             0047c8be f   kernel32:KERNEL32.dll
 0001:0007b8c4       _VirtualProtect@16         0047c8c4 f   kernel32:KERNEL32.dll
 0001:0007b8ca       _VirtualAlloc@16           0047c8ca f   kernel32:KERNEL32.dll
 0001:0007b8d0       _GetSystemInfo@4           0047c8d0 f   kernel32:KERNEL32.dll
 0001:0007b8d6       _VirtualQuery@12           0047c8d6 f   kernel32:KERNEL32.dll
 0001:0007b8dc       _FreeEnvironmentStringsA@4 0047c8dc f   kernel32:KERNEL32.dll
 0001:0007b8e2       _GetEnvironmentStrings@0   0047c8e2 f   kernel32:KERNEL32.dll
 0001:0007b8e8       _FreeEnvironmentStringsW@4 0047c8e8 f   kernel32:KERNEL32.dll
 0001:0007b8ee       _GetEnvironmentStringsW@0  0047c8ee f   kernel32:KERNEL32.dll
 0001:0007b8f4       _HeapDestroy@4             0047c8f4 f   kernel32:KERNEL32.dll
 0001:0007b8fa       _HeapCreate@12             0047c8fa f   kernel32:KERNEL32.dll
 0001:0007b900       _VirtualFree@12            0047c900 f   kernel32:KERNEL32.dll
 0001:0007b906       _IsBadWritePtr@8           0047c906 f   kernel32:KERNEL32.dll
 0001:0007b90c       _GetTimeFormatA@24         0047c90c f   kernel32:KERNEL32.dll
 0001:0007b912       _GetDateFormatA@24         0047c912 f   kernel32:KERNEL32.dll
 0001:0007b918       _GetCPInfo@8               0047c918 f   kernel32:KERNEL32.dll
 0001:0007b91e       _GetUserDefaultLCID@0      0047c91e f   kernel32:KERNEL32.dll
 0001:0007b924       _EnumSystemLocalesA@8      0047c924 f   kernel32:KERNEL32.dll
 0001:0007b92a       _IsValidLocale@8           0047c92a f   kernel32:KERNEL32.dll
 0001:0007b930       _IsValidCodePage@4         0047c930 f   kernel32:KERNEL32.dll
 0001:0007b936       _GetStringTypeA@20         0047c936 f   kernel32:KERNEL32.dll
 0001:0007b93c       _MultiByteToWideChar@24    0047c93c f   kernel32:KERNEL32.dll
 0001:0007b942       _GetStringTypeW@16         0047c942 f   kernel32:KERNEL32.dll
 0001:0007b948       _FlushFileBuffers@4        0047c948 f   kernel32:KERNEL32.dll
 0001:0007b94e       _RaiseException@16         0047c94e f   kernel32:KERNEL32.dll
 0001:0007b954       _InterlockedExchange@8     0047c954 f   kernel32:KERNEL32.dll
 0001:0007b95a       _HeapSize@12               0047c95a f   kernel32:KERNEL32.dll
 0001:0007b960       _LoadLibraryA@4            0047c960 f   kernel32:KERNEL32.dll
 0001:0007b966       _GetACP@0                  0047c966 f   kernel32:KERNEL32.dll
 0001:0007b96c       _GetOEMCP@0                0047c96c f   kernel32:KERNEL32.dll
 0001:0007b972       _CompareStringA@24         0047c972 f   kernel32:KERNEL32.dll
 0001:0007b978       _CompareStringW@24         0047c978 f   kernel32:KERNEL32.dll
 0001:0007b97e       _SetEnvironmentVariableA@8 0047c97e f   kernel32:KERNEL32.dll
 0001:0007b984       _LCMapStringA@24           0047c984 f   kernel32:KERNEL32.dll
 0001:0007b98a       _LCMapStringW@24           0047c98a f   kernel32:KERNEL32.dll
 0001:0007b990       _GetLocaleInfoW@16         0047c990 f   kernel32:KERNEL32.dll
 0001:0007b996       _SetTimer@16               0047c996 f   user32:USER32.dll
 0001:0007b99c       _KillTimer@8               0047c99c f   user32:USER32.dll
 0001:0007b9a2       _PeekMessageA@20           0047c9a2 f   user32:USER32.dll
 0001:0007b9a8       _RegCloseKey@4             0047c9a8 f   advapi32:ADVAPI32.dll
 0001:0007b9ae       _RegEnumValueA@32          0047c9ae f   advapi32:ADVAPI32.dll
 0001:0007b9b4       _RegOpenKeyExA@20          0047c9b4 f   advapi32:ADVAPI32.dll
 0001:0007b9ba       _CryptAcquireContextA@20   0047c9ba f   advapi32:ADVAPI32.dll
 0001:0007b9c0       _CryptReleaseContext@8     0047c9c0 f   advapi32:ADVAPI32.dll
 0001:0007b9c6       _CryptGenRandom@12         0047c9c6 f   advapi32:ADVAPI32.dll
 0001:0007b9cc       _inet_ntoa@4               0047c9cc f   wsock32:WSOCK32.dll
 0001:0007b9d2       ___dtoxmode                0047c9d2 f   LIBCMT:stat.obj
 0001:0007bafc       __stat                     0047cafc f   LIBCMT:stat.obj
 0001:0007bafc       _stat                      0047cafc f   LIBCMT:stat.obj
 0001:0007be43       _remove                    0047ce43 f   LIBCMT:unlink.obj
 0001:0007be6d       _unlink                    0047ce6d f   LIBCMT:unlink.obj
 0001:0007be6d       __unlink                   0047ce6d f   LIBCMT:unlink.obj
 0001:0007be72       __fstat                    0047ce72 f   LIBCMT:fstat.obj
 0001:0007be72       _fstat                     0047ce72 f   LIBCMT:fstat.obj
 0001:0007c12e       __fileno                   0047d12e f   LIBCMT:fileno.obj
 0001:0007c12e       _fileno                    0047d12e f   LIBCMT:fileno.obj
 0001:0007c136       __putenv_lk                0047d136 f   LIBCMT:putenv.obj
 0001:0007c1fd       __putenv                   0047d1fd f   LIBCMT:putenv.obj
 0001:0007c1fd       _putenv                    0047d1fd f   LIBCMT:putenv.obj
 0001:0007c23c       __validdrive               0047d23c f   LIBCMT:getcwd.obj
 0001:0007c273       __getdcwd_lk               0047d273 f   LIBCMT:getcwd.obj
 0001:0007c35e       __getcwd                   0047d35e f   LIBCMT:getcwd.obj
 0001:0007c35e       _getcwd                    0047d35e f   LIBCMT:getcwd.obj
 0001:0007c3a4       __getdcwd                  0047d3a4 f   LIBCMT:getcwd.obj
 0001:0007c3eb       _chdir                     0047d3eb f   LIBCMT:chdir.obj
 0001:0007c3eb       __chdir                    0047d3eb f   LIBCMT:chdir.obj
 0001:0007c52e       __mbsicmp                  0047d52e f   LIBCMT:mbsicmp.obj
 0001:0007c679       __fullpath                 0047d679 f   LIBCMT:fullpath.obj
 0001:0007c723       __getdrive                 0047d723 f   LIBCMT:drive.obj
 0001:0007c808       __chdrive                  0047d808 f   LIBCMT:drive.obj
 0001:0007c896       __mbctolower               0047d896 f   LIBCMT:mbtolwr.obj
 0001:0007c91b       ___mbspbrk_mt              0047d91b f   LIBCMT:mbspbrk.obj
 0001:0007c997       __mbspbrk                  0047d997 f   LIBCMT:mbspbrk.obj
 0001:0007ca70       ___crtwsetenv              0047da70 f   LIBCMT:wsetenv.obj
 0001:0007cd3c       __mbctoupper               0047dd3c f   LIBCMT:mbtoupr.obj
 0001:0007cdc1       __toupper                  0047ddc1 f   LIBCMT:toupper.obj
 0001:0007cdc9       ___toupper_mt              0047ddc9 f   LIBCMT:toupper.obj
 0001:0007ce92       _toupper                   0047de92 f   LIBCMT:toupper.obj
 0001:0007ceb4       __wcsnicoll                0047deb4 f   LIBCMT:wcsnicol.obj
 0001:0007cf71       __wcsdup                   0047df71 f   LIBCMT:wcsdup.obj
 0001:0007cf9f       _wcscat                    0047df9f f   LIBCMT:wcscat.obj
 0001:0007cfc9       _wcscpy                    0047dfc9 f   LIBCMT:wcscat.obj
 0001:0007cfe5       _wcslen                    0047dfe5 f   LIBCMT:wcslen.obj
 0001:0007cffb       ___mbtow_environ           0047dffb f   LIBCMT:mbtowenv.obj
 0001:0007d07d       _wcschr                    0047e07d f   LIBCMT:wcschr.obj
 0001:0007d0bd       ___crtCompareStringW       0047e0bd f   LIBCMT:w_cmp.obj
 0001:0007d310       _GetDriveTypeA@4           0047e310 f   kernel32:KERNEL32.dll
 0001:0007d316       _GetFileInformationByHandle@8 0047e316 f   kernel32:KERNEL32.dll
 0001:0007d31c       _PeekNamedPipe@24          0047e31c f   kernel32:KERNEL32.dll
 0001:0007d322       _GetCurrentDirectoryA@8    0047e322 f   kernel32:KERNEL32.dll
 0001:0007d328       _GetFullPathNameA@16       0047e328 f   kernel32:KERNEL32.dll
 0001:0007d32e       _SetCurrentDirectoryA@4    0047e32e f   kernel32:KERNEL32.dll
 0001:0007d334       _SetEnvironmentVariableW@8 0047e334 f   kernel32:KERNEL32.dll
 0002:0000001c       ?BUFFER_INITIAL_SIZE@Buffer@@0IB 0049c01c     buffer.obj
 0002:00000020       ?MAX_BUFFER_SIZE@Buffer@@0IB 0049c020     buffer.obj
 0002:00000028       __real@3ff8000000000000    0049c028     buffer.obj
 0002:00000038       __real@41f0000000000000    0049c038     buffer.obj
 0002:00000048       ??_7Command@@6B@           0049c048     command.obj
 0002:00000054       ??_C@_07OFPCFMBE@offline?$AA@ 0049c054     commands.obj
 0002:00000060       ??_C@_06GNLMCJKK@online?$AA@ 0049c060     commands.obj
 0002:00000068       ??_C@_06DJIHEMFI@status?$AA@ 0049c068     commands.obj
 0002:00000070       ??_C@_0O@MIFOIHFB@instance_name?$AA@ 0049c070     commands.obj
 0002:00000084       ??_7Show_instance_status@@6B@ 0049c084     commands.obj
 0002:00000090       ??_C@_07CIFAGBMG@unknown?$AA@ 0049c090     commands.obj
 0002:0000009c       ??_C@_07CPCPJPKL@version?$AA@ 0049c09c     commands.obj
 0002:000000ac       ??_7Show_instance_options@@6B@ 0049c0ac     commands.obj
 0002:000000b6       ??_C@_00CNPNBAHC@?$AA@     0049c0b6     commands.obj
 0002:000000b8       ??_C@_0L@PNJKAIKE@nonguarded?$AA@ 0049c0b8     commands.obj
 0002:000000c8       ??_C@_0M@IKAFELGN@mysqld?9path?$AA@ 0049c0c8     commands.obj
 0002:000000d8       ??_C@_05MFEJDJP@value?$AA@ 0049c0d8     commands.obj
 0002:000000e0       ??_C@_0M@PNCLCLFB@option_name?$AA@ 0049c0e0     commands.obj
 0002:000000f4       ??_7Start_instance@@6B@    0049c0f4     commands.obj
 0002:00000100       ??_C@_0BB@EIFMIEBH@Instance?5started?$AA@ 0049c100     commands.obj
 0002:00000118       ??_7Show_instance_log@@6B@ 0049c118     commands.obj
 0002:00000124       ??_C@_03GGEOLGBL@Log?$AA@  0049c124     commands.obj
 0002:0000012c       ??_7Show_instance_log_files@@6B@ 0049c12c     commands.obj
 0002:00000138       ??_C@_01GBGANLPD@0?$AA@    0049c138     commands.obj
 0002:0000013c       ??_C@_08FLCOKHCB@SLOW?5LOG?$AA@ 0049c13c     commands.obj
 0002:00000148       ??_C@_0M@CKKADIMG@GENERAL?5LOG?$AA@ 0049c148     commands.obj
 0002:00000158       ??_C@_09ILJLBPE@ERROR?5LOG?$AA@ 0049c158     commands.obj
 0002:00000164       ??_C@_09JPMHFEOD@File?5size?$AA@ 0049c164     commands.obj
 0002:00000170       ??_C@_04HMIIHGGM@Path?$AA@ 0049c170     commands.obj
 0002:00000178       ??_C@_07IFPLGDBI@Logfile?$AA@ 0049c178     commands.obj
 0002:00000188       ??_7Set_option@@6B@        0049c188     commands.obj
 0002:000001ac       ??_7Stop_instance@@6B@     0049c1ac     commands.obj
 0002:000001b8       ??_C@_0CG@PFEDLDCH@guardian?3?5restarting?5instance?5?8?$CF@ 0049c1b8     guardian.obj
 0002:000001e8       ??_C@_0CE@KLOLAHDE@guardian?3?5starting?5instance?5?8?$CFs?8@ 0049c1e8     guardian.obj
 0002:00000214       ??_C@_0DK@BHAMDBAE@guardian?3?5instance?5?8?$CFs?8?5is?5runni@ 0049c214     guardian.obj
 0002:0000025c       ??_C@_02KOPDJAMB@?$CC?5?$AA@ 0049c25c     instance.obj
 0002:00000260       ??_C@_01BJJEKLCA@?$CC?$AA@ 0049c260     instance.obj
 0002:00000268       ??_C@_0HP@LKGFAABM@cannot?5remove?5pidfile?5for?5instan@ 0049c268     instance.obj
 0002:00000300       ??_C@_0BH@KOCPJDOG@Access?5denied?5for?5user?$AA@ 0049c300     instance.obj
 0002:0000031c       ??_C@_0BH@JBEJIMON@MySQL_Instance_Manager?$AA@ 0049c31c     instance.obj
 0002:00000338       ??_C@_0BB@GHJAIMGF@check_connection?$AA@ 0049c338     instance.obj
 0002:00000350       ??_C@_0JC@DPNOFBGO@The?5Instance?5Manager?5was?5able?5to@ 0049c350     instance.obj
 0002:00000400       ??_C@_09IPAEKDAI@localhost?$AA@ 0049c400     instance.obj
 0002:0000040c       ??_C@_0M@LPAKIOHO@ExitProcess?$AA@ 0049c40c     instance.obj
 0002:0000041c       ??_C@_08HPEMMIEC@Kernel32?$AA@ 0049c41c     instance.obj
 0002:00000428       ??_C@_0JG@DJCPAHAF@The?5instance?5?8?$CFs?8?5is?5being?5stopp@ 0049c428     instance.obj
 0002:000004dc       ??_C@_0BK@BFPPEPOA@starting?5instance?5?8?$CFs?8?4?4?4?$AA@ 0049c4dc     instance.obj
 0002:000004fc       ??_C@_0DA@NOPFEENC@Instance?3?3start?$CI?$CJ?3?5pthread_creat@ 0049c4fc     instance.obj
 0002:00000540       ??_C@_06IJHCJAKM@mysqld?$AA@ 0049c540     instance_map.obj
 0002:00000548       ??_C@_0CF@CIPOJFHL@Falling?5back?5to?5compiled?9in?5defa@ 0049c548     instance_map.obj
 0002:00000574       ??_C@_0BD@BMHFPFCK@?9?9defaults?9file?$DN?$CFs?$AA@ 0049c574     instance_map.obj
 0002:0000058c       ??_C@_0N@MBMMAPDF@mysqlmanager?$AA@ 0049c58c     instance_map.obj
 0002:0000059c       ??_C@_0CA@PNOFEODE@?5?9?9no?9defaults?5?9?9verbose?5?9?9help?$AA@ 0049c59c     instance_options.obj
 0002:000005c4       ??_C@_0DF@IIJHIFPH@fill_instance_version?3?5Failed?5to@ 0049c5c4     instance_options.obj
 0002:00000604       ??_C@_0BJ@HDFDNOPO@?5?9?9no?9defaults?5?9?9version?$AA@ 0049c604     instance_options.obj
 0002:00000624       ??_C@_0DJ@OGJADNHA@fill_mysqld_real_path?3?5Failed?5to@ 0049c624     instance_options.obj
 0002:00000668       ??_C@_09DGMGBAEA@?$FLOPTIONS?$FN?$AA@ 0049c668     instance_options.obj
 0002:00000674       ??_C@_07CKBCDPF@Usage?3?5?$AA@ 0049c674     instance_options.obj
 0002:00000680       ??_C@_0BG@FCNLNJKD@?5?9?9no?9defaults?5?9?9help?$AA@ 0049c680     instance_options.obj
 0002:0000069c       ??_C@_05OLGEOJNI@mysql?$AA@ 0049c69c     instance_options.obj
 0002:000006a4       ??_C@_09HGKCAJKI@?9?9datadir?$AA@ 0049c6a4     instance_options.obj
 0002:000006b0       ??_C@_09OFFDPMNL@?9slow?4log?$AA@ 0049c6b0     instance_options.obj
 0002:000006bc       ??_C@_0BD@OPICEAGD@?9?9log?9slow?9queries?$AA@ 0049c6bc     instance_options.obj
 0002:000006d4       ??_C@_04FPOLKAEB@?4log?$AA@ 0049c6d4     instance_options.obj
 0002:000006dc       ??_C@_05NEJJJKMH@?9?9log?$AA@ 0049c6dc     instance_options.obj
 0002:000006e4       ??_C@_04BKIDJPM@?4err?$AA@ 0049c6e4     instance_options.obj
 0002:000006ec       ??_C@_0M@DHGGKIBL@?9?9log?9error?$AA@ 0049c6ec     instance_options.obj
 0002:000006fc       ??_C@_01KMDKNFGN@?1?$AA@   0049c6fc     instance_options.obj
 0002:00000700       ??_C@_02IKAHHCAI@?$CFi?$AA@ 0049c700     instance_options.obj
 0002:00000704       ??_C@_0BB@HMNJCLE@?9?9shutdown?9delay?$AA@ 0049c704     instance_options.obj
 0002:00000718       ??_C@_0N@OLKFAOFH@?9?9nonguarded?$AA@ 0049c718     instance_options.obj
 0002:00000728       ??_C@_0P@IPJDFBGE@?9?9mysqld?9path?$DN?$AA@ 0049c728     instance_options.obj
 0002:0000073c       ??_C@_0M@KMHFJFJJ@?9?9pid?9file?$DN?$AA@ 0049c73c     instance_options.obj
 0002:0000074c       ??_C@_0BA@DEEPBOIA@?9?9bind?9address?$DN?$AA@ 0049c74c     instance_options.obj
 0002:00000760       ??_C@_0L@LCJDMBGN@?9?9datadir?$DN?$AA@ 0049c760     instance_options.obj
 0002:00000770       ??_C@_07LOKCACDF@?9?9port?$DN?$AA@ 0049c770     instance_options.obj
 0002:0000077c       ??_C@_09NPCDGEMJ@?9?9socket?$DN?$AA@ 0049c77c     instance_options.obj
 0002:00000788       ??_C@_09PGAHDFGH@argv?3?5?$CFs?6?$AA@ 0049c788     instance_options.obj
 0002:00000794       ??_C@_0CD@NLOANHMJ@printing?5out?5an?5instance?5?$CFs?5argv@ 0049c794     instance_options.obj
 0002:000007c0       ??_C@_01JOAMLHOP@?9?$AA@   0049c7c0     instance_options.obj
 0002:000007c4       ??_C@_04GKIEGHBH@?4pid?$AA@ 0049c7c4     instance_options.obj
 0002:000007cc       ??_C@_0O@LNAGOGFC@?9?9no?9defaults?$AA@ 0049c7cc     instance_options.obj
 0002:000007dc       ?LISTEN_BACK_LOG_SIZE@Listener_thread@@0HB 0049c7dc     listener.obj
 0002:000007e0       ??_C@_0CO@ENBOPDEJ@accepting?5connections?5on?5ip?5sock@ 0049c7e0     listener.obj
 0002:00000818       ??_C@_0DF@KMJLFBDJ@Listener_thread?3?3run?$CI?$CJ?3?5listen?$CIi@ 0049c818     listener.obj
 0002:00000858       ??_C@_0DF@LHPONHCM@Listener_thread?3?3run?$CI?$CJ?3?5bind?$CIip?5@ 0049c858     listener.obj
 0002:00000898       ??_C@_0DC@GOJKIMBC@Listener_thead?3?3run?$CI?$CJ?3?5socket?$CIAF@ 0049c898     listener.obj
 0002:000008d8       ??_C@_0EK@BNCDEHPC@handle_one_mysql_connection?$CI?$CJ?3se@ 0049c8d8     listener.obj
 0002:00000930       ??_C@_0DH@NJKJOHPK@Listener_thread?3?3run?$CI?$CJ?3?5shutdown@ 0049c930     listener.obj
 0002:00000974       ??_C@_0CM@GOLGPCHM@Listener_thread?3?3run?$CI?$CJ?3?5select?$CI?$CJ@ 0049c974     listener.obj
 0002:000009a8       ??_C@_0DF@HKOKJDHM@Listener?3?5failed?5to?5initialize?4?5@ 0049c9a8     listener.obj
 0002:000009e8       ??_C@_05JMJKDBEJ@?$CFs?$CFs?6?$AA@ 0049c9e8     log.obj
 0002:000009f0       ??_C@_0CO@EMDKHBOI@log?$CI?$CJ?3?5message?5is?5too?5big?0?5my_ma@ 0049c9f0     log.obj
 0002:00000a28       ??_C@_0BM@FGPIOMJK@?$CF02d?$CF02d?$CF02d?5?$CF2d?3?$CF02d?3?$CF02d?7?$AA@ 0049ca28     log.obj
 0002:00000a4c       ??_C@_01EEMJAFIK@?6?$AA@   0049ca4c     log.obj
 0002:00000a50       ??_C@_04PFAOODAA@?$CFs?3?5?$AA@ 0049ca50     log.obj
 0002:00000a58       ??_C@_0CH@BHKFELIG@can?8t?5create?5pid?5file?5?$CFs?3?5errno?$DN@ 0049ca58     manager.obj
 0002:00000a88       ??_C@_03PMGGPEJJ@?$CFd?6?$AA@ 0049ca88     manager.obj
 0002:00000a8c       ??_C@_0BB@JBMDHFOG@sigwait?$CI?$CJ?5failed?$AA@ 0049ca8c     manager.obj
 0002:00000aa0       ??_C@_0DK@CMFIJLOI@manager?$CI?$CJ?3?5set_stacksize_n_creat@ 0049caa0     manager.obj
 0002:00000ae8       ??_C@_0II@IINGEECN@Cannot?5init?5instances?5repository@ 0049cae8     manager.obj
 0002:00000b8c       ??_C@_0DK@OILECFCC@manager?$CI?$CJ?3?5set_stacksize_n_creat@ 0049cb8c     manager.obj
 0002:00000bd4       ??_C@_0BM@EJGDIPGI@IM?5pid?5file?3?5?8?$CFs?8?$DL?5PID?3?5?$CFd?4?$AA@ 0049cbd4     manager.obj
 0002:00000bf8       ??_C@_0DH@OLEIDFFJ@Cannot?5open?5the?5option?5file?5to?5e@ 0049cbf8     messages.obj
 0002:00000c40       ??_C@_0FE@PBJNMGMK@Cannot?5guess?5the?5log?5filename?4?5T@ 0049cc40     messages.obj
 0002:00000ca4       ??_C@_0BF@CCAMAPAA@Cannot?5open?5log?5file?$AA@ 0049cca4     messages.obj
 0002:00000cc0       ??_C@_0CF@HGFDHMPH@The?5instance?5has?5no?5such?5log?5ena@ 0049ccc0     messages.obj
 0002:00000cec       ??_C@_0CK@BDCIGLMK@Cannot?5read?5requested?5part?5of?5th@ 0049ccec     messages.obj
 0002:00000d20       ??_C@_0BF@BOFNNLAC@Cannot?5stop?5instance?$AA@ 0049cd20     messages.obj
 0002:00000d3c       ??_C@_0CF@EPBEMJMO@Cannot?5read?5negative?5number?5of?5b@ 0049cd3c     messages.obj
 0002:00000d68       ??_C@_0FJ@FAEFAGFE@Cannot?5start?5instance?4?5Possible?5@ 0049cd68     messages.obj
 0002:00000dd4       ??_C@_0CA@OIEOKEDL@The?5instance?5is?5already?5started?$AA@ 0049cdd4     messages.obj
 0002:00000e00       ??_C@_0GF@CPHLBCPM@Client?5does?5not?5support?5authenti@ 0049ce00     messages.obj
 0002:00000e80       ??_C@_0ED@IPKHLHCN@Bad?5instance?5name?4?5Check?5that?5th@ 0049ce80     messages.obj
 0002:00000ed0       ??_C@_0HD@GGDAMBEA@Cannot?5stop?5instance?4?5Perhaps?5th@ 0049ced0     messages.obj
 0002:00000f60       ??_C@_0IP@BELLFNGA@You?5have?5an?5error?5in?5your?5comman@ 0049cf60     messages.obj
 0002:0000100c       ??_C@_0BA@MPOJHAMO@Unknown?5command?$AA@ 0049d00c     messages.obj
 0002:00001020       ??_C@_0CK@DOCEONGH@Access?5denied?4?5Bad?5username?1pass@ 0049d020     messages.obj
 0002:00001058       ??_C@_0LH@OBGNHNPK@Out?5of?5memory?$DL?5?5Check?5if?5mysqld?5@ 0049d058     messages.obj
 0002:00001134       ??_C@_0O@DIOIANKF@Bad?5handshake?$AA@ 0049d134     messages.obj
 0002:00001144       ??_C@_0CP@BJKIJCH@query?5for?5connection?5?$CFlu?5receive@ 0049d144     mysql_connection.obj
 0002:0000117c       ??_C@_0CJ@LMHBIBIE@query?5for?5connection?5?$CFlu?5execute@ 0049d17c     mysql_connection.obj
 0002:000011b0       ??_C@_0CF@BKMEOAHD@query?5for?5connection?5?$CFlu?5execute@ 0049d1b0     mysql_connection.obj
 0002:000011dc       ??_C@_0CO@HBIOCLGM@query?5for?5connection?5?$CFlu?5success@ 0049d1dc     mysql_connection.obj
 0002:00001214       ??_C@_0DN@KOGIBOEA@query?5for?5connection?5?$CFlu?5?3?5?9?9?9?9?6@ 0049d214     mysql_connection.obj
 0002:00001260       ??_C@_0CP@DALMNPLH@query?5for?5connection?5?$CFlu?5receive@ 0049d260     mysql_connection.obj
 0002:00001298       ??_C@_0DC@HELMMJKC@query?5for?5connection?5?$CFlu?5receive@ 0049d298     mysql_connection.obj
 0002:000012d4       ??_C@_0CO@KLKKOBCE@connection?5?$CFlu?3?5packet_length?$DN?$CFl@ 0049d2d4     mysql_connection.obj
 0002:0000130c       ??_C@_0CH@PBJKGPOJ@connection?5?$CFlu?5is?5checked?5succes@ 0049d30c     mysql_connection.obj
 0002:0000133c       ??_C@_0BO@LOPJDLBA@accepted?5mysql?5connection?5?$CFlu?$AA@ 0049d33c     mysql_connection.obj
 0002:00001360       ??_C@_0CO@FMCLIPDB@mysql_connection?$CI?$CJ?3?5error?5initia@ 0049d360     mysql_connection.obj
 0002:00001398       ??_C@_07JPLKDPHP@manager?$AA@ 0049d398     options.obj
 0002:000013a8       ??_C@_0EP@PDDIBNOH@The?5number?5of?5seconds?5IM?5waits?5f@ 0049d3a8     options.obj
 0002:00001408       ??_C@_0N@IKNOIIJE@wait?9timeout?$AA@ 0049d408     options.obj
 0002:00001418       ??_C@_0CF@PMNNCCFJ@Output?5version?5information?5and?5e@ 0049d418     options.obj
 0002:00001444       ??_C@_0CJ@IONBCKIB@Run?5the?5application?5in?5stand?5alo@ 0049d444     options.obj
 0002:00001478       ??_C@_0L@FLHGMILF@standalone?$AA@ 0049d478     options.obj
 0002:00001488       ??_C@_0BH@DMOGDMLA@Remove?5system?5service?4?$AA@ 0049d488     options.obj
 0002:000014a4       ??_C@_06LEMKAMD@remove?$AA@ 0049d4a4     options.obj
 0002:000014ac       ??_C@_0BL@KHPAFIOP@Install?5as?5system?5service?4?$AA@ 0049d4ac     options.obj
 0002:000014cc       ??_C@_07EALBDFH@install?$AA@ 0049d4cc     options.obj
 0002:000014d8       ??_C@_0CK@FMEHMJFO@Interval?5to?5monitor?5instances?5in@ 0049d4d8     options.obj
 0002:0000150c       ??_C@_0BE@INENLLN@monitoring?9interval?$AA@ 0049d50c     options.obj
 0002:00001524       ??_C@_0CH@LIAINEMB@Where?5to?5look?5for?5MySQL?5Server?5b@ 0049d524     options.obj
 0002:00001554       ??_C@_0BE@HCHLGHAI@default?9mysqld?9path?$AA@ 0049d554     options.obj
 0002:0000156c       ??_C@_0DE@HMCHLBBP@Look?5for?5Instance?5Manager?5users?5@ 0049d56c     options.obj
 0002:000015ac       ??_C@_0O@JHLAPOPF@password?9file?$AA@ 0049d5ac     options.obj
 0002:000015bc       ??_C@_0CD@MHHOJIKI@Port?5number?5to?5use?5for?5connectio@ 0049d5bc     options.obj
 0002:000015e8       ??_C@_04LPGMAPLE@port?$AA@ 0049d5e8     options.obj
 0002:000015f0       ??_C@_0CE@LKPLDHBK@Bind?5address?5to?5use?5for?5connecti@ 0049d5f0     options.obj
 0002:0000161c       ??_C@_0N@KPFNDBAM@bind?9address?$AA@ 0049d61c     options.obj
 0002:0000162c       ??_C@_0CI@LGIDHNND@Prepare?5entry?5for?5passwd?5file?5an@ 0049d62c     options.obj
 0002:0000165c       ??_C@_06NKIEGJEO@passwd?$AA@ 0049d65c     options.obj
 0002:00001664       ??_C@_0BB@DGOMPFMC@Pid?5file?5to?5use?4?$AA@ 0049d664     options.obj
 0002:00001678       ??_C@_08OLCBHKMI@pid?9file?$AA@ 0049d678     options.obj
 0002:00001684       ??_C@_0DD@PCDFCKMG@Path?5to?5log?5file?4?5Used?5only?5with@ 0049d684     options.obj
 0002:000016c4       ??_C@_03MGHMBJCF@log?$AA@  0049d6c4     options.obj
 0002:000016c8       ??_C@_0BM@BKPKLHCC@Display?5this?5help?5and?5exit?4?$AA@ 0049d6c8     options.obj
 0002:000016ec       ??_C@_04PCJFHION@help?$AA@ 0049d6ec     options.obj
 0002:000016f8       ??_C@_0L@MFNJLFIO@?4angel?4pid?$AA@ 0049d6f8     options.obj
 0002:00001708       ??_C@_0BE@FKMKPPAN@DEFAULT_MYSQLD_PATH?$AA@ 0049d708     options.obj
 0002:00001720       ??_C@_0BG@GNGCPKDM@DEFAULT_PID_FILE_NAME?$AA@ 0049d720     options.obj
 0002:0000173c       ??_C@_0BI@DFCIJINN@?$CFs?5Ver?5?$CFs?5for?5?$CFs?5on?5?$CFs?6?$AA@ 0049d73c     options.obj
 0002:00001758       ??_C@_05NLDAPMKH@Win32?$AA@ 0049d758     options.obj
 0002:00001760       ??_C@_04OFDIICAA@ia32?$AA@ 0049d760     options.obj
 0002:00001768       ??_C@_0BHM@GIOFNEGN@?6The?5following?5options?5may?5be?5gi@ 0049d768     options.obj
 0002:00001930       ??_C@_0BG@GNEAPHGE@Usage?3?5?$CFs?5?$FLOPTIONS?$FN?5?6?$AA@ 0049d930     options.obj
 0002:00001950       ??_C@_0LD@GMKIMPDO@Copyright?5?$CIC?$CJ?52003?0?52004?5MySQL?5A@ 0049d950     options.obj
 0002:00001a28       ??_C@_06KCIFIIHN@?$CFs?3?$CFs?6?$AA@ 0049da28     options.obj
 0002:00001a30       ??_C@_0CA@GHLPBOBI@Sorry?0?5passwords?5do?5not?5match?4?6?$AA@ 0049da30     options.obj
 0002:00001a58       ??_C@_0BG@FABKDGBO@Unable?5to?5read?5user?4?6?$AA@ 0049da58     options.obj
 0002:00001a74       ??_C@_0BC@DEAECJAP@Enter?5user?5name?3?5?$AA@ 0049da74     options.obj
 0002:00001a8c       ??_C@_0BP@NJIBNPLM@Creating?5record?5for?5new?5user?4?6?$AA@ 0049da8c     options.obj
 0002:00001ab4       ??_C@_0BD@NKGLHMFK@Re?9type?5password?3?5?$AA@ 0049dab4     options.obj
 0002:00001acc       ??_C@_0BB@LAEJCAEB@Enter?5password?3?5?$AA@ 0049dacc     options.obj
 0002:00001ae0       ??_C@_07JALBKIBL@?2my?4ini?$AA@ 0049dae0     options.obj
 0002:00001aec       ??_C@_07MODGBJDN@?4passwd?$AA@ 0049daec     options.obj
 0002:00001af8       ??_C@_04JLMDILM@?4exe?$AA@ 0049daf8     options.obj
 0002:00001b00       ??_C@_0GN@NBIDIJLJ@The?5?9?9defaults?9extra?9file?5and?5?9?9@ 0049db00     options.obj
 0002:00001b84       ??_C@_0BH@HNKMCPPG@?9?9defaults?9extra?9file?$DN?$AA@ 0049db84     options.obj
 0002:00001ba0       ??_C@_0BB@LDHKPEKC@?9?9defaults?9file?$DN?$AA@ 0049dba0     options.obj
 0002:00001bb4       ??_C@_05IEIDFGAH@UNSET?$AA@ 0049dbb4     parse.obj
 0002:00001bbc       ??_C@_04JGPCMMEF@SHOW?$AA@ 0049dbbc     parse.obj
 0002:00001bc4       ??_C@_04MDHMLCKF@STOP?$AA@ 0049dbc4     parse.obj
 0002:00001bcc       ??_C@_06DNKMJCIK@STATUS?$AA@ 0049dbcc     parse.obj
 0002:00001bd4       ??_C@_05JLPDBANI@START?$AA@ 0049dbd4     parse.obj
 0002:00001bdc       ??_C@_04BJJAFLBC@SLOW?$AA@ 0049dbdc     parse.obj
 0002:00001be4       ??_C@_03KPIFFHNE@SET?$AA@  0049dbe4     parse.obj
 0002:00001be8       ??_C@_07KDKMIPIP@OPTIONS?$AA@ 0049dbe8     parse.obj
 0002:00001bf4       ??_C@_03MLIHNEFJ@LOG?$AA@  0049dbf4     parse.obj
 0002:00001bf8       ??_C@_09CJBINDHJ@INSTANCES?$AA@ 0049dbf8     parse.obj
 0002:00001c04       ??_C@_08DDHIOBDH@INSTANCE?$AA@ 0049dc04     parse.obj
 0002:00001c10       ??_C@_07EGGHCNEO@GENERAL?$AA@ 0049dc10     parse.obj
 0002:00001c1c       ??_C@_05KALGKIBB@FLUSH?$AA@ 0049dc1c     parse.obj
 0002:00001c24       ??_C@_05PENKCLCM@FILES?$AA@ 0049dc24     parse.obj
 0002:00001c2c       ??_C@_05MBDEGLCK@ERROR?$AA@ 0049dc2c     parse.obj
 0002:00001c38       ??_7Show_instances@@6B@    0049dc38     parse.obj
 0002:00001c48       ??_7Flush_instances@@6B@   0049dc48     parse.obj
 0002:00001c58       ??_7Syntax_error@@6B@      0049dc58     parse.obj
 0002:00001c68       ??_7Unset_option@@6B@      0049dc68     parse.obj
 0002:00001c78       ??_C@_01KDCPPGHE@r?$AA@    0049dc78     parse_output.obj
 0002:00001c7c       ?mysqlmanager_version@@3QBDB 0049dc7c     priv.obj
 0002:00001c88       ?mysqlmanager_version_length@@3HB 0049dc88     priv.obj
 0002:00001c8c       ?protocol_version@@3EB     0049dc8c     priv.obj
 0002:00001c90       ??_C@_0CL@EMLLAKPP@error?5parsing?5user?5and?5password?5@ 0049dc90     user_map.obj
 0002:00001cc4       ??_C@_0P@OFMBKLL@loaded?5user?5?$CFs?$AA@ 0049dcc4     user_map.obj
 0002:00001cd8       ??_C@_0DE@NNMOOOEE@?$FLWARNING?$FN?5can?8t?5open?5password?5fi@ 0049dcd8     user_map.obj
 0002:00001d18       ??_C@_0O@ONNFOFNE@MySQL?5Manager?$AA@ 0049dd18     IMService.obj
 0002:00001d28       ??_C@_0N@NFIKJEB@MySqlManager?$AA@ 0049dd28     IMService.obj
 0002:00001d3c       ??_7IMService@@6B@         0049dd3c     IMService.obj
 0002:00001d5c       ??_C@_0BJ@FAGHJNJN@Service?5failed?5to?5remove?$AA@ 0049dd5c     IMService.obj
 0002:00001d7c       ??_C@_0BN@CIDKMPML@Service?5removed?5successfully?$AA@ 0049dd7c     IMService.obj
 0002:00001da0       ??_C@_0BJ@FCKPKBPE@Service?5is?5not?5installed?$AA@ 0049dda0     IMService.obj
 0002:00001dc0       ??_C@_0BK@IIIDEEJJ@Service?5failed?5to?5install?$AA@ 0049ddc0     IMService.obj
 0002:00001de0       ??_C@_0BP@PFCIEMND@Service?5installed?5successfully?$AA@ 0049dde0     IMService.obj
 0002:00001e08       ??_C@_0BN@DCHLHDND@Service?5is?5already?5installed?$AA@ 0049de08     IMService.obj
 0002:00001e30       ??_7WindowsService@@6B@    0049de30     WindowsService.obj
 0002:00001e50       ??_C@_0BE@GPLHKCHK@ReportStatus?5failed?$AA@ 0049de50     WindowsService.obj
 0002:00001e68       __real@41cfffffff800000    0049de68     password.obj
 0002:00001e74       ??_C@_0L@KDJOJLDL@?$CF08lx?$CF08lx?$AA@ 0049de74     password.obj
 0002:00001e88       __real@4050000000000000    0049de88     password.obj
 0002:00001e98       __real@403f000000000000    0049de98     password.obj
 0002:00001ea8       __real@3e10000000400000    0049dea8     password.obj
 0002:00001eb8       __real@4040800000000000    0049deb8     password.obj
 0002:00001ec8       __real@4057800000000000    0049dec8     password.obj
 0002:00001ed4       ??_C@_05BPLBLCNG@22008?$AA@ 0049ded4     sql_state.obj
 0002:00001edc       ??_C@_05FEENFEFL@XAE08?$AA@ 0049dedc     sql_state.obj
 0002:00001ee4       ??_C@_05MOHDAJJP@22001?$AA@ 0049dee4     sql_state.obj
 0002:00001eec       ??_C@_05HIMJOJJI@XA100?$AA@ 0049deec     sql_state.obj
 0002:00001ef4       ??_C@_05LHLJINJA@XAE03?$AA@ 0049def4     sql_state.obj
 0002:00001efc       ??_C@_05ENFGGFBK@XAE09?$AA@ 0049defc     sql_state.obj
 0002:00001f04       ??_C@_05NDNFEIJE@XAE07?$AA@ 0049df04     sql_state.obj
 0002:00001f0c       ??_C@_05OBODCKBG@XAE05?$AA@ 0049df0c     sql_state.obj
 0002:00001f14       ??_C@_05PIPIBLFH@XAE04?$AA@ 0049df14     sql_state.obj
 0002:00001f1c       ??_C@_05OEJMDAGL@22012?$AA@ 0049df1c     sql_state.obj
 0002:00001f24       ??_C@_05KNKIGLLO@20000?$AA@ 0049df24     sql_state.obj
 0002:00001f2c       ??_C@_05JKKAJJNF@02000?$AA@ 0049df2c     sql_state.obj
 0002:00001f34       ??_C@_05FICIMNHO@24000?$AA@ 0049df34     sql_state.obj
 0002:00001f3c       ??_C@_05KGENIKJE@2F005?$AA@ 0049df3c     sql_state.obj
 0002:00001f44       ??_C@_05EFNJJNGI@70100?$AA@ 0049df44     sql_state.obj
 0002:00001f4c       ??_C@_05CENCADMK@0A000?$AA@ 0049df4c     sql_state.obj
 0002:00001f54       ??_C@_05PABHCNBC@2F003?$AA@ 0049df54     sql_state.obj
 0002:00001f5c       ??_C@_05JICJKOBJ@22007?$AA@ 0049df5c     sql_state.obj
 0002:00001f64       ??_C@_05PMEFGLBN@22003?$AA@ 0049df64     sql_state.obj
 0002:00001f6c       ??_C@_05NNAAODAF@01000?$AA@ 0049df6c     sql_state.obj
 0002:00001f74       ??_C@_05JAMIECAO@21000?$AA@ 0049df74     sql_state.obj
 0002:00001f7c       ??_C@_05GCOKLJOC@40001?$AA@ 0049df7c     sql_state.obj
 0002:00001f84       ??_C@_05GFEIOEMO@25000?$AA@ 0049df84     sql_state.obj
 0002:00001f8c       ??_C@_05LDAEPNNK@22004?$AA@ 0049df8c     sql_state.obj
 0002:00001f94       ??_C@_05BLFGILJL@42S12?$AA@ 0049df94     sql_state.obj
 0002:00001f9c       ??_C@_05DCDNGGAB@42S21?$AA@ 0049df9c     sql_state.obj
 0002:00001fa4       ??_C@_05KAEACLKC@21S01?$AA@ 0049dfa4     sql_state.obj
 0002:00001fac       ??_C@_05ICKCCFLI@S1009?$AA@ 0049dfac     sql_state.obj
 0002:00001fb4       ??_C@_05FPLCABKN@S0022?$AA@ 0049dfb4     sql_state.obj
 0002:00001fbc       ??_C@_05BJBADFMC@42S22?$AA@ 0049dfbc     sql_state.obj
 0002:00001fc4       ??_C@_05BKJEOBKM@42S02?$AA@ 0049dfc4     sql_state.obj
 0002:00001fcc       ??_C@_05DBLJLCGP@42S01?$AA@ 0049dfcc     sql_state.obj
 0002:00001fd4       ??_C@_05GKKGPOBE@3D000?$AA@ 0049dfd4     sql_state.obj
 0002:00001fdc       ??_C@_05JNNICAHP@28000?$AA@ 0049dfdc     sql_state.obj
 0002:00001fe4       ??_C@_05BDBNLMD@42000?$AA@ 0049dfe4     sql_state.obj
 0002:00001fec       ??_C@_05OAJIOINI@08S01?$AA@ 0049dfec     sql_state.obj
 0002:00001ff4       ??_C@_05LEHMEEHA@08004?$AA@ 0049dff4     sql_state.obj
 0002:00001ffc       ??_C@_05EKHLKPLA@S1001?$AA@ 0049dffc     sql_state.obj
 0002:00002004       ??_C@_05IKCIGBGE@HY001?$AA@ 0049e004     sql_state.obj
 0002:0000200c       ??_C@_05OKAIBBGO@23000?$AA@ 0049e00c     sql_state.obj
 0002:00002014       ??_C@_05JDDDFACF@HY000?$AA@ 0049e014     sql_state.obj
 0002:0000201c       ??_C@_06HPIPGHLH@MEMORY?$AA@ 0049e01c     client.obj
 0002:00002024       ??_C@_04GGAEFGO@PIPE?$AA@  0049e024     client.obj
 0002:0000202c       ??_C@_06HFGAEBMM@SOCKET?$AA@ 0049e02c     client.obj
 0002:00002034       ??_C@_03FCLDNGNL@TCP?$AA@  0049e034     client.obj
 0002:00002038       ??_C@_07FOPBDDAL@options?$AA@ 0049e038     client.obj
 0002:00002044       ??_C@_0BH@BONNBGIA@report?9data?9truncation?$AA@ 0049e044     client.obj
 0002:00002060       ??_C@_0M@PMDPKFDA@secure?9auth?$AA@ 0049e060     client.obj
 0002:00002070       ??_C@_0O@IGPGCENI@multi?9queries?$AA@ 0049e070     client.obj
 0002:00002080       ??_C@_0BB@ECMBLIEH@multi?9statements?$AA@ 0049e080     client.obj
 0002:00002094       ??_C@_0O@CCDCLLBG@multi?9results?$AA@ 0049e094     client.obj
 0002:000020a4       ??_C@_0BI@FOKNPLJP@shared?9memory?9base?9name?$AA@ 0049e0a4     client.obj
 0002:000020c0       ??_C@_08FCFPNNHF@protocol?$AA@ 0049e0c0     client.obj
 0002:000020cc       ??_C@_0BD@OFGLABCB@max?9allowed?9packet?$AA@ 0049e0cc     client.obj
 0002:000020e4       ??_C@_0L@PHBCGEDL@ssl?9cipher?$AA@ 0049e0e4     client.obj
 0002:000020f4       ??_C@_0BB@HNHJLDBF@repl?9parse?9query?$AA@ 0049e0f4     client.obj
 0002:00002108       ??_C@_0BJ@JAEAFHJM@enable?9reads?9from?9master?$AA@ 0049e108     client.obj
 0002:00002128       ??_C@_0BC@BKIPLOIH@replication?9probe?$AA@ 0049e128     client.obj
 0002:00002140       ??_C@_0BF@DNHMICAO@disable?9local?9infile?$AA@ 0049e140     client.obj
 0002:0000215c       ??_C@_0N@DEPIEDDP@local?9infile?$AA@ 0049e15c     client.obj
 0002:0000216c       ??_C@_0BA@PKFDCPCI@connect?9timeout?$AA@ 0049e16c     client.obj
 0002:00002180       ??_C@_0BE@PKKGFOHM@interactive?9timeout?$AA@ 0049e180     client.obj
 0002:00002198       ??_C@_0BG@BMMCDGOA@default?9character?9set?$AA@ 0049e198     client.obj
 0002:000021b4       ??_C@_0BD@HPLEKGGN@character?9sets?9dir?$AA@ 0049e1b4     client.obj
 0002:000021cc       ??_C@_0L@MLIAJKEA@ssl?9capath?$AA@ 0049e1cc     client.obj
 0002:000021dc       ??_C@_06KEIFHGI@ssl?9ca?$AA@ 0049e1dc     client.obj
 0002:000021e4       ??_C@_08MLGPLICL@ssl?9cert?$AA@ 0049e1e4     client.obj
 0002:000021f0       ??_C@_07HPCDODLB@ssl?9key?$AA@ 0049e1f0     client.obj
 0002:000021fc       ??_C@_0BC@CPNNNMD@return?9found?9rows?$AA@ 0049e1fc     client.obj
 0002:00002214       ??_C@_05GFCDIDHO@debug?$AA@ 0049e214     client.obj
 0002:0000221c       ??_C@_08PBOCEOLL@database?$AA@ 0049e21c     client.obj
 0002:00002228       ??_C@_04OODOLJMA@host?$AA@ 0049e228     client.obj
 0002:00002230       ??_C@_0N@CJBLNCLF@init?9command?$AA@ 0049e230     client.obj
 0002:00002240       ??_C@_04CCHAHKJA@user?$AA@ 0049e240     client.obj
 0002:00002248       ??_C@_07DDHNKDGP@timeout?$AA@ 0049e248     client.obj
 0002:00002254       ??_C@_04MKFKKHBG@pipe?$AA@ 0049e254     client.obj
 0002:0000225c       ??_C@_08NLHBPEGP@password?$AA@ 0049e25c     client.obj
 0002:00002268       ??_C@_08EJNPIMGB@compress?$AA@ 0049e268     client.obj
 0002:00002274       ??_C@_06HBELJPBO@socket?$AA@ 0049e274     client.obj
 0002:0000227c       ??_C@_05MJALLADF@08001?$AA@ 0049e27c     client.obj
 0002:00002284       ??_C@_05OAGAMKLF@00000?$AA@ 0049e284     client.obj
 0002:0000228c       ??_C@_02HDBGODGB@?2?2?$AA@ 0049e28c     client.obj
 0002:00002290       ??_C@_06CKMLAALA@?2pipe?2?$AA@ 0049e290     client.obj
 0002:00002298       ??_C@_01LFCBOECM@?4?$AA@   0049e298     client.obj
 0002:0000229c       ??_C@_0L@MKBJOBHN@Windows_NT?$AA@ 0049e29c     client.obj
 0002:000022ac       ??_C@_02OKOOOCIH@OS?$AA@   0049e2ac     client.obj
 0002:000022b0       ??_C@_0CA@ONJAFPFC@Unknown?5option?5to?5protocol?3?5?$CFs?6?$AA@ 0049e2b0     client.obj
 0002:000022d8       ??_C@_06DGDLPBAN@client?$AA@ 0049e2d8     client.obj
 0002:000022e0       ??_C@_04ODABKPJA@?1CN?$DN?$AA@ 0049e2e0     client.obj
 0002:000022e8       ??_C@_0CP@EINHLMKL@COLLATION?5?$CFs?5is?5not?5valid?5for?5CH@ 0049e2e8     client.obj
 0002:00002320       ??_C@_0BC@BNNCKLMG@latin1_swedish_ci?$AA@ 0049e320     client.obj
 0002:00002338       ??_C@_06CDEFMFPB@latin1?$AA@ 0049e338     client.obj
 0002:00002340       ??_C@_0N@HAKKOMP@SET?5NAMES?5?$CFs?$AA@ 0049e340     client.obj
 0002:00002350       ??_C@_0CD@CIHNPOGB@sending?5authentication?5informati@ 0049e350     client.obj
 0002:0000237c       ??_C@_0BJ@EDEHFNCE@Setting?5intital?5database?$AA@ 0049e37c     client.obj
 0002:0000239c       ??_C@_0BN@NHONKCFH@sending?5password?5information?$AA@ 0049e39c     client.obj
 0002:000023c0       ??_C@_0CC@FOKDGKNL@reading?5final?5connect?5informatio@ 0049e3c0     client.obj
 0002:000023e8       ??_C@_0BN@IKPBBPKC@reading?5authorization?5packet?$AA@ 0049e3e8     client.obj
 0002:0000240c       ??_C@_0CJ@OKBDLPBM@sending?5connection?5information?5t@ 0049e40c     client.obj
 0002:00002440       ??_C@_0CF@JIJHEKCB@reading?5initial?5communication?5pa@ 0049e440     client.obj
 0002:0000246c       ??_C@_0CJ@GFOPAJCF@waiting?5for?5initial?5communicatio@ 0049e46c     client.obj
 0002:000024a0       ??_C@_05OBDDCBJC@MySQL?$AA@ 0049e4a0     client.obj
 0002:000024a8       ??_C@_02LOEMLMCB@my?$AA@   0049e4a8     client.obj
 0002:000024ac       ??_C@_01NBENCBCI@?$CK?$AA@ 0049e4ac     get_password.obj
 0002:000024b0       ??_C@_03OLJLMEOE@?$AI?5?$AI?$AA@ 0049e4b0     get_password.obj
 0002:000024b4       ??_C@_0DK@NDNCLJNI@Lost?5connection?5to?5MySQL?5server?5@ 0049e4b4     errmsg.obj
 0002:000024fc       ??_C@_0CE@HBOGEKGA@This?5feature?5is?5not?5implemented?5@ 0049e4fc     errmsg.obj
 0002:00002528       ??_C@_0FB@FBBFBAHN@Attempt?5to?5read?5a?5row?5while?5ther@ 0049e528     errmsg.obj
 0002:0000258c       ??_C@_0CI@HALOFLAE@Prepared?5statement?5contains?5no?5m@ 0049e58c     errmsg.obj
 0002:000025bc       ??_C@_0CP@CONJDJBD@Attempt?5to?5read?5column?5without?5p@ 0049e5bc     errmsg.obj
 0002:000025f4       ??_C@_0DG@NCJJHECB@Row?5retrieval?5was?5canceled?5by?5my@ 0049e5f4     errmsg.obj
 0002:00002638       ??_C@_0GH@LCEGFGKM@Connection?5using?5old?5?$CIpre?94?41?41?$CJ@ 0049e638     errmsg.obj
 0002:000026b4       ??_C@_0BK@JMIMHFDF@Invalid?5connection?5handle?$AA@ 0049e6b4     errmsg.obj
 0002:000026d4       ??_C@_0BK@GLFMEDLO@Wrong?5or?5unknown?5protocol?$AA@ 0049e6d4     errmsg.obj
 0002:000026f8       ??_C@_0EE@IPCCLOKB@Can?8t?5open?5shared?5memory?$DL?5cannot@ 0049e6f8     errmsg.obj
 0002:0000274c       ??_C@_0DG@KGBHPOJD@Can?8t?5open?5shared?5memory?$DL?5no?5ans@ 0049e74c     errmsg.obj
 0002:00002790       ??_C@_0EB@MDFKCBGN@Can?8t?5open?5shared?5memory?$DL?5client@ 0049e790     errmsg.obj
 0002:000027e0       ??_C@_0EN@FCGLLCJK@Can?8t?5open?5shared?5memory?$DL?5client@ 0049e7e0     errmsg.obj
 0002:00002840       ??_C@_0EH@LNAOKCEE@Can?8t?5open?5shared?5memory?$DL?5client@ 0049e840     errmsg.obj
 0002:00002898       ??_C@_0EN@PMIKFHIB@Can?8t?5open?5shared?5memory?$DL?5server@ 0049e898     errmsg.obj
 0002:000028f8       ??_C@_0EH@KCLOIILK@Can?8t?5open?5shared?5memory?$DL?5server@ 0049e8f8     errmsg.obj
 0002:00002950       ??_C@_0EF@KIGDFHBB@Can?8t?5open?5shared?5memory?$DL?5no?5ans@ 0049e950     errmsg.obj
 0002:000029a8       ??_C@_0EG@BEPMLGLN@Can?8t?5open?5shared?5memory?$DL?5client@ 0049e9a8     errmsg.obj
 0002:000029fc       ??_C@_0BH@OHMIMHCN@Shared?5memory?3?5?$CF?9?4100s?$AA@ 0049e9fc     errmsg.obj
 0002:00002a18       ??_C@_0DD@HBOCKDGH@Using?5unsupported?5buffer?5type?3?5?$CF@ 0049ea18     errmsg.obj
 0002:00002a58       ??_C@_0EK@GGAINION@Can?8t?5send?5long?5data?5for?5non?9str@ 0049ea58     errmsg.obj
 0002:00002ab0       ??_C@_0BJ@LEKCEENG@Invalid?5parameter?5number?$AA@ 0049eab0     errmsg.obj
 0002:00002ad0       ??_C@_0CF@OAFCOHEP@No?5parameters?5exist?5in?5the?5state@ 0049ead0     errmsg.obj
 0002:00002afc       ??_C@_0P@KJHDOAKM@Data?5truncated?$AA@ 0049eafc     errmsg.obj
 0002:00002b10       ??_C@_0DG@PGNJOEPP@No?5data?5supplied?5for?5parameters?5@ 0049eb10     errmsg.obj
 0002:00002b50       ??_C@_0BH@OCBFPEOC@Statement?5not?5prepared?$AA@ 0049eb50     errmsg.obj
 0002:00002b6c       ??_C@_0BM@EEGCMMPG@Invalid?5use?5of?5null?5pointer?$AA@ 0049eb6c     errmsg.obj
 0002:00002b90       ??_C@_0FE@HLHPGJMI@This?5client?5library?5is?5licensed?5@ 0049eb90     errmsg.obj
 0002:00002bf4       ??_C@_0BB@DAKKIOKN@Malformed?5packet?$AA@ 0049ebf4     errmsg.obj
 0002:00002c08       ??_C@_0BF@GNKPEKCC@SSL?5connection?5error?$AA@ 0049ec08     errmsg.obj
 0002:00002c24       ??_C@_0BM@DBHHCLGE@Error?5connecting?5to?5master?3?$AA@ 0049ec24     errmsg.obj
 0002:00002c48       ??_C@_0BL@NMFPGPDF@Error?5connecting?5to?5slave?3?$AA@ 0049ec48     errmsg.obj
 0002:00002c68       ??_C@_0BL@BDOEBOAG@Error?5on?5SHOW?5SLAVE?5HOSTS?3?$AA@ 0049ec68     errmsg.obj
 0002:00002c88       ??_C@_0BM@KEKCHGPI@Error?5on?5SHOW?5SLAVE?5STATUS?3?$AA@ 0049ec88     errmsg.obj
 0002:00002cac       ??_C@_0BA@JILIEPGI@Embedded?5server?$AA@ 0049ecac     errmsg.obj
 0002:00002cc0       ??_C@_0DC@PLGHDHHE@Got?5packet?5bigger?5than?5?8max_allo@ 0049ecc0     errmsg.obj
 0002:00002cfc       ??_C@_0DG@MMIKLOLE@Can?8t?5initialize?5character?5set?5?$CF@ 0049ecfc     errmsg.obj
 0002:00002d40       ??_C@_0EC@JBHOMNCI@Can?8t?5set?5state?5of?5named?5pipe?5to@ 0049ed40     errmsg.obj
 0002:00002d90       ??_C@_0DK@DGFLNGLM@Can?8t?5open?5named?5pipe?5to?5host?3?5?$CF@ 0049ed90     errmsg.obj
 0002:00002dd8       ??_C@_0DO@MCIKAJJD@Can?8t?5wait?5for?5named?5pipe?5to?5hos@ 0049edd8     errmsg.obj
 0002:00002e24       ??_C@_0BD@MONBAMLI@Named?5pipe?3?5?$CF?9?432s?$AA@ 0049ee24     errmsg.obj
 0002:00002e3c       ??_C@_0DF@GGAOFKDM@Commands?5out?5of?5sync?$DL?5you?5can?8t?5@ 0049ee3c     errmsg.obj
 0002:00002e7c       ??_C@_0CN@MCPHLMHK@Lost?5connection?5to?5MySQL?5server?5@ 0049ee7c     errmsg.obj
 0002:00002eb4       ??_C@_0BK@OPFAEJOB@Error?5in?5server?5handshake?$AA@ 0049eeb4     errmsg.obj
 0002:00002ed4       ??_C@_0BD@JHCOEEJ@?$CF?9?4100s?5via?5TCP?1IP?$AA@ 0049eed4     errmsg.obj
 0002:00002eec       ??_C@_0BK@OAJGGGIC@Localhost?5via?5UNIX?5socket?$AA@ 0049eeec     errmsg.obj
 0002:00002f0c       ??_C@_0BA@OBGODAJN@Wrong?5host?5info?$AA@ 0049ef0c     errmsg.obj
 0002:00002f20       ??_C@_0BP@LPGLBKOF@MySQL?5client?5ran?5out?5of?5memory?$AA@ 0049ef20     errmsg.obj
 0002:00002f48       ??_C@_0DM@BHKAADIN@Protocol?5mismatch?$DL?5server?5versio@ 0049ef48     errmsg.obj
 0002:00002f90       ??_C@_0BL@GGNHAOJF@MySQL?5server?5has?5gone?5away?$AA@ 0049ef90     errmsg.obj
 0002:00002fb0       ??_C@_0CJ@MGNDPAC@Unknown?5MySQL?5server?5host?5?8?$CF?9?410@ 0049efb0     errmsg.obj
 0002:00002fe4       ??_C@_0CA@NNJEMGCD@Can?8t?5create?5TCP?1IP?5socket?5?$CI?$CFd?$CJ?$AA@ 0049efe4     errmsg.obj
 0002:0000300c       ??_C@_0DA@DGOLCCI@Can?8t?5connect?5to?5MySQL?5server?5on@ 0049f00c     errmsg.obj
 0002:00003048       ??_C@_0EC@FCNCJBBO@Can?8t?5connect?5to?5local?5MySQL?5ser@ 0049f048     errmsg.obj
 0002:00003098       ??_C@_0BO@EGFBLII@Can?8t?5create?5UNIX?5socket?5?$CI?$CFd?$CJ?$AA@ 0049f098     errmsg.obj
 0002:000030bc       ??_C@_0BE@OOMFAHBF@Unknown?5MySQL?5error?$AA@ 0049f0bc     errmsg.obj
 0002:000030d4       ??_C@_02PCIJFNDE@?$AN?6?$AA@ 0049f0d4     mysys:default_modify.obj
 0002:000030d8       ??_C@_07CCIHIKOK@no_name?$AA@ 0049f0d8     mysys:my_thr_init.obj
 0002:000030e0       ??_C@_0CE@CLEEBIJB@Can?8t?5initialize?5threads?3?5error?5@ 0049f0e0     mysys:my_thr_init.obj
 0002:00003104       ??_C@_04LHHHFLPP@utf8?$AA@ 0049f104     mysys:charset.obj
 0002:0000310c       ??_C@_04JKLLLNMI@ucs2?$AA@ 0049f10c     mysys:charset.obj
 0002:00003114       ??_C@_09NKDKDEJM@charsets?1?$AA@ 0049f114     mysys:charset.obj
 0002:00003120       ??_C@_09KNNDHHP@C?3?1mysql?1?$AA@ 0049f120     mysys:charset.obj
 0002:0000312c       ??_C@_05KGKMKOAF@share?$AA@ 0049f12c     mysys:charset.obj
 0002:00003134       ??_C@_09NJBIMGLE@Index?4xml?$AA@ 0049f134     mysys:charset.obj
 0002:00003140       ??_C@_01OGPIMHDM@?$DP?$AA@ 0049f140     mysys:charset.obj
 0002:00003144       ??_C@_04GAOAGNCM@?4xml?$AA@ 0049f144     mysys:charset.obj
 0002:0000314c       ??_C@_05HPPBHLPE@cp932?$AA@ 0049f14c     mysys:charset.obj
 0002:00003154       ??_C@_02GFBACKGC@cp?$AA@   0049f154     mysys:charset.obj
 0002:0000316c       ??_C@_04BPFBOLGB@?4cnf?$AA@ 0049f16c     mysys:default.obj
 0002:00003174       ??_C@_04PHHEBHMK@?4ini?$AA@ 0049f174     mysys:default.obj
 0002:0000317c       ??_C@_0BJ@KIKAGLAC@?9?9defaults?9group?9suffix?$DN?$AA@ 0049f17c     mysys:default.obj
 0002:00003198       ??_C@_0DM@LOBIDFGL@error?3?5Wrong?5?8?$CB?$CFs?8?5directive?5in?5@ 0049f198     mysys:default.obj
 0002:000031d4       ??_C@_09FJGNFLHN@?2System32?$AA@ 0049f1d4     mysys:default.obj
 0002:000031e0       ??_C@_0N@MDJJJHMB@kernel32?4dll?$AA@ 0049f1e0     mysys:default.obj
 0002:000031f0       ??_C@_0BL@CAKPALPI@GetSystemWindowsDirectoryA?$AA@ 0049f1f0     mysys:default.obj
 0002:0000320c       ??_C@_0L@DODNGCIN@MYSQL_HOME?$AA@ 0049f20c     mysys:default.obj
 0002:00003218       ??_C@_03GMPKIPBL@C?3?1?$AA@ 0049f218     mysys:default.obj
 0002:00003220       ??_C@_0EM@DMHOPFHM@error?3?5Found?5option?5without?5prec@ 0049f220     mysys:default.obj
 0002:0000326c       ??_C@_0DN@MBLPBICC@error?3?5Wrong?5group?5definition?5in@ 0049f26c     mysys:default.obj
 0002:000032ac       ??_C@_02BAABKJLB@?9?9?$AA@ 0049f2ac     mysys:default.obj
 0002:000032b0       ??_C@_0GG@GBLJMDFL@Warning?3?5skipping?5?8?$CFs?8?5directive@ 0049f2b0     mysys:default.obj
 0002:00003318       ??_C@_01CLKCMJKC@?5?$AA@   0049f318     mysys:default.obj
 0002:0000331c       ??_C@_0DF@OKDAKIKM@Internal?5error?5initializing?5defa@ 0049f31c     mysys:default.obj
 0002:00003358       ??_C@_0EH@NKGMIPDP@?6Default?5options?5are?5read?5from?5t@ 0049f358     mysys:default.obj
 0002:000033a0       ??_C@_0BDO@PJIJBBOO@?6The?5following?5options?5may?5be?5gi@ 0049f3a0     mysys:default.obj
 0002:000034e0       ??_C@_0BP@MNBILDMG@The?5following?5groups?5are?5read?3?$AA@ 0049f4e0     mysys:default.obj
 0002:00003500       ??_C@_0DD@BMIFLCG@Fatal?5error?5in?5defaults?5handling@ 0049f500     mysys:default.obj
 0002:00003534       ??_C@_0CL@DPGKONAJ@Could?5not?5open?5required?5defaults@ 0049f534     mysys:default.obj
 0002:00003560       ??_C@_0BD@GMCINPDE@MYSQL_GROUP_SUFFIX?$AA@ 0049f560     mysys:default.obj
 0002:00003574       ??_C@_03IKGEINEE@?$CFs?5?$AA@ 0049f574     mysys:default.obj
 0002:00003578       ??_C@_0DK@MHCNAEBD@?$CFs?5would?5have?5been?5started?5with?5@ 0049f578     mysys:default.obj
 0002:000035b4       ??_C@_0BB@BKNLJB@?9?9print?9defaults?$AA@ 0049f5b4     mysys:default.obj
 0002:000035c8       ??_C@_08LMJEPNLL@defaults?$AA@ 0049f5c8     mysys:default.obj
 0002:000035d4       ??_C@_02DJGKEECL@?4?4?$AA@ 0049f5d4     mysys:mf_loadpath.obj
 0002:000035d8       ??_C@_07FGFPPMNP@striped?$AA@ 0049f5d8     mysys:my_static.obj
 0002:000035e0       ??_C@_04CGFJFPFD@none?$AA@ 0049f5e0     mysys:my_static.obj
 0002:000035e8       ??_C@_0BL@LPICHLF@01230120022455012623010202?$AA@ 0049f5e8     mysys:my_static.obj
 0002:00003604       ??_C@_0BA@KPMGBOMG@?$CFs?4?$CF08X?4deleted?$AA@ 0049f604     mysys:my_delete.obj
 0002:00003614       ??_C@_01NEMOKFLO@?$DN?$AA@ 0049f614     mysys:my_init.obj
 0002:00003618       ??_C@_0P@MCGHDL@Software?2MySQL?$AA@ 0049f618     mysys:my_init.obj
 0002:00003628       ??_C@_0L@LKJCDLMN@HAVE_TCPIP?$AA@ 0049f628     mysys:my_init.obj
 0002:00003634       ??_C@_0DF@KNCKAEOE@SYSTEM?2CurrentControlSet?2Service@ 0049f634     mysys:my_init.obj
 0002:0000366c       ??_C@_0DG@NPLBFMIJ@SYSTEM?2CurrentControlSet?2Service@ 0049f66c     mysys:my_init.obj
 0002:000036a4       ??_C@_0DD@IKBMIFKO@SYSTEM?2CurrentControlSet?2Service@ 0049f6a4     mysys:my_init.obj
 0002:000036d8       ??_C@_09KHPDOLMK@UMASK_DIR?$AA@ 0049f6d8     mysys:my_init.obj
 0002:000036e4       ??_C@_05OMMCGCJP@UMASK?$AA@ 0049f6e4     mysys:my_init.obj
 0002:000036ec       ??_C@_04GHGFPGNC@HOME?$AA@ 0049f6ec     mysys:my_init.obj
 0002:0000370c       ??_C@_05HBBNPFP@loose?$AA@ 0049f70c     mysys:my_getopt.obj
 0002:00003714       ??_C@_07MEIENILC@maximum?$AA@ 0049f714     mysys:my_getopt.obj
 0002:0000371c       ??_C@_06OFNJOBDK@enable?$AA@ 0049f71c     mysys:my_getopt.obj
 0002:00003724       ??_C@_07DBNODEFN@disable?$AA@ 0049f724     mysys:my_getopt.obj
 0002:0000372c       ??_C@_04DLBGLKG@skip?$AA@  0049f72c     mysys:my_getopt.obj
 0002:00003734       ??_C@_02DKCKIIND@?$CFs?$AA@ 0049f734     mysys:my_getopt.obj
 0002:00003738       ??_C@_06EILBFPFN@Info?3?5?$AA@ 0049f738     mysys:my_getopt.obj
 0002:00003740       ??_C@_09CKCJCCOK@Warning?3?5?$AA@ 0049f740     mysys:my_getopt.obj
 0002:0000374c       ??_C@_0DJ@LCKGBNKC@Unknown?5suffix?5?8?$CFc?8?5used?5for?5var@ 0049f74c     mysys:my_getopt.obj
 0002:00003788       ??_C@_0BO@MNLPLDPE@Incorrect?5integer?5value?3?5?8?$CFs?8?$AA@ 0049f788     mysys:my_getopt.obj
 0002:000037a8       ??_C@_0CM@CINNIGFM@option?5?8?$CFs?8?3?5signed?5value?5?$CFs?5adj@ 0049f7a8     mysys:my_getopt.obj
 0002:000037d4       ??_C@_0CO@JEKLPIGP@option?5?8?$CFs?8?3?5unsigned?5value?5?$CFs?5a@ 0049f7d4     mysys:my_getopt.obj
 0002:00003804       ??_C@_0L@PIHEMIFO@?$CFs?$DNname?$CFs?5?$AA@ 0049f804     mysys:my_getopt.obj
 0002:00003810       ??_C@_01OHGJGJJP@?$FL?$AA@ 0049f810     mysys:my_getopt.obj
 0002:00003814       ??_C@_07JMJBGKBC@?$CFs?$DN?$CD?$CFs?5?$AA@ 0049f814     mysys:my_getopt.obj
 0002:0000381c       ??_C@_01LBDDMOBJ@?$FN?$AA@ 0049f81c     mysys:my_getopt.obj
 0002:00003820       ??_C@_04GIEADKIK@?9?9?$CFs?$AA@ 0049f820     mysys:my_getopt.obj
 0002:00003828       ??_C@_07NACDLBD@?5?5?9?$CFc?$CFs?$AA@ 0049f828     mysys:my_getopt.obj
 0002:00003830       ??_C@_02KNHHEEKP@?5?5?$AA@ 0049f830     mysys:my_getopt.obj
 0002:00003834       ??_C@_02KEGNLNML@?0?5?$AA@ 0049f834     mysys:my_getopt.obj
 0002:00003838       ??_C@_0M@EPOBBBBF@?$CIDisabled?$CJ?6?$AA@ 0049f838     mysys:my_getopt.obj
 0002:00003844       ??_C@_04OJNJKCBM@?$CFlu?6?$AA@ 0049f844     mysys:my_getopt.obj
 0002:0000384c       ??_C@_04PEDNGLFL@?$CFld?6?$AA@ 0049f84c     mysys:my_getopt.obj
 0002:00003854       ??_C@_05MAJJAKPI@FALSE?$AA@ 0049f854     mysys:my_getopt.obj
 0002:0000385c       ??_C@_04HCDDPBNL@TRUE?$AA@ 0049f85c     mysys:my_getopt.obj
 0002:00003864       ??_C@_03OFAPEBGM@?$CFs?6?$AA@ 0049f864     mysys:my_getopt.obj
 0002:00003868       ??_C@_0BD@IAAJELIC@?$CINo?5default?5value?$CJ?$AA@ 0049f868     mysys:my_getopt.obj
 0002:00003880       ??_C@_0EB@DLNDDEIC@?9?9?9?9?9?9?9?9?9?9?9?9?9?9?9?9?9?9?9?9?9?9?9?9?9?9?9?9?9?9?9?9@ 0049f880     mysys:my_getopt.obj
 0002:000038c8       ??_C@_0EB@MLHGNKOO@and?5boolean?5options?5?$HLFALSE?$HMTRUE?$HN@ 0049f8c8     mysys:my_getopt.obj
 0002:0000390c       ??_C@_0CE@PGFPJDHK@?6Variables?5?$CI?9?9variable?9name?$DNvalu@ 0049f90c     mysys:my_getopt.obj
 0002:00003930       ??_C@_0CH@FPNHAJDD@?$CFs?3?5option?5?8?9?9?$CFs?8?5requires?5an?5ar@ 0049f930     mysys:my_getopt.obj
 0002:00003958       ??_C@_0CK@KELFDMIH@?$CFs?3?5option?5?8?9?9?$CFs?8?5cannot?5take?5an@ 0049f958     mysys:my_getopt.obj
 0002:00003984       ??_C@_0CI@IFAFNNJB@?$CFs?3?5option?5?8?$CFs?8?5cannot?5take?5an?5a@ 0049f984     mysys:my_getopt.obj
 0002:000039ac       ??_C@_0CF@LIKIEIBC@?$CFs?3?5ambiguous?5option?5?8?9?9?$CFs?8?5?$CI?$CFs?0@ 0049f9ac     mysys:my_getopt.obj
 0002:000039d4       ??_C@_0CH@NLLNKKKI@?$CFs?3?5variable?5prefix?5?8?$CFs?8?5is?5not?5@ 0049f9d4     mysys:my_getopt.obj
 0002:000039fc       ??_C@_0CJ@FNGIKGPP@?$CFs?3?5ambiguous?5option?5?8?9?9?$CFs?9?$CFs?8?5?$CI@ 0049f9fc     mysys:my_getopt.obj
 0002:00003a28       ??_C@_0CF@MFEIKBHA@?$CFs?3?5Option?5?8?9O?8?5requires?5an?5argu@ 0049fa28     mysys:my_getopt.obj
 0002:00003a50       ??_C@_0BJ@PLKIKLOO@?$CFs?3?5unknown?5option?5?8?9?$CFc?8?$AA@ 0049fa50     mysys:my_getopt.obj
 0002:00003a6c       ??_C@_0CL@CIFFNEPP@?$CFs?3?5Error?5while?5setting?5value?5?8?$CF@ 0049fa6c     mysys:my_getopt.obj
 0002:00003a98       ??_C@_0CG@OPCNLHEP@?$CFs?3?5option?5?8?9?$CFc?8?5requires?5an?5arg@ 0049fa98     mysys:my_getopt.obj
 0002:00003ac0       ??_C@_0CP@OAGPFOL@?$CFs?3?5ERROR?3?5Option?5?8?9?$CFc?8?5used?0?5bu@ 0049fac0     mysys:my_getopt.obj
 0002:00003af0       ??_C@_0DF@NCABEMAI@?$CFs?3?5ignoring?5option?5?8?9?9?$CFs?8?5due?5t@ 0049faf0     mysys:my_getopt.obj
 0002:00003b28       ??_C@_05LAPONLG@false?$AA@ 0049fb28     mysys:my_getopt.obj
 0002:00003b30       ??_C@_04LOAJBDKD@true?$AA@ 0049fb30     mysys:my_getopt.obj
 0002:00003b38       ??_C@_0CL@BLOGDLDC@?$CFs?3?5?$CFs?3?5Option?5?8?$CFs?8?5used?0?5but?5is@ 0049fb38     mysys:my_getopt.obj
 0002:00003b64       ??_C@_07KCOHIFOP@WARNING?$AA@ 0049fb64     mysys:my_getopt.obj
 0002:00003b6c       ??_C@_0BK@HIDGBPPN@?$CFs?3?5unknown?5option?5?8?9?9?$CFs?8?$AA@ 0049fb6c     mysys:my_getopt.obj
 0002:00003b88       ??_C@_0BK@JFALHNEE@?$CFs?3?5unknown?5variable?5?8?$CFs?8?$AA@ 0049fb88     mysys:my_getopt.obj
 0002:00003ba4       ??_C@_01HIHLOKLC@1?$AA@    0049fba4     mysys:my_getopt.obj
 0002:00003ba8       ??_C@_0DB@OBCAMIPA@?$CFs?3?5Option?5?8?9?9set?9variable?8?5requ@ 0049fba8     mysys:my_getopt.obj
 0002:00003bdc       ??_C@_0O@LAIDGFMB@?9set?9variable?$AA@ 0049fbdc     mysys:my_getopt.obj
 0002:00003bec       _sha_const_key             0049fbec     mysys:sha1.obj
 0002:00003c10       ??_C@_0BB@BIKLJNJD@Unknown?5error?5?$CFd?$AA@ 0049fc10     mysys:my_error.obj
 0002:00003c24       ??_C@_08KKHFAPMN@UNOPENED?$AA@ 0049fc24     mysys:my_div.obj
 0002:00003c30       ??_C@_07NFANNNEC@UNKNOWN?$AA@ 0049fc30     mysys:my_div.obj
 0002:00003c38       ??_C@_06LBMPDOLO@CLOCK$?$AA@ 0049fc38     mysys:my_access.obj
 0002:00003c40       ??_C@_04KOCLJNO@LPT9?$AA@  0049fc40     mysys:my_access.obj
 0002:00003c48       ??_C@_04BDPJIIJP@LPT8?$AA@ 0049fc48     mysys:my_access.obj
 0002:00003c50       ??_C@_04JEGBJEFA@LPT7?$AA@ 0049fc50     mysys:my_access.obj
 0002:00003c58       ??_C@_04INHKKFBB@LPT6?$AA@ 0049fc58     mysys:my_access.obj
 0002:00003c60       ??_C@_04KGFHPGNC@LPT5?$AA@ 0049fc60     mysys:my_access.obj
 0002:00003c68       ??_C@_04LPEMMHJD@LPT4?$AA@ 0049fc68     mysys:my_access.obj
 0002:00003c70       ??_C@_04PAANFBFE@LPT3?$AA@ 0049fc70     mysys:my_access.obj
 0002:00003c78       ??_C@_04OJBGGABF@LPT2?$AA@ 0049fc78     mysys:my_access.obj
 0002:00003c80       ??_C@_04MCDLDDNG@LPT1?$AA@ 0049fc80     mysys:my_access.obj
 0002:00003c88       ??_C@_04JDDPPBDJ@COM9?$AA@ 0049fc88     mysys:my_access.obj
 0002:00003c90       ??_C@_04IKCEMAHI@COM8?$AA@ 0049fc90     mysys:my_access.obj
 0002:00003c98       ??_C@_04NLMNMLH@COM7?$AA@  0049fc98     mysys:my_access.obj
 0002:00003ca0       ??_C@_04BEKHONPG@COM6?$AA@ 0049fca0     mysys:my_access.obj
 0002:00003ca8       ??_C@_04DPIKLODF@COM5?$AA@ 0049fca8     mysys:my_access.obj
 0002:00003cb0       ??_C@_04CGJBIPHE@COM4?$AA@ 0049fcb0     mysys:my_access.obj
 0002:00003cb8       ??_C@_04GJNABJLD@COM3?$AA@ 0049fcb8     mysys:my_access.obj
 0002:00003cc0       ??_C@_04HAMLCIPC@COM2?$AA@ 0049fcc0     mysys:my_access.obj
 0002:00003cc8       ??_C@_04FLOGHLDB@COM1?$AA@ 0049fcc8     mysys:my_access.obj
 0002:00003cd0       ??_C@_03JDMLODLP@NUL?$AA@  0049fcd0     mysys:my_access.obj
 0002:00003cd4       ??_C@_03OFAGCELM@AUX?$AA@  0049fcd4     mysys:my_access.obj
 0002:00003cd8       ??_C@_03BEHELHBE@PRN?$AA@  0049fcd8     mysys:my_access.obj
 0002:00003cdc       ??_C@_03ECCGHPEG@CON?$AA@  0049fcdc     mysys:my_access.obj
 0002:00003ce0       ??_C@_01KICIPPFI@?2?$AA@   0049fce0     mysys:my_getwd.obj
 0002:00003ce4       ??_C@_04LFNFNAMA@?4sym?$AA@ 0049fce4     mysys:mf_pack.obj
 0002:00003cec       ??_C@_02LMMGGCAJ@?3?5?$AA@ 0049fcec     mysys:my_messnc.obj
 0002:00003cf0       ??_C@_0CC@POIIBGBO@File?5?8?$CFs?8?5not?5found?5?$CIErrcode?3?5?$CFd@ 0049fcf0     mysys:errors.obj
 0002:00003d18       ??_C@_0FB@HBKGDBGI@Collation?5?8?$CFs?8?5is?5not?5a?5compiled@ 0049fd18     mysys:errors.obj
 0002:00003d6c       ??_C@_0CL@IPPKDKJC@Can?8t?5sync?5file?5?8?$CFs?8?5to?5disk?5?$CIEr@ 0049fd6c     mysys:errors.obj
 0002:00003d98       ??_C@_0CH@DMNLJIAN@Error?5on?5realpath?$CI?$CJ?5on?5?8?$CFs?8?5?$CIErr@ 0049fd98     mysys:errors.obj
 0002:00003dc0       ??_C@_0DG@MPBGHFJG@Can?8t?5create?5symlink?5?8?$CFs?8?5pointi@ 0049fdc0     mysys:errors.obj
 0002:00003df8       ??_C@_0CN@FDDHNKAL@Can?8t?5read?5value?5for?5symlink?5?8?$CFs@ 0049fdf8     mysys:errors.obj
 0002:00003e28       ??_C@_0DG@HFJCEGGP@Out?5of?5resources?5when?5opening?5fi@ 0049fe28     mysys:errors.obj
 0002:00003e60       ??_C@_0FJ@LJEFGFHC@Character?5set?5?8?$CFs?8?5is?5not?5a?5comp@ 0049fe60     mysys:errors.obj
 0002:00003ebc       ??_C@_0CK@KAOBDLLK@Can?8t?5create?5directory?5?8?$CFs?8?5?$CIErr@ 0049febc     mysys:errors.obj
 0002:00003ee8       ??_C@_0FP@GEOOMMDD@Disk?5is?5full?5writing?5?8?$CFs?8?5?$CIErrco@ 0049fee8     mysys:errors.obj
 0002:00003f48       ??_C@_0CG@DLBAOFCG@?$CFd?5files?5and?5?$CFd?5streams?5is?5left?5@ 0049ff48     mysys:errors.obj
 0002:00003f70       ??_C@_0BL@KPAFHPFA@Warning?3?5?8?$CFs?8?5had?5?$CFd?5links?$AA@ 0049ff70     mysys:errors.obj
 0002:00003f8c       ??_C@_0CH@HKPCIIFI@Can?8t?5change?5dir?5to?5?8?$CFs?8?5?$CIErrcod@ 0049ff8c     mysys:errors.obj
 0002:00003fb4       ??_C@_0CJ@HHIGEGH@Can?8t?5get?5working?5dirctory?5?$CIErrc@ 0049ffb4     mysys:errors.obj
 0002:00003fe0       ??_C@_0CM@IDOLEFDO@Can?8t?5open?5stream?5from?5handle?5?$CIE@ 0049ffe0     mysys:errors.obj
 0002:0000400c       ??_C@_0CI@JHPDBJAP@Can?8t?5change?5size?5of?5file?5?$CIErrco@ 004a000c     mysys:errors.obj
 0002:00004034       ??_C@_0CF@EBINEGNH@Can?8t?5get?5stat?5of?5?8?$CFs?8?5?$CIErrcode?3@ 004a0034     mysys:errors.obj
 0002:0000405c       ??_C@_0CF@DKKFLCIK@Can?8t?5read?5dir?5of?5?8?$CFs?8?5?$CIErrcode?3@ 004a005c     mysys:errors.obj
 0002:00004084       ??_C@_0CA@NMCGOICJ@Can?8t?5unlock?5file?5?$CIErrcode?3?5?$CFd?$CJ?$AA@ 004a0084     mysys:errors.obj
 0002:000040a4       ??_C@_0BO@FABCFMMA@Can?8t?5lock?5file?5?$CIErrcode?3?5?$CFd?$CJ?$AA@ 004a00a4     mysys:errors.obj
 0002:000040c4       ??_C@_0DK@OPEJLFLC@Unexpected?5eof?5found?5when?5readin@ 004a00c4     mysys:errors.obj
 0002:00004100       ??_C@_0CO@NDIKPEAP@Error?5on?5rename?5of?5?8?$CFs?8?5to?5?8?$CFs?8?5@ 004a0100     mysys:errors.obj
 0002:00004130       ??_C@_0CG@LPKMPJNP@Error?5on?5delete?5of?5?8?$CFs?8?5?$CIErrcode@ 004a0130     mysys:errors.obj
 0002:00004158       ??_C@_0CA@NLHLMAKD@Out?5of?5memory?5?$CINeeded?5?$CFu?5bytes?$CJ?$AA@ 004a0158     mysys:errors.obj
 0002:00004178       ??_C@_0CF@BEDBELLH@Error?5on?5close?5of?5?8?$CFs?8?5?$CIErrcode?3@ 004a0178     mysys:errors.obj
 0002:000041a0       ??_C@_0CG@CGPFOMKP@Error?5writing?5file?5?8?$CFs?8?5?$CIErrcode@ 004a01a0     mysys:errors.obj
 0002:000041c8       ??_C@_0CG@NONCHHAM@Error?5reading?5file?5?8?$CFs?8?5?$CIErrcode@ 004a01c8     mysys:errors.obj
 0002:000041f0       ??_C@_0CO@OHAAEPNE@Can?8t?5create?1write?5to?5file?5?8?$CFs?8?5@ 004a01f0     mysys:errors.obj
 0002:00004220       ??_C@_0L@BBMDDOEP@latin1_bin?$AA@ 004a0220     strings:ctype-latin1.obj
 0002:0000422c       ??_C@_0BC@JEMPBIB@latin1_german2_ci?$AA@ 004a022c     strings:ctype-latin1.obj
 0002:00004240       ??_C@_06OJHGLDPL@?$CInull?$CJ?$AA@ 004a0240     strings:my_vsnprintf.obj
 0002:00004248       ??_C@_06FNFBAEBE@binary?$AA@ 004a0248     strings:ctype-bin.obj
 0002:00004250       ??_C@_0CD@BFGJEGID@charsets?4charset?4collation?4rules@ 004a0250     strings:ctype.obj
 0002:00004274       ??_C@_0CD@FKCINAEE@charsets?4charset?4collation?4rules@ 004a0274     strings:ctype.obj
 0002:00004298       ??_C@_0CD@HBAFIDIH@charsets?4charset?4collation?4rules@ 004a0298     strings:ctype.obj
 0002:000042bc       ??_C@_0CH@KJFHHNMJ@charsets?4charset?4collation?4rules@ 004a02bc     strings:ctype.obj
 0002:000042e4       ??_C@_0BP@NMDEOJPD@charsets?4charset?4collation?4map?$AA@ 004a02e4     strings:ctype.obj
 0002:00004304       ??_C@_0CA@JGIKEKKE@charsets?4charset?4collation?4flag?$AA@ 004a0304     strings:ctype.obj
 0002:00004324       ??_C@_0CB@KBKKLI@charsets?4charset?4collation?4order@ 004a0324     strings:ctype.obj
 0002:00004348       ??_C@_0BO@MIJPBBIL@charsets?4charset?4collation?4id?$AA@ 004a0348     strings:ctype.obj
 0002:00004368       ??_C@_0CA@GPLMECFO@charsets?4charset?4collation?4name?$AA@ 004a0368     strings:ctype.obj
 0002:00004388       ??_C@_0BL@IDKPIAPF@charsets?4charset?4collation?$AA@ 004a0388     strings:ctype.obj
 0002:000043a4       ??_C@_0BN@ILNCMOEP@charsets?4charset?4unicode?4map?$AA@ 004a03a4     strings:ctype.obj
 0002:000043c4       ??_C@_0BJ@JKKCHCFM@charsets?4charset?4unicode?$AA@ 004a03c4     strings:ctype.obj
 0002:000043e0       ??_C@_0BL@GALBJBAL@charsets?4charset?4lower?4map?$AA@ 004a03e0     strings:ctype.obj
 0002:000043fc       ??_C@_0BH@GOLLAKNF@charsets?4charset?4lower?$AA@ 004a03fc     strings:ctype.obj
 0002:00004414       ??_C@_0BL@MCLGLPJA@charsets?4charset?4upper?4map?$AA@ 004a0414     strings:ctype.obj
 0002:00004430       ??_C@_0BH@DFAFGBGM@charsets?4charset?4upper?$AA@ 004a0430     strings:ctype.obj
 0002:00004448       ??_C@_0BL@IBJAIFFC@charsets?4charset?4ctype?4map?$AA@ 004a0448     strings:ctype.obj
 0002:00004464       ??_C@_0BH@HHGMIMKN@charsets?4charset?4ctype?$AA@ 004a0464     strings:ctype.obj
 0002:0000447c       ??_C@_0BH@DLFBNKOK@charsets?4charset?4alias?$AA@ 004a047c     strings:ctype.obj
 0002:00004494       ??_C@_0BN@PJKOHNED@charsets?4charset?4description?$AA@ 004a0494     strings:ctype.obj
 0002:000044b4       ??_C@_0BI@OAGONPDB@charsets?4charset?4family?$AA@ 004a04b4     strings:ctype.obj
 0002:000044cc       ??_C@_0BG@OFKJCAHC@charsets?4charset?4name?$AA@ 004a04cc     strings:ctype.obj
 0002:000044e4       ??_C@_0BL@KLEDBLCK@charsets?4charset?4binary?9id?$AA@ 004a04e4     strings:ctype.obj
 0002:00004500       ??_C@_0BM@CNFHBIFP@charsets?4charset?4primary?9id?$AA@ 004a0500     strings:ctype.obj
 0002:0000451c       ??_C@_0BB@NIMCMEKL@charsets?4charset?$AA@ 004a051c     strings:ctype.obj
 0002:00004530       ??_C@_0BA@BJIDBDPI@charsets?4max?9id?$AA@ 004a0530     strings:ctype.obj
 0002:00004540       ??_C@_08PBFNHBDC@charsets?$AA@ 004a0540     strings:ctype.obj
 0002:0000454c       ??_C@_0N@HPNLKDDF@xml?4encoding?$AA@ 004a054c     strings:ctype.obj
 0002:0000455c       ??_C@_0M@JDGBHFH@xml?4version?$AA@ 004a055c     strings:ctype.obj
 0002:00004568       ??_C@_03PJHHNEEI@xml?$AA@  004a0568     strings:ctype.obj
 0002:0000456c       ??_C@_04HHCDBDLF@?5?7?$AN?6?$AA@ 004a056c     strings:ctype.obj
 0002:00004574       ??_C@_06NOJLBGIH@?5?$CFs?5?$CFs?$AA@ 004a0574     strings:ctype.obj
 0002:0000457c       ??_C@_03DKMEACPB@?$DM?$DM?$DM?$AA@ 004a057c     strings:ctype.obj
 0002:00004580       ??_C@_02FODMEDOG@?$DM?$DM?$AA@ 004a0580     strings:ctype.obj
 0002:00004584       ??_C@_01MNNFJEPP@?$DM?$AA@ 004a0584     strings:ctype.obj
 0002:00004588       ??_C@_01HNPIGOCE@?$CG?$AA@ 004a0588     strings:ctype.obj
 0002:0000458c       ??_C@_08DOMPDOCM@compiled?$AA@ 004a058c     strings:ctype.obj
 0002:00004598       ??_C@_07CJDBHDIN@primary?$AA@ 004a0598     strings:ctype.obj
 0002:000045a0       ??_C@_0BC@FAACCCJD@utf8_hungarian_ci?$AA@ 004a05a0     strings:ctype-uca.obj
 0002:000045b4       ??_C@_0BC@MMMDBEJH@utf8_esperanto_ci?$AA@ 004a05b4     strings:ctype-uca.obj
 0002:000045c8       ??_C@_0BA@POPDBMKL@utf8_persian_ci?$AA@ 004a05c8     strings:ctype-uca.obj
 0002:000045d8       ??_C@_0O@JCIJCIKH@utf8_roman_ci?$AA@ 004a05d8     strings:ctype-uca.obj
 0002:000045e8       ??_C@_0BB@DMDMGDOP@utf8_spanish2_ci?$AA@ 004a05e8     strings:ctype-uca.obj
 0002:000045fc       ??_C@_0P@NIJBPDBH@utf8_slovak_ci?$AA@ 004a05fc     strings:ctype-uca.obj
 0002:0000460c       ??_C@_0BD@MHPAIICH@utf8_lithuanian_ci?$AA@ 004a060c     strings:ctype-uca.obj
 0002:00004620       ??_C@_0P@LICOLLCI@utf8_danish_ci?$AA@ 004a0620     strings:ctype-uca.obj
 0002:00004630       ??_C@_0O@OMAOFLBG@utf8_czech_ci?$AA@ 004a0630     strings:ctype-uca.obj
 0002:00004640       ??_C@_0BA@HIEJCGP@utf8_turkish_ci?$AA@ 004a0640     strings:ctype-uca.obj
 0002:00004650       ??_C@_0BA@DLMLGKMF@utf8_swedish_ci?$AA@ 004a0650     strings:ctype-uca.obj
 0002:00004660       ??_C@_0BA@BFDLDMHI@utf8_spanish_ci?$AA@ 004a0660     strings:ctype-uca.obj
 0002:00004670       ??_C@_0BB@IDIAKKIG@utf8_estonian_ci?$AA@ 004a0670     strings:ctype-uca.obj
 0002:00004684       ??_C@_0P@BMIMEGFF@utf8_polish_ci?$AA@ 004a0684     strings:ctype-uca.obj
 0002:00004694       ??_C@_0BC@ONGHKMPJ@utf8_slovenian_ci?$AA@ 004a0694     strings:ctype-uca.obj
 0002:000046a8       ??_C@_0BB@EMJFIJEJ@utf8_romanian_ci?$AA@ 004a06a8     strings:ctype-uca.obj
 0002:000046bc       ??_C@_0BA@GIAOJNDD@utf8_latvian_ci?$AA@ 004a06bc     strings:ctype-uca.obj
 0002:000046cc       ??_C@_0BC@OLHAMMMB@utf8_icelandic_ci?$AA@ 004a06cc     strings:ctype-uca.obj
 0002:000046e0       ??_C@_0BA@GBKHDDAB@utf8_unicode_ci?$AA@ 004a06e0     strings:ctype-uca.obj
 0002:000046f0       ??_C@_0BC@JMLAFJDL@ucs2_hungarian_ci?$AA@ 004a06f0     strings:ctype-uca.obj
 0002:00004704       ??_C@_0BC@HBGPDP@ucs2_esperanto_ci?$AA@ 004a0704     strings:ctype-uca.obj
 0002:00004718       ??_C@_0BA@PJNOLINJ@ucs2_persian_ci?$AA@ 004a0718     strings:ctype-uca.obj
 0002:00004728       ??_C@_0O@CNOJEKEN@ucs2_roman_ci?$AA@ 004a0728     strings:ctype-uca.obj
 0002:00004738       ??_C@_0BB@ICDAFOFL@ucs2_spanish2_ci?$AA@ 004a0738     strings:ctype-uca.obj
 0002:0000474c       ??_C@_0P@JIPBJIBD@ucs2_slovak_ci?$AA@ 004a074c     strings:ctype-uca.obj
 0002:0000475c       ??_C@_0BD@BPDBBBIG@ucs2_lithuanian_ci?$AA@ 004a075c     strings:ctype-uca.obj
 0002:00004770       ??_C@_0P@PIEONACM@ucs2_danish_ci?$AA@ 004a0770     strings:ctype-uca.obj
 0002:00004780       ??_C@_0O@FDGODJPM@ucs2_czech_ci?$AA@ 004a0780     strings:ctype-uca.obj
 0002:00004790       ??_C@_0BA@KJDGBN@ucs2_turkish_ci?$AA@ 004a0790     strings:ctype-uca.obj
 0002:000047a0       ??_C@_0BA@DMOGMOLH@ucs2_swedish_ci?$AA@ 004a07a0     strings:ctype-uca.obj
 0002:000047b0       ??_C@_0BA@BCBGJIAK@ucs2_spanish_ci?$AA@ 004a07b0     strings:ctype-uca.obj
 0002:000047c0       ??_C@_0BB@DNIMJHDC@ucs2_estonian_ci?$AA@ 004a07c0     strings:ctype-uca.obj
 0002:000047d4       ??_C@_0P@FMOMCNFB@ucs2_polish_ci?$AA@ 004a07d4     strings:ctype-uca.obj
 0002:000047e4       ??_C@_0BC@CBNFNHFB@ucs2_slovenian_ci?$AA@ 004a07e4     strings:ctype-uca.obj
 0002:000047f8       ??_C@_0BB@PCJJLEPN@ucs2_romanian_ci?$AA@ 004a07f8     strings:ctype-uca.obj
 0002:0000480c       ??_C@_0BA@GPCDDJEB@ucs2_latvian_ci?$AA@ 004a080c     strings:ctype-uca.obj
 0002:0000481c       ??_C@_0BC@CHMCLHGJ@ucs2_icelandic_ci?$AA@ 004a081c     strings:ctype-uca.obj
 0002:00004830       ??_C@_0BA@GGIKJHHD@ucs2_unicode_ci?$AA@ 004a0830     strings:ctype-uca.obj
 0002:000054f8       ??_C@_0L@JHIJEIOB@?$CFs?5at?5?8?$CFs?8?$AA@ 004a14f8     strings:ctype-uca.obj
 0002:00005504       ??_C@_0L@BNFOJFGF@?$CG?5expected?$AA@ 004a1504     strings:ctype-uca.obj
 0002:00005510       ??_C@_0BA@CIAPGHM@?$CG?5or?5?$DM?5expected?$AA@ 004a1510     strings:ctype-uca.obj
 0002:00005520       ??_C@_0BE@OMJLCPFJ@Should?5never?5happen?$AA@ 004a1520     strings:ctype-uca.obj
 0002:00005534       ??_C@_0P@MGHCGHFF@Too?5many?5rules?$AA@ 004a1534     strings:ctype-uca.obj
 0002:00005544       ??_C@_0BD@DBLGAKEN@character?5expected?$AA@ 004a1544     strings:ctype-uca.obj
 0002:00005558       ??_C@_0BC@FMLIFBCF@Unknown?5character?$AA@ 004a1558     strings:ctype-uca.obj
 0002:0000556c       ??_C@_09LKJGLAE@cp932_bin?$AA@ 004a156c     strings:ctype-cp932.obj
 0002:00005578       ??_C@_0BC@CHMDDICP@cp932_japanese_ci?$AA@ 004a1578     strings:ctype-cp932.obj
 0002:0000558c       ??_C@_0BC@DDCCPNHL@latin1_spanish_ci?$AA@ 004a158c     strings:ctype-extra.obj
 0002:000055a0       ??_C@_0L@JHFHEMOB@latin2_bin?$AA@ 004a15a0     strings:ctype-extra.obj
 0002:000055ac       ??_C@_0L@DMJAOHGP@cp1250_bin?$AA@ 004a15ac     strings:ctype-extra.obj
 0002:000055b8       ??_C@_0BC@DDOEKG@latin1_general_cs?$AA@ 004a15b8     strings:ctype-extra.obj
 0002:000055cc       ??_C@_0BC@LABOBOHN@latin1_general_ci?$AA@ 004a15cc     strings:ctype-extra.obj
 0002:000055e0       ??_C@_0BD@LKINKBJP@cp1250_croatian_ci?$AA@ 004a15e0     strings:ctype-extra.obj
 0002:000055f4       ??_C@_0BD@LCIKDBGI@latin2_croatian_ci?$AA@ 004a15f4     strings:ctype-extra.obj
 0002:00005608       ??_C@_0BC@GHHJKIPO@cp1250_general_ci?$AA@ 004a1608     strings:ctype-extra.obj
 0002:0000561c       ??_C@_06OIGKMLKM@cp1250?$AA@ 004a161c     strings:ctype-extra.obj
 0002:00005624       ??_C@_0BE@IGDBMPBG@latin2_hungarian_ci?$AA@ 004a1624     strings:ctype-extra.obj
 0002:00005638       ??_C@_0BB@HINPBEBI@latin1_danish_ci?$AA@ 004a1638     strings:ctype-extra.obj
 0002:0000564c       ??_C@_0BC@NNEHCLD@latin2_general_ci?$AA@ 004a164c     strings:ctype-extra.obj
 0002:00005660       ??_C@_06IGIJGDC@latin2?$AA@ 004a1660     strings:ctype-extra.obj
 0002:00005668       ??_C@_0BC@EOOMILFB@latin1_german1_ci?$AA@ 004a1668     strings:ctype-extra.obj
 0002:0000567c       ??_C@_08BMIDNPKK@utf8_bin?$AA@ 004a167c     strings:ctype-utf8.obj
 0002:00005688       ??_C@_0BA@JGAHNPHO@utf8_general_ci?$AA@ 004a1688     strings:ctype-utf8.obj
 0002:00005698       ??_C@_08OGGFHGPF@ujis_bin?$AA@ 004a1698     strings:ctype-ujis.obj
 0002:000056a4       ??_C@_0BB@KEGFAMFE@ujis_japanese_ci?$AA@ 004a16a4     strings:ctype-ujis.obj
 0002:000056b8       ??_C@_04BPGAKKKA@ujis?$AA@ 004a16b8     strings:ctype-ujis.obj
 0002:000056c0       ??_C@_08POIAHHJH@ucs2_bin?$AA@ 004a16c0     strings:ctype-ucs2.obj
 0002:000056cc       ??_C@_0BA@JBCKHLAM@ucs2_general_ci?$AA@ 004a16cc     strings:ctype-ucs2.obj
 0002:000056dc       ??_C@_0L@NBGPIHPA@tis620_bin?$AA@ 004a16dc     strings:ctype-tis620.obj
 0002:000056e8       ??_C@_0P@GFLKKABK@tis620_thai_ci?$AA@ 004a16e8     strings:ctype-tis620.obj
 0002:000056f8       ??_C@_06MGNELAEE@tis620?$AA@ 004a16f8     strings:ctype-tis620.obj
 0002:00005700       ??_C@_08JFHPAPHP@sjis_bin?$AA@ 004a1700     strings:ctype-sjis.obj
 0002:0000570c       ??_C@_0BB@DFBLLFM@sjis_japanese_ci?$AA@ 004a170c     strings:ctype-sjis.obj
 0002:00005720       ??_C@_04JACAFPAA@sjis?$AA@ 004a1720     strings:ctype-sjis.obj
 0002:00005728       ??_C@_07KJPNPKHF@gbk_bin?$AA@ 004a1728     strings:ctype-gbk.obj
 0002:00005730       ??_C@_0P@GNPIDCFN@gbk_chinese_ci?$AA@ 004a1730     strings:ctype-gbk.obj
 0002:00005740       ??_C@_03LFBAECHL@gbk?$AA@  004a1740     strings:ctype-gbk.obj
 0002:00005744       ??_C@_0L@ODLCHMHL@gb2312_bin?$AA@ 004a1744     strings:ctype-gb2312.obj
 0002:00005750       ??_C@_0BC@NLCEMJAE@gb2312_chinese_ci?$AA@ 004a1750     strings:ctype-gb2312.obj
 0002:00005764       ??_C@_06JIBIJLME@gb2312?$AA@ 004a1764     strings:ctype-gb2312.obj
 0002:0000576c       ??_C@_09JHKEBMLO@euckr_bin?$AA@ 004a176c     strings:ctype-euc_kr.obj
 0002:00005778       ??_C@_0BA@EKHKJCHH@euckr_korean_ci?$AA@ 004a1778     strings:ctype-euc_kr.obj
 0002:00005788       ??_C@_05FHCOMIFC@euckr?$AA@ 004a1788     strings:ctype-euc_kr.obj
 0002:00005790       ??_C@_0M@BEKAHKLO@eucjpms_bin?$AA@ 004a1790     strings:ctype-eucjpms.obj
 0002:0000579c       ??_C@_0BE@GEODDEKB@eucjpms_japanese_ci?$AA@ 004a179c     strings:ctype-eucjpms.obj
 0002:000057b0       ??_C@_07MOEGLBAH@eucjpms?$AA@ 004a17b0     strings:ctype-eucjpms.obj
 0002:000057b8       ??_C@_0BA@IOACFKLD@latin2_czech_cs?$AA@ 004a17b8     strings:ctype-czech.obj
 0002:000057c8       ??_C@_04PJNGGADL@?$AF?6?$BC?$BC?$AA@ 004a17c8     strings:ctype-czech.obj
 0002:000057d0       ??_C@_01GFHCPBMG@C?$AA@    004a17d0     strings:ctype-czech.obj
 0002:000057d4       ??_C@_04NALNINKB@?$AF?6?$BB?$BB?$AA@ 004a17d4     strings:ctype-czech.obj
 0002:000057dc       ??_C@_01PAPGNFGE@c?$AA@    004a17dc     strings:ctype-czech.obj
 0002:000057e0       ??_C@_04DCMIHFOD@?$AM?$BJ11?$AA@ 004a17e0     strings:ctype-czech.obj
 0002:000057e8       ??_C@_02EKMCNAHJ@CH?$AA@   004a17e8     strings:ctype-czech.obj
 0002:000057ec       ??_C@_04CKBBCOJF@?$AM?$BJ00?$AA@ 004a17ec     strings:ctype-czech.obj
 0002:000057f4       ??_C@_02NPEGPENL@Ch?$AA@   004a17f4     strings:ctype-czech.obj
 0002:000057f8       ??_C@_04PADBMEEG@?$AM?$BJ?1?1?$AA@ 004a17f8     strings:ctype-czech.obj
 0002:00005800       ??_C@_02OHALLCDL@ch?$AA@   004a1800     strings:ctype-czech.obj
 0002:00005808       ??_C@_0BAB@LDKHKKBE@?$LE?$LF?$LG?$LH?$LI?$LJ?$LK?$LL?$LM?$AC?$LO?$LP?$MA?A?B?C?D?E?F?G?H?I?J?K?L?M?N?O?P?Q?R?S@ 004a1808     strings:ctype-czech.obj
 0002:00005910       ??_C@_0BAB@JENJBEPB@?$AA?$AA?$AA?$AA?$AA?$AA?$AA?$AA?$AA?$AC?$AA?$AA?$AA?$AA?$AA?$AA?$AA?$AA?$AA?$AA?$AA?$AA?$AA?$AA?$AA?$AA?$AA?$AA?$AA?$AA?$AA?$AA@ 004a1910     strings:ctype-czech.obj
 0002:00005a18       ??_C@_0BAB@GIDHDAFJ@?$AA?$AA?$AA?$AA?$AA?$AA?$AA?$AA?$AA?$AC?$AA?$AA?$AA?$AA?$AA?$AA?$AA?$AA?$AA?$AA?$AA?$AA?$AA?$AA?$AA?$AA?$AA?$AA?$AA?$AA?$AA?$AA@ 004a1a18     strings:ctype-czech.obj
 0002:00005b20       ??_C@_0BAB@HNOGOFAJ@?$AA?$AA?$AA?$AA?$AA?$AA?$AA?$AA?$AA?$AC?$AA?$AA?$AA?$AA?$AA?$AA?$AA?$AA?$AA?$AA?$AA?$AA?$AA?$AA?$AA?$AA?$AA?$AA?$AA?$AA?$AA?$AA@ 004a1b20     strings:ctype-czech.obj
 0002:00005c24       ??_C@_0BA@MDKNCPKD@cp1250_czech_cs?$AA@ 004a1c24     strings:ctype-win1250ch.obj
 0002:00005c34       ??_C@_08CJHFMMIC@big5_bin?$AA@ 004a1c34     strings:ctype-big5.obj
 0002:00005c40       ??_C@_0BA@HCMNJPNC@big5_chinese_ci?$AA@ 004a1c40     strings:ctype-big5.obj
 0002:00005c50       ??_C@_04HDKIILFF@big5?$AA@ 004a1c50     strings:ctype-big5.obj
 0002:00005c58       _log_10                    004a1c58     strings:strtod.obj
 0002:00006600       __real@7fefffffffffffff    004a2600     strings:strtod.obj
 0002:00006608       __real@7fe1ccf385ebc8a0    004a2608     strings:strtod.obj
 0002:00006610       __real@000730d67819e8d2    004a2610     strings:strtod.obj
 0002:00006618       __real@3ffcc359e067a348    004a2618     strings:strtod.obj
 0002:00006620       __real@4024000000000000    004a2620     strings:strtod.obj
 0002:00006628       __real@3ff0000000000000    004a2628     strings:strtod.obj
 0002:00006630       __real@0000000000000000    004a2630     strings:strtod.obj
 0002:00006638       ??_C@_03BECJNG@?8?$CB?8?$AA@ 004a2638     strings:xml.obj
 0002:0000663c       ??_C@_03BGKMKHKM@?8?$DP?8?$AA@ 004a263c     strings:xml.obj
 0002:00006640       ??_C@_04OEPMCOLO@TEXT?$AA@ 004a2640     strings:xml.obj
 0002:00006648       ??_C@_07JEDAPFNH@COMMENT?$AA@ 004a2648     strings:xml.obj
 0002:00006650       ??_C@_03KIKAENM@?8?1?8?$AA@ 004a2650     strings:xml.obj
 0002:00006654       ??_C@_03BHGOMNJL@?8?$DO?8?$AA@ 004a2654     strings:xml.obj
 0002:00006658       ??_C@_03BEOKBJPF@?8?$DM?8?$AA@ 004a2658     strings:xml.obj
 0002:0000665c       ??_C@_03BFCIHDMC@?8?$DN?8?$AA@ 004a265c     strings:xml.obj
 0002:00006660       ??_C@_05MDAAGLOE@IDENT?$AA@ 004a2660     strings:xml.obj
 0002:00006668       ??_C@_06IGECGLFO@STRING?$AA@ 004a2668     strings:xml.obj
 0002:00006670       ??_C@_03KPJEKKJC@EOF?$AA@  004a2670     strings:xml.obj
 0002:00006674       ??_C@_0M@OGPNDMIP@?$DP?8?$CC?$DN?1?$DM?$DO?5?7?$AN?6?$AA@ 004a2674     strings:xml.obj
 0002:00006680       ??_C@_06NPFKMDPM@?$DP?$DN?1?$DM?$DO?$CB?$AA@ 004a2680     strings:xml.obj
 0002:00006688       ??_C@_03PNLDJJMO@?9?9?$DO?$AA@ 004a2688     strings:xml.obj
 0002:0000668c       ??_C@_04FFDNBKGC@?$DM?$CB?9?9?$AA@ 004a268c     strings:xml.obj
 0002:00006694       ??_C@_0M@JHPIDPOK@To?5deep?5XML?$AA@ 004a2694     strings:xml.obj
 0002:000066a0       ??_C@_0CE@HIBBMALO@?8?$DM?1?$CFs?$DO?8?5unexpected?5?$CI?8?$DM?1?$CFs?$DO?8?5want@ 004a26a0     strings:xml.obj
 0002:000066c4       ??_C@_0CH@HIBKOAJO@3?3?5?$CFs?5unexpected?5?$CIident?5or?5?8?1?8?5w@ 004a26c4     strings:xml.obj
 0002:000066ec       ??_C@_0BO@DNBFCJAM@6?3?5?$CFs?5unexpected?5?$CI?8?$DP?8?5wanted?$CJ?$AA@ 004a26ec     strings:xml.obj
 0002:0000670c       ??_C@_0CK@ICCLNHGI@4?3?5?$CFs?5unexpected?5?$CIident?5or?5strin@ 004a270c     strings:xml.obj
 0002:00006738       ??_C@_0CA@MOCEIADI@1?3?5?$CFs?5unexpected?5?$CIident?5wanted?$CJ?$AA@ 004a2738     strings:xml.obj
 0002:00006758       ??_C@_0BO@LIDKNDNE@5?3?5?$CFs?5unexpected?5?$CI?8?$DO?8?5wanted?$CJ?$AA@ 004a2758     strings:xml.obj
 0002:00006778       ??_C@_0M@GPMPBOKO@TCP?1IP?5?$CI?$CFd?$CJ?$AA@ 004a2778     vio:vio.obj
 0002:00006784       ??_C@_0M@BKHBDAGP@socket?5?$CI?$CFd?$CJ?$AA@ 004a2784     vio:vio.obj
 0002:00006790       ??_C@_0L@BGAKJGHL@named?5pipe?$AA@ 004a2790     vio:vio.obj
 0002:0000679c       ??_C@_0O@CPADDGOO@shared?5memory?$AA@ 004a279c     vio:vio.obj
 0002:000067ac       ??_C@_09PFCHIMEP@127?40?40?41?$AA@ 004a27ac     vio:viosocket.obj
 0002:000067b8       ??_C@_0EC@CLDKCMBN@SSL?5error?3?5Private?5key?5does?5not?5@ 004a27b8     vio:viosslfactories.obj
 0002:000067fc       ??_C@_0DA@NBDILBAE@SSL?5error?3?5Unable?5to?5get?5private@ 004a27fc     vio:viosslfactories.obj
 0002:0000682c       ??_C@_0DA@LHDACKOL@SSL?5error?3?5Unable?5to?5get?5certifi@ 004a282c     vio:viosslfactories.obj
 0002:00006864       ??_7Message@yaSSL@@6B@     004a2864     yassl:ssl.obj
 0002:00006880       ??_7HandShakeBase@yaSSL@@6B@ 004a2880     yassl:ssl.obj
 0002:00006898       ??_7HASH@TaoCrypt@@6B@     004a2898     yassl:ssl.obj
 0002:000068b4       ??_7MD5@TaoCrypt@@6B@      004a28b4     yassl:ssl.obj
 0002:000068dc       ??_7MD4@TaoCrypt@@6B@      004a28dc     yassl:ssl.obj
 0002:00006900       ??_C@_0BM@CIPOPOID@Not?5Implemented?0?5SSLv2?5only?$AA@ 004a2900     yassl:ssl.obj
 0002:0000691c       ??_C@_05MOEBAHEJ@SSLv3?$AA@ 004a291c     yassl:ssl.obj
 0002:00006924       ??_C@_05LLIBCOJ@TLSv1?$AA@ 004a2924     yassl:ssl.obj
 0002:0000692c       ??_C@_0BL@IAMLJBHP@SSLeay?5yaSSL?5compatibility?$AA@ 004a292c     yassl:ssl.obj
 0002:00006948       ??_C@_0CI@BCOALAL@Please?5supply?5a?5buffer?5for?5error@ 004a2948     yassl:ssl.obj
 0002:00006970       ??_C@_0BA@JGKGKAME@Not?5Implemented?$AA@ 004a2970     yassl:ssl.obj
 0002:00006980       ??_C@_03GCGHEHKJ@MD5?$AA@  004a2980     yassl:ssl.obj
 0002:00006984       ??_C@_0N@MLDFENGJ@DES?9EDE3?9CBC?$AA@ 004a2984     yassl:ssl.obj
 0002:00006994       ??_C@_0M@FOEEEMFG@AES?9256?9CBC?$AA@ 004a2994     yassl:ssl.obj
 0002:000069a0       ??_C@_0M@IMPKGDNH@AES?9192?9CBC?$AA@ 004a29a0     yassl:ssl.obj
 0002:000069ac       ??_C@_0M@CPGGBEEL@AES?9128?9CBC?$AA@ 004a29ac     yassl:ssl.obj
 0002:000069b8       ??_C@_07LDJJJFAI@DES?9CBC?$AA@ 004a29b8     yassl:ssl.obj
 0002:000069c0       ??_C@_02JDPG@rb?$AA@       004a29c0     yassl:ssl.obj
 0002:000069c4       ??_C@_02KHDDNBB@?2?$CK?$AA@ 004a29c4     yassl:ssl.obj
 0002:000069c8       ??_C@_0L@OLGALLCA@AES256?9RMD?$AA@ 004a29c8     yassl:ssl.obj
 0002:000069d4       ??_C@_0L@JKECODDN@AES128?9RMD?$AA@ 004a29d4     yassl:ssl.obj
 0002:000069e0       ??_C@_0N@LBCIOJFO@DES?9CBC3?9RMD?$AA@ 004a29e0     yassl:ssl.obj
 0002:000069f0       ??_C@_0BD@HPDOGFIE@DHE?9RSA?9AES256?9RMD?$AA@ 004a29f0     yassl:ssl.obj
 0002:00006a04       ??_C@_0BD@OBMDNJJ@DHE?9RSA?9AES128?9RMD?$AA@ 004a2a04     yassl:ssl.obj
 0002:00006a18       ??_C@_0BF@BKCIPLDO@DHE?9RSA?9DES?9CBC3?9RMD?$AA@ 004a2a18     yassl:ssl.obj
 0002:00006a30       ??_C@_0BD@MNPNDNKI@DHE?9DSS?9AES256?9RMD?$AA@ 004a2a30     yassl:ssl.obj
 0002:00006a44       ??_C@_0BD@LMNPGFLF@DHE?9DSS?9AES128?9RMD?$AA@ 004a2a44     yassl:ssl.obj
 0002:00006a58       ??_C@_0BF@EGKJPLJF@DHE?9DSS?9DES?9CBC3?9RMD?$AA@ 004a2a58     yassl:ssl.obj
 0002:00006a70       ??_C@_0BD@LMDODEEP@DHE?9RSA?9AES256?9SHA?$AA@ 004a2a70     yassl:ssl.obj
 0002:00006a84       ??_C@_0BD@OPNGMGD@DHE?9DSS?9AES256?9SHA?$AA@ 004a2a84     yassl:ssl.obj
 0002:00006a98       ??_C@_0L@CIGAOKOL@AES256?9SHA?$AA@ 004a2a98     yassl:ssl.obj
 0002:00006aa4       ??_C@_0BD@MNBMGMFC@DHE?9RSA?9AES128?9SHA?$AA@ 004a2aa4     yassl:ssl.obj
 0002:00006ab8       ??_C@_0BD@HPNPDEHO@DHE?9DSS?9AES128?9SHA?$AA@ 004a2ab8     yassl:ssl.obj
 0002:00006acc       ??_C@_0L@FJECLCPG@AES128?9SHA?$AA@ 004a2acc     yassl:ssl.obj
 0002:00006ad8       ??_C@_0BF@KCOPIELP@EDH?9RSA?9DES?9CBC3?9SHA?$AA@ 004a2ad8     yassl:ssl.obj
 0002:00006af0       ??_C@_0BE@BMKPLFLB@EDH?9RSA?9DES?9CBC?9SHA?$AA@ 004a2af0     yassl:ssl.obj
 0002:00006b04       ??_C@_0BF@POGOIEBE@EDH?9DSS?9DES?9CBC3?9SHA?$AA@ 004a2b04     yassl:ssl.obj
 0002:00006b1c       ??_C@_0BE@COMFBKAK@EDH?9DSS?9DES?9CBC?9SHA?$AA@ 004a2b1c     yassl:ssl.obj
 0002:00006b30       ??_C@_0N@HCCILIJF@DES?9CBC3?9SHA?$AA@ 004a2b30     yassl:ssl.obj
 0002:00006b40       ??_C@_0M@LLIFGIFE@DES?9CBC?9SHA?$AA@ 004a2b40     yassl:ssl.obj
 0002:00006b4c       ??_C@_07BANEBHLH@RC4?9SHA?$AA@ 004a2b4c     yassl:ssl.obj
 0002:00006b54       ??_C@_07OCFLHCIN@RC4?9MD5?$AA@ 004a2b54     yassl:ssl.obj
 0002:00006b80       ??_C@_07MIJDMBL@GGGGGGG?$AA@ 004a2b80     yassl:yassl_int.obj
 0002:00006b88       ??_C@_06CHLBDKEK@FFFFFF?$AA@ 004a2b88     yassl:yassl_int.obj
 0002:00006b90       ??_C@_05NGCOEONO@EEEEE?$AA@ 004a2b90     yassl:yassl_int.obj
 0002:00006b98       ??_C@_03POJCPIGP@CCC?$AA@  004a2b98     yassl:yassl_int.obj
 0002:00006b9c       ??_C@_09IKAJMJIH@yaSSL?4log?$AA@ 004a2b9c     yassl:yassl_int.obj
 0002:00006bb0       ??_7Digest@yaSSL@@6B@      004a2bb0     yassl:crypto_wrapper.obj
 0002:00006bcc       ??_7BulkCipher@yaSSL@@6B@  004a2bcc     yassl:crypto_wrapper.obj
 0002:00006bf0       ??_7Auth@yaSSL@@6B@        004a2bf0     yassl:crypto_wrapper.obj
 0002:00006c04       ??_7SHA@TaoCrypt@@6B@      004a2c04     yassl:crypto_wrapper.obj
 0002:00006c2c       ??_7RIPEMD160@TaoCrypt@@6B@ 004a2c2c     yassl:crypto_wrapper.obj
 0002:00006c54       ??_7Mode_BASE@TaoCrypt@@6B@ 004a2c54     yassl:crypto_wrapper.obj
 0002:00006c64       ??_7DES@TaoCrypt@@6B@      004a2c64     yassl:crypto_wrapper.obj
 0002:00006c74       ??_7DES_EDE3@TaoCrypt@@6B@ 004a2c74     yassl:crypto_wrapper.obj
 0002:00006c84       ??_7AES@TaoCrypt@@6B@      004a2c84     yassl:crypto_wrapper.obj
 0002:00006c94       ??_7MD5@yaSSL@@6B@         004a2c94     yassl:crypto_wrapper.obj
 0002:00006cb0       ??_7SHA@yaSSL@@6B@         004a2cb0     yassl:crypto_wrapper.obj
 0002:00006ccc       ??_7RMD@yaSSL@@6B@         004a2ccc     yassl:crypto_wrapper.obj
 0002:00006ce8       ??_7RC4@yaSSL@@6B@         004a2ce8     yassl:crypto_wrapper.obj
 0002:00006d0c       ??_7AES@yaSSL@@6B@         004a2d0c     yassl:crypto_wrapper.obj
 0002:00006d30       ??_7HMAC_MD5@yaSSL@@6B@    004a2d30     yassl:crypto_wrapper.obj
 0002:00006d4c       ??_7HMAC_SHA@yaSSL@@6B@    004a2d4c     yassl:crypto_wrapper.obj
 0002:00006d68       ??_7HMAC_RMD@yaSSL@@6B@    004a2d68     yassl:crypto_wrapper.obj
 0002:00006d84       ??_7DES@yaSSL@@6B@         004a2d84     yassl:crypto_wrapper.obj
 0002:00006da8       ??_7DES_EDE@yaSSL@@6B@     004a2da8     yassl:crypto_wrapper.obj
 0002:00006dcc       ??_7DSS@yaSSL@@6B@         004a2dcc     yassl:crypto_wrapper.obj
 0002:00006de0       ??_7RSA@yaSSL@@6B@         004a2de0     yassl:crypto_wrapper.obj
 0002:00006df0       ??_C@_01LIIJDEN@?$AN?$AA@  004a2df0     yassl:crypto_wrapper.obj
 0002:00006df4       ??_C@_03BKNEFOAH@AES?$AA@  004a2df4     yassl:crypto_wrapper.obj
 0002:00006df8       ??_C@_01IHBHIGKO@?0?$AA@   004a2df8     yassl:crypto_wrapper.obj
 0002:00006dfc       ??_C@_03CNAKKODF@DES?$AA@  004a2dfc     yassl:crypto_wrapper.obj
 0002:00006e00       ??_C@_09OEEMHJLK@Proc?9Type?$AA@ 004a2e00     yassl:crypto_wrapper.obj
 0002:00006e0c       ??_C@_0BO@KNLPBMJG@?9?9?9?9?9END?5RSA?5PRIVATE?5KEY?9?9?9?9?9?$AA@ 004a2e0c     yassl:crypto_wrapper.obj
 0002:00006e2c       ??_C@_0CA@PEOGIGIM@?9?9?9?9?9BEGIN?5RSA?5PRIVATE?5KEY?9?9?9?9?9?$AA@ 004a2e2c     yassl:crypto_wrapper.obj
 0002:00006e4c       ??_C@_0BK@LPPAEOGJ@?9?9?9?9?9END?5CERTIFICATE?9?9?9?9?9?$AA@ 004a2e4c     yassl:crypto_wrapper.obj
 0002:00006e68       ??_C@_0BM@CPJANAAJ@?9?9?9?9?9BEGIN?5CERTIFICATE?9?9?9?9?9?$AA@ 004a2e68     yassl:crypto_wrapper.obj
 0002:00006e94       ??_7HandShakeHeader@yaSSL@@6B@ 004a2e94     yassl:yassl_imp.obj
 0002:00006eb0       ??_7ServerKeyBase@yaSSL@@6B@ 004a2eb0     yassl:yassl_imp.obj
 0002:00006ec8       ??_7ClientKeyBase@yaSSL@@6B@ 004a2ec8     yassl:yassl_imp.obj
 0002:00006ee0       ??_7ClientDiffieHellmanPublic@yaSSL@@6B@ 004a2ee0     yassl:yassl_imp.obj
 0002:00006ef8       ??_7ChangeCipherSpec@yaSSL@@6B@ 004a2ef8     yassl:yassl_imp.obj
 0002:00006f14       ??_7Alert@yaSSL@@6B@       004a2f14     yassl:yassl_imp.obj
 0002:00006f30       ??_7Data@yaSSL@@6B@        004a2f30     yassl:yassl_imp.obj
 0002:00006f4c       ??_7Certificate@yaSSL@@6B@ 004a2f4c     yassl:yassl_imp.obj
 0002:00006f64       ??_7ServerHello@yaSSL@@6B@ 004a2f64     yassl:yassl_imp.obj
 0002:00006f7c       ??_7ServerHelloDone@yaSSL@@6B@ 004a2f7c     yassl:yassl_imp.obj
 0002:00006f94       ??_7ClientHello@yaSSL@@6B@ 004a2f94     yassl:yassl_imp.obj
 0002:00006fac       ??_7ServerKeyExchange@yaSSL@@6B@ 004a2fac     yassl:yassl_imp.obj
 0002:00006fc4       ??_7CertificateVerify@yaSSL@@6B@ 004a2fc4     yassl:yassl_imp.obj
 0002:00006fdc       ??_7ClientKeyExchange@yaSSL@@6B@ 004a2fdc     yassl:yassl_imp.obj
 0002:00006ff4       ??_7Finished@yaSSL@@6B@    004a2ff4     yassl:yassl_imp.obj
 0002:0000700c       ??_7HelloRequest@yaSSL@@6B@ 004a300c     yassl:yassl_imp.obj
 0002:00007024       ??_7RSA_Server@yaSSL@@6B@  004a3024     yassl:yassl_imp.obj
 0002:0000703c       ??_7Fortezza_Server@yaSSL@@6B@ 004a303c     yassl:yassl_imp.obj
 0002:00007054       ??_7FortezzaKeys@yaSSL@@6B@ 004a3054     yassl:yassl_imp.obj
 0002:0000706c       ??_7EncryptedPreMasterSecret@yaSSL@@6B@ 004a306c     yassl:yassl_imp.obj
 0002:00007080       ??_C@_0BJ@MIAIEIAP@server?5denied?5resumption?$AA@ 004a3080     yassl:yassl_imp.obj
 0002:0000709c       ??_C@_0BG@NFGEHEFF@session?5lookup?5failed?$AA@ 004a309c     yassl:yassl_imp.obj
 0002:000070b8       ??_7DH_Server@yaSSL@@6B@   004a30b8     yassl:yassl_imp.obj
 0002:000070cc       ??_C@_04OKGDLNCL@NONE?$AA@ 004a30cc     yassl:yassl_imp.obj
 0002:000070d8       ??_7CertificateRequest@yaSSL@@6B@ 004a30d8     yassl:yassl_imp.obj
 0002:0000717c       ??_C@_0BF@LOHHNDDD@unknown?5error?5number?$AA@ 004a317c     yassl:yassl_error.obj
 0002:00007194       ??_C@_0BN@DLDIDPJM@Unable?5to?5verify?5certificate?$AA@ 004a3194     yassl:yassl_error.obj
 0002:000071b4       ??_C@_0BK@HAFIKEEK@bad?5PEM?5format?5processing?$AA@ 004a31b4     yassl:yassl_error.obj
 0002:000071d0       ??_C@_0BH@PIPJPDKN@bad?5content?5processing?$AA@ 004a31d0     yassl:yassl_error.obj
 0002:000071e8       ??_C@_0CG@JIHDAALO@ASN?3?5bad?5other?5signature?5confirm@ 004a31e8     yassl:yassl_error.obj
 0002:00007210       ??_C@_0CF@OCOHBCCG@ASN?3?5bad?5self?5signature?5confirma@ 004a3210     yassl:yassl_error.obj
 0002:00007238       ??_C@_0BM@NEHMDLJI@ASN?3?5after?5date?5in?5the?5past?$AA@ 004a3238     yassl:yassl_error.obj
 0002:00007254       ??_C@_0BP@BJJDPHIA@ASN?3?5before?5date?5in?5the?5future?$AA@ 004a3254     yassl:yassl_error.obj
 0002:00007274       ??_C@_0BJ@HLIMONLK@ASN?3?5bad?5DSA?5r?5or?5s?5size?$AA@ 004a3274     yassl:yassl_error.obj
 0002:00007290       ??_C@_0BG@DKPAPHGN@ASN?3?5unknown?5hash?5OID?$AA@ 004a3290     yassl:yassl_error.obj
 0002:000072a8       ??_C@_0BL@LEANJGE@ASN?3?5unknown?5signature?5OID?$AA@ 004a32a8     yassl:yassl_error.obj
 0002:000072c4       ??_C@_0BK@DFPFLNHD@ASN?3?5bad?5Signature?5Length?$AA@ 004a32c4     yassl:yassl_error.obj
 0002:000072e0       ??_C@_0BD@BBKHNDOD@ASN?3?5bad?5Date?5Size?$AA@ 004a32e0     yassl:yassl_error.obj
 0002:000072f4       ??_C@_0O@NCDKAAAO@ASN?3?5bad?5TIME?$AA@ 004a32f4     yassl:yassl_error.obj
 0002:00007304       ??_C@_0BN@GPGLBGJG@ASN?3?5bad?5Octet?5String?5Header?$AA@ 004a3304     yassl:yassl_error.obj
 0002:00007324       ??_C@_0BA@CHEGMMMD@ASN?3?5expected?50?$AA@ 004a3324     yassl:yassl_error.obj
 0002:00007334       ??_C@_0BH@CNGNFALI@ASN?3?5expected?5TAG?5NULL?$AA@ 004a3334     yassl:yassl_error.obj
 0002:0000734c       ??_C@_0BK@EHIEHJHJ@ASN?3?5bad?5Ojbect?5ID?5Header?$AA@ 004a334c     yassl:yassl_error.obj
 0002:00007368       ??_C@_0BK@JLGAAPDA@ASN?3?5unknown?5key?5OID?5type?$AA@ 004a3368     yassl:yassl_error.obj
 0002:00007384       ??_C@_0BK@NEMPKOOB@ASN?3?5bad?5BitString?5Header?$AA@ 004a3384     yassl:yassl_error.obj
 0002:000073a0       ??_C@_0BM@EABFJODO@ASN?3?5signature?5OID?5mismatch?$AA@ 004a33a0     yassl:yassl_error.obj
 0002:000073bc       ??_C@_0BK@PCPPAJBM@ASN?3?5version?5length?5not?51?$AA@ 004a33bc     yassl:yassl_error.obj
 0002:000073d8       ??_C@_0BE@CBIMDPIB@ASN?3?5bad?5Set?5Header?$AA@ 004a33d8     yassl:yassl_error.obj
 0002:000073ec       ??_C@_0BJ@BABNHBJL@ASN?3?5bad?5Sequence?5Header?$AA@ 004a33ec     yassl:yassl_error.obj
 0002:00007408       ??_C@_0BM@MLGJJFHM@ASN?3?5bad?5DER?5Integer?5Header?$AA@ 004a3408     yassl:yassl_error.obj
 0002:00007424       ??_C@_0BF@OKLABNFB@CryptGenRandom?5error?$AA@ 004a3424     yassl:yassl_error.obj
 0002:0000743c       ??_C@_0BM@EOJLGIGG@unable?5to?5use?5random?5device?$AA@ 004a343c     yassl:yassl_error.obj
 0002:00007458       ??_C@_0BF@ONICCKFL@bad?5wincrypt?5acquire?$AA@ 004a3458     yassl:yassl_error.obj
 0002:00007470       ??_C@_0CC@PELKPKCF@bad?5PreMasterSecret?5version?5erro@ 004a3470     yassl:yassl_error.obj
 0002:00007494       ??_C@_0BE@IGBKENJK@decompression?5error?$AA@ 004a3494     yassl:yassl_error.obj
 0002:000074a8       ??_C@_0BC@NKDLBFJI@compression?5error?$AA@ 004a34a8     yassl:yassl_error.obj
 0002:000074bc       ??_C@_0BJ@OIPMFMB@protocl?5version?5mismatch?$AA@ 004a34bc     yassl:yassl_error.obj
 0002:000074d8       ??_C@_0CL@JIHDBKKF@unable?5to?5proccess?5private?5key?0?5@ 004a34d8     yassl:yassl_error.obj
 0002:00007504       ??_C@_0BO@JFJFDJB@unable?5to?5proccess?5cerificate?$AA@ 004a3504     yassl:yassl_error.obj
 0002:00007524       ??_C@_0BL@PNPNLENI@socket?5layer?5receive?5error?$AA@ 004a3524     yassl:yassl_error.obj
 0002:00007540       ??_C@_0BI@IMFNBLNH@socket?5layer?5send?5error?$AA@ 004a3540     yassl:yassl_error.obj
 0002:00007558       ??_C@_0BP@DJNJFCDO@unable?5to?5verify?5peer?5checksum?$AA@ 004a3558     yassl:yassl_error.obj
 0002:00007578       ??_C@_0CE@JNMOHBDL@the?5server?5needs?5a?5private?5key?5f@ 004a3578     yassl:yassl_error.obj
 0002:0000759c       ??_C@_0BD@EFIDFPA@not?5in?5error?5state?$AA@ 004a359c     yassl:yassl_error.obj
 0002:000075b0       ??_C@_0BP@JNLPEFPG@the?5read?5operation?5would?5block?$AA@ 004a35b0     yassl:yassl_error.obj
 0002:000075d0       ??_C@_0CJ@MGMCLLGF@unable?5to?5match?5a?5supported?5ciph@ 004a35d0     yassl:yassl_error.obj
 0002:000075fc       ??_C@_0BH@BJAEIFLP@bad?5cipher?5suite?5input?$AA@ 004a35fc     yassl:yassl_error.obj
 0002:00007614       ??_C@_0CK@DPEGAADO@handshake?5message?5received?5in?5wr@ 004a3614     yassl:yassl_error.obj
 0002:00007640       ??_C@_0BO@MDNKKMLF@handshake?5layer?5not?5ready?5yet?$AA@ 004a3640     yassl:yassl_error.obj
 0002:00007660       ??_C@_0BL@JKJNJCO@record?5layer?5not?5ready?5yet?$AA@ 004a3660     yassl:yassl_error.obj
 0002:0000767c       ??_C@_0CN@HCIHAPHI@bad?5master?5secret?5derivation?0?5pr@ 004a367c     yassl:yassl_error.obj
 0002:000076ac       ??_C@_0CA@ICDMIOMH@trying?5to?5use?5an?5unknown?5cipher?$AA@ 004a36ac     yassl:yassl_error.obj
 0002:000076cc       ??_C@_0BP@HEAJNFGH@unknown?5factory?5create?5request?$AA@ 004a36cc     yassl:yassl_error.obj
 0002:000076ec       ??_C@_0CB@GDMDOMBH@trying?5to?5realloc?5a?5fixed?5buffer@ 004a36ec     yassl:yassl_error.obj
 0002:00007710       ??_C@_0CB@GAKDHIMM@buffer?5index?5error?0?5out?5of?5range@ 004a3710     yassl:yassl_error.obj
 0002:00007738       ??_C@_05GDHACFMB@1?42?43?$AA@ 004a3738     zlib:compress.obj
 0002:00007740       _deflate_copyright         004a3740     zlib:deflate.obj
 0002:000080a0       ??_C@_0BH@FGKKJGOC@incorrect?5length?5check?$AA@ 004a40a0     zlib:inflate.obj
 0002:000080b8       ??_C@_0BF@MEIGEHBE@incorrect?5data?5check?$AA@ 004a40b8     zlib:inflate.obj
 0002:000080d0       ??_C@_0BO@ECPMAOGG@invalid?5distance?5too?5far?5back?$AA@ 004a40d0     zlib:inflate.obj
 0002:000080f0       ??_C@_0BG@LBKINIKP@invalid?5distance?5code?$AA@ 004a40f0     zlib:inflate.obj
 0002:00008108       ??_C@_0BM@FFFLPBBC@invalid?5literal?1length?5code?$AA@ 004a4108     zlib:inflate.obj
 0002:00008124       ??_C@_0BG@GMDFCBGP@invalid?5distances?5set?$AA@ 004a4124     zlib:inflate.obj
 0002:0000813c       ??_C@_0BK@BMMPFBBH@invalid?5bit?5length?5repeat?$AA@ 004a413c     zlib:inflate.obj
 0002:00008158       ??_C@_0BM@IIMGAINC@invalid?5literal?1lengths?5set?$AA@ 004a4158     zlib:inflate.obj
 0002:00008174       ??_C@_0CE@GMIGFPBB@too?5many?5length?5or?5distance?5symb@ 004a4174     zlib:inflate.obj
 0002:00008198       ??_C@_0BJ@HDEPPGOH@invalid?5code?5lengths?5set?$AA@ 004a4198     zlib:inflate.obj
 0002:000081b4       ??_C@_0BN@LGAADGOK@invalid?5stored?5block?5lengths?$AA@ 004a41b4     zlib:inflate.obj
 0002:000081d4       ??_C@_0BD@PJCBIDD@invalid?5block?5type?$AA@ 004a41d4     zlib:inflate.obj
 0002:000081e8       ??_C@_0BE@GONKLEPM@header?5crc?5mismatch?$AA@ 004a41e8     zlib:inflate.obj
 0002:000081fc       ??_C@_0BJ@BLBBCOMO@unknown?5header?5flags?5set?$AA@ 004a41fc     zlib:inflate.obj
 0002:00008218       ??_C@_0BH@LIBMMIGA@incorrect?5header?5check?$AA@ 004a4218     zlib:inflate.obj
 0002:00008230       ??_C@_0BE@EMOGCLGO@invalid?5window?5size?$AA@ 004a4230     zlib:inflate.obj
 0002:00008244       ??_C@_0BL@IHKGDAEE@unknown?5compression?5method?$AA@ 004a4244     zlib:inflate.obj
 0002:000088a8       __dist_code                004a48a8     zlib:trees.obj
 0002:00008aa8       __length_code              004a4aa8     zlib:trees.obj
 0002:0000ac98       _z_errmsg                  004a6c98     zlib:zutil.obj
 0002:0000acc0       ??_C@_0BF@CJFPCCEG@incompatible?5version?$AA@ 004a6cc0     zlib:zutil.obj
 0002:0000acd8       ??_C@_0N@DFPGLBGC@buffer?5error?$AA@ 004a6cd8     zlib:zutil.obj
 0002:0000ace8       ??_C@_0BE@OGGJBMCE@insufficient?5memory?$AA@ 004a6ce8     zlib:zutil.obj
 0002:0000acfc       ??_C@_0L@HAHMBNLP@data?5error?$AA@ 004a6cfc     zlib:zutil.obj
 0002:0000ad08       ??_C@_0N@MKKNPMJD@stream?5error?$AA@ 004a6d08     zlib:zutil.obj
 0002:0000ad18       ??_C@_0L@KIJFAKBJ@file?5error?$AA@ 004a6d18     zlib:zutil.obj
 0002:0000ad24       ??_C@_0L@FNAOCBOG@stream?5end?$AA@ 004a6d24     zlib:zutil.obj
 0002:0000ad30       ??_C@_0BA@MOKMMFOD@need?5dictionary?$AA@ 004a6d30     zlib:zutil.obj
 0002:0000ad40       _inflate_copyright         004a6d40     zlib:inftrees.obj
 0002:0000ae74       ??_7HASH64withTransform@TaoCrypt@@6B@ 004a6e74     taocrypt:hash.obj
 0002:0000ae9c       ??_7HASHwithTransform@TaoCrypt@@6B@ 004a6e9c     taocrypt:hash.obj
 0002:0000afa0       ??_7MultiplicativeGroupT@AbstractRing@TaoCrypt@@6B@ 004a6fa0     taocrypt:integer.obj
 0002:0000afec       ??_7ModularArithmetic@TaoCrypt@@6B@ 004a6fec     taocrypt:integer.obj
 0002:0000b05c       ??_7MontgomeryRepresentation@TaoCrypt@@6B@ 004a705c     taocrypt:integer.obj
 0002:0000b0cc       ??_7EuclideanDomainOf@TaoCrypt@@6B@ 004a70cc     taocrypt:integer.obj
 0002:0000b4bc       ??_7SHA256@TaoCrypt@@6B@   004a74bc     taocrypt:sha.obj
 0002:0000b4e4       ??_7SHA224@TaoCrypt@@6B@   004a74e4     taocrypt:sha.obj
 0002:0000b50c       ??_7SHA512@TaoCrypt@@6B@   004a750c     taocrypt:sha.obj
 0002:0000b534       ??_7SHA384@TaoCrypt@@6B@   004a7534     taocrypt:sha.obj
 0002:0000bdf0       ?Te@AES@TaoCrypt@@0QAY0BAA@$$CBIA 004a7df0     taocrypt:aes.obj
 0002:0000d1f0       ?Td@AES@TaoCrypt@@0QAY0BAA@$$CBIA 004a91f0     taocrypt:aes.obj
 0002:0000e5f4       ??_7BER_Decoder@TaoCrypt@@6B@ 004aa5f4     taocrypt:dsa.obj
 0002:0000e600       ??_7DSA_Private_Decoder@TaoCrypt@@6B@ 004aa600     taocrypt:dsa.obj
 0002:0000e60c       ??_7DSA_Public_Decoder@TaoCrypt@@6B@ 004aa60c     taocrypt:dsa.obj
 0002:0000e618       ??_7DH_Decoder@TaoCrypt@@6B@ 004aa618     taocrypt:dh.obj
 0002:0000e620       __real@4014000000000000    004aa620     taocrypt:dh.obj
 0002:0000e628       __real@4003333333333333    004aa628     taocrypt:dh.obj
 0002:0000e630       __real@3fd5555555555555    004aa630     taocrypt:dh.obj
 0002:0000e638       __real@3fe5555555555555    004aa638     taocrypt:dh.obj
 0002:0000e64c       ??_C@_0N@BDDFKIGD@GenuineIntel?$AA@ 004aa64c     taocrypt:misc.obj
 0002:0000e660       ??_7RSA_Private_Decoder@TaoCrypt@@6B@ 004aa660     taocrypt:rsa.obj
 0002:0000e66c       ??_7RSA_Public_Decoder@TaoCrypt@@6B@ 004aa66c     taocrypt:rsa.obj
 0002:0000e678       ??_7PKCS12_Decoder@TaoCrypt@@6B@ 004aa678     taocrypt:asn.obj
 0002:0000e684       ??_7DER_Encoder@TaoCrypt@@6B@ 004aa684     taocrypt:asn.obj
 0002:0000e68c       ??_7CertDecoder@TaoCrypt@@6B@ 004aa68c     taocrypt:asn.obj
 0002:0000e694       ??_C@_0P@FGCJCCJK@?1emailAddress?$DN?$AA@ 004aa694     taocrypt:asn.obj
 0002:0000e6a4       ??_C@_03DHMEBNMI@?1O?$DN?$AA@ 004aa6a4     taocrypt:asn.obj
 0002:0000e6a8       ??_C@_03DFICKDJB@?1L?$DN?$AA@ 004aa6a8     taocrypt:asn.obj
 0002:0000e6ac       ??_C@_03DONOOEKM@?1C?$DN?$AA@ 004aa6ac     taocrypt:asn.obj
 0002:0000e6d4       ??_7Signature_Encoder@TaoCrypt@@6B@ 004aa6d4     taocrypt:asn.obj
 0002:0000e6d8       ??_C@_02GMLFBBN@wb?$AA@    004aa6d8     taocrypt:file.obj
 0002:0000e6dc       ??_C@_0BB@CBBIGOIN@n?5?$DO?5other?4size?$CI?$CJ?$AA@ 004aa6dc     taocrypt:algebra.obj
 0002:0000e6f0       ??_C@_0GF@JEONBHHO@F?3?2build?2mysql?95?40?467?9winbuild?2m@ 004aa6f0     taocrypt:algebra.obj
 0002:0000e758       ??_C@_0BI@IKJEPFPA@expBegin?9?$DONotNegative?$CI?$CJ?$AA@ 004aa758     taocrypt:algebra.obj
 0002:0000e770       ??_C@_0BC@PCLDNLBC@?4?2src?2algebra?4cpp?$AA@ 004aa770     taocrypt:algebra.obj
 0002:0000e784       ?rcon_@AES@TaoCrypt@@0QBIB 004aa784     taocrypt:aestables.obj
 0002:0000e8b4       ??_7MD2@TaoCrypt@@6B@      004aa8b4     taocrypt:md2.obj
 0002:0000e8d0       ??_7type_info@@6B@         004aa8d0     LIBCMT:typinfo.obj
 0002:0000e934       ??_C@_0P@MIGLKIOC@CorExitProcess?$AA@ 004aa934     LIBCMT:crt0dat.obj
 0002:0000e944       ??_C@_0M@MBOPBNBK@mscoree?4dll?$AA@ 004aa944     LIBCMT:crt0dat.obj
 0002:0000e99c       ??_C@_04HBHDLLBA@PATH?$AA@ 004aa99c     LIBCMT:popen.obj
 0002:0000e9a4       ??_C@_04NPFIMJFF@?5?1c?5?$AA@ 004aa9a4     LIBCMT:popen.obj
 0002:0000e9ac       ??_C@_07INNMNHPJ@cmd?4exe?$AA@ 004aa9ac     LIBCMT:popen.obj
 0002:0000e9b4       ??_C@_0M@BOIIGAL@command?4com?$AA@ 004aa9b4     LIBCMT:popen.obj
 0002:0000e9c0       ??_C@_07CFPBBAOO@COMSPEC?$AA@ 004aa9c0     LIBCMT:popen.obj
 0002:0000ee74       __tls_used                 004aae74     LIBCMT:tlssup.obj
 0002:0000eefc       ??_C@_02CLFPBFFP@TZ?$AA@   004aaefc     LIBCMT:tzset.obj
 0002:0000f0c0       ??_C@_07LCBHPJJN@LC_TIME?$AA@ 004ab0c0     LIBCMT:setlocal.obj
 0002:0000f0c8       ??_C@_0L@DLHIECNL@LC_NUMERIC?$AA@ 004ab0c8     LIBCMT:setlocal.obj
 0002:0000f0d4       ??_C@_0M@MIENIKLA@LC_MONETARY?$AA@ 004ab0d4     LIBCMT:setlocal.obj
 0002:0000f0e0       ??_C@_08EADHIDAD@LC_CTYPE?$AA@ 004ab0e0     LIBCMT:setlocal.obj
 0002:0000f0ec       ??_C@_0L@KFJHEKIK@LC_COLLATE?$AA@ 004ab0ec     LIBCMT:setlocal.obj
 0002:0000f0f8       ??_C@_06NEFDFEKB@LC_ALL?$AA@ 004ab0f8     LIBCMT:setlocal.obj
 0002:0000f100       ??_C@_03EGDHDPFD@_?4?0?$AA@ 004ab100     LIBCMT:setlocal.obj
 0002:0000f104       ??_C@_01IDAFKMJL@_?$AA@    004ab104     LIBCMT:setlocal.obj
 0002:0000f114       ??_C@_01ICJEACDI@?$DL?$AA@ 004ab114     LIBCMT:setlocal.obj
 0002:0000f118       ??_C@_02BALPLPBG@?$DN?$DL?$AA@ 004ab118     LIBCMT:setlocal.obj
 0002:0000f1a4       ??_C@_02PHMGELLB@?6?6?$AA@ 004ab1a4     LIBCMT:assert.obj
 0002:0000f1a8       ??_C@_03KHICJKCI@?4?4?4?$AA@ 004ab1a8     LIBCMT:assert.obj
 0002:0000f1ac       ??_C@_0CF@GOGNBNAK@Microsoft?5Visual?5C?$CL?$CL?5Runtime?5Lib@ 004ab1ac     LIBCMT:assert.obj
 0002:0000f1d4       ??_C@_0DN@EBBNMLME@?$CIPress?5Retry?5to?5debug?5the?5applic@ 004ab1d4     LIBCMT:assert.obj
 0002:0000f218       ??_C@_0HA@OJHAGA@For?5information?5on?5how?5your?5prog@ 004ab218     LIBCMT:assert.obj
 0002:0000f288       ??_C@_0N@MEECIJGN@Expression?3?5?$AA@ 004ab288     LIBCMT:assert.obj
 0002:0000f298       ??_C@_06FIEBOLOH@Line?3?5?$AA@ 004ab298     LIBCMT:assert.obj
 0002:0000f2a0       ??_C@_06IGPBOHMJ@File?3?5?$AA@ 004ab2a0     LIBCMT:assert.obj
 0002:0000f2a8       ??_C@_0BH@DNAGHKFM@?$DMprogram?5name?5unknown?$DO?$AA@ 004ab2a8     LIBCMT:assert.obj
 0002:0000f2c0       ??_C@_09KLGCKDOD@Program?3?5?$AA@ 004ab2c0     LIBCMT:assert.obj
 0002:0000f2cc       ??_C@_0BC@LAIDCHCH@Assertion?5failed?$CB?$AA@ 004ab2cc     LIBCMT:assert.obj
 0002:0000f2e0       ??_C@_05KLBDPFGC@e?$CL000?$AA@ 004ab2e0     LIBCMT:cvt.obj
 0002:0000f2e8       __real@4150017ec0000000    004ab2e8     LIBCMT:testfdiv.obj
 0002:0000f2f0       __real@4147ffff80000000    004ab2f0     LIBCMT:testfdiv.obj
 0002:0000f2f8       ??_C@_0BK@NHEOCAHP@IsProcessorFeaturePresent?$AA@ 004ab2f8     LIBCMT:testfdiv.obj
 0002:0000f314       ??_C@_08CPNIBGIE@KERNEL32?$AA@ 004ab314     LIBCMT:testfdiv.obj
 0002:0000f348       ??_C@_07PEJMOBNF@FlsFree?$AA@ 004ab348     LIBCMT:tidtable.obj
 0002:0000f350       ??_C@_0M@JCPCPOEF@FlsSetValue?$AA@ 004ab350     LIBCMT:tidtable.obj
 0002:0000f35c       ??_C@_0M@GDNOONDI@FlsGetValue?$AA@ 004ab35c     LIBCMT:tidtable.obj
 0002:0000f368       ??_C@_08KNHFBNJ@FlsAlloc?$AA@ 004ab368     LIBCMT:tidtable.obj
 0002:0000f378       ??_C@_0KA@JEHFIFGP@A?5buffer?5overrun?5has?5been?5detect@ 004ab378     LIBCMT:secfail.obj
 0002:0000f418       ??_C@_0BJ@MDEKIEOJ@Buffer?5overrun?5detected?$CB?$AA@ 004ab418     LIBCMT:secfail.obj
 0002:0000f438       ??_C@_0LB@BPLHHLFD@A?5security?5error?5of?5unknown?5caus@ 004ab438     LIBCMT:secfail.obj
 0002:0000f4ec       ??_C@_0CD@GMKACBEK@Unknown?5security?5failure?5detecte@ 004ab4ec     LIBCMT:secfail.obj
 0002:0000f520       ___lookuptable             004ab520     LIBCMT:output.obj
 0002:0000f57c       ??_C@_1O@CEDCILHN@?$AA?$CI?$AAn?$AAu?$AAl?$AAl?$AA?$CJ?$AA?$AA@ 004ab57c     LIBCMT:output.obj
 0002:0000f59c       ??_C@_0BG@KLEAJEFJ@Illegal?5byte?5sequence?$AA@ 004ab59c     LIBCMT:syserr.obj
 0002:0000f5b4       ??_C@_0BE@ICMCHPHH@Directory?5not?5empty?$AA@ 004ab5b4     LIBCMT:syserr.obj
 0002:0000f5c8       ??_C@_0BJ@IHEHINLI@Function?5not?5implemented?$AA@ 004ab5c8     LIBCMT:syserr.obj
 0002:0000f5e4       ??_C@_0BD@CLHBCGPB@No?5locks?5available?$AA@ 004ab5e4     LIBCMT:syserr.obj
 0002:0000f5f8       ??_C@_0BC@BEDIHIDK@Filename?5too?5long?$AA@ 004ab5f8     LIBCMT:syserr.obj
 0002:0000f60c       ??_C@_0BK@JAEBMJJM@Resource?5deadlock?5avoided?$AA@ 004ab60c     LIBCMT:syserr.obj
 0002:0000f628       ??_C@_0BB@FCBJFCAJ@Result?5too?5large?$AA@ 004ab628     LIBCMT:syserr.obj
 0002:0000f63c       ??_C@_0N@MMJPGLJK@Domain?5error?$AA@ 004ab63c     LIBCMT:syserr.obj
 0002:0000f64c       ??_C@_0M@LHEPIIOM@Broken?5pipe?$AA@ 004ab64c     LIBCMT:syserr.obj
 0002:0000f658       ??_C@_0P@PKCJJLLM@Too?5many?5links?$AA@ 004ab658     LIBCMT:syserr.obj
 0002:0000f668       ??_C@_0BG@DDBFNKBH@Read?9only?5file?5system?$AA@ 004ab668     LIBCMT:syserr.obj
 0002:0000f680       ??_C@_0N@FEHLOILP@Invalid?5seek?$AA@ 004ab680     LIBCMT:syserr.obj
 0002:0000f690       ??_C@_0BI@FEALHKLD@No?5space?5left?5on?5device?$AA@ 004ab690     LIBCMT:syserr.obj
 0002:0000f6a8       ??_C@_0P@LFMMIPAE@File?5too?5large?$AA@ 004ab6a8     LIBCMT:syserr.obj
 0002:0000f6b8       ??_C@_0CE@ONOKNLPF@Inappropriate?5I?1O?5control?5operat@ 004ab6b8     LIBCMT:syserr.obj
 0002:0000f6dc       ??_C@_0BE@INBJMKGG@Too?5many?5open?5files?$AA@ 004ab6dc     LIBCMT:syserr.obj
 0002:0000f6f0       ??_C@_0BO@IIFBODJE@Too?5many?5open?5files?5in?5system?$AA@ 004ab6f0     LIBCMT:syserr.obj
 0002:0000f710       ??_C@_0BB@HMGGCEBG@Invalid?5argument?$AA@ 004ab710     LIBCMT:syserr.obj
 0002:0000f724       ??_C@_0P@NDHGCGKE@Is?5a?5directory?$AA@ 004ab724     LIBCMT:syserr.obj
 0002:0000f734       ??_C@_0BA@CJBACOOL@Not?5a?5directory?$AA@ 004ab734     LIBCMT:syserr.obj
 0002:0000f744       ??_C@_0P@NLEIANHE@No?5such?5device?$AA@ 004ab744     LIBCMT:syserr.obj
 0002:0000f754       ??_C@_0O@OAMDNOCP@Improper?5link?$AA@ 004ab754     LIBCMT:syserr.obj
 0002:0000f764       ??_C@_0M@NAAJNNGH@File?5exists?$AA@ 004ab764     LIBCMT:syserr.obj
 0002:0000f770       ??_C@_0BA@BIBLIOEK@Resource?5device?$AA@ 004ab770     LIBCMT:syserr.obj
 0002:0000f780       ??_C@_0O@NIPGCINC@Unknown?5error?$AA@ 004ab780     LIBCMT:syserr.obj
 0002:0000f790       ??_C@_0M@LOEHLCJD@Bad?5address?$AA@ 004ab790     LIBCMT:syserr.obj
 0002:0000f79c       ??_C@_0BC@HFNFNKAI@Permission?5denied?$AA@ 004ab79c     LIBCMT:syserr.obj
 0002:0000f7b0       ??_C@_0BB@IMDKMPFB@Not?5enough?5space?$AA@ 004ab7b0     LIBCMT:syserr.obj
 0002:0000f7c4       ??_C@_0CB@EPFKGNAK@Resource?5temporarily?5unavailable@ 004ab7c4     LIBCMT:syserr.obj
 0002:0000f7e8       ??_C@_0BD@LOHELEP@No?5child?5processes?$AA@ 004ab7e8     LIBCMT:syserr.obj
 0002:0000f7fc       ??_C@_0BE@NFGDDCEF@Bad?5file?5descriptor?$AA@ 004ab7fc     LIBCMT:syserr.obj
 0002:0000f810       ??_C@_0BC@HKPNECK@Exec?5format?5error?$AA@ 004ab810     LIBCMT:syserr.obj
 0002:0000f824       ??_C@_0BC@MFFGCDFL@Arg?5list?5too?5long?$AA@ 004ab824     LIBCMT:syserr.obj
 0002:0000f838       ??_C@_0BK@DPKMCKJ@No?5such?5device?5or?5address?$AA@ 004ab838     LIBCMT:syserr.obj
 0002:0000f854       ??_C@_0BD@KKNFOBBD@Input?1output?5error?$AA@ 004ab854     LIBCMT:syserr.obj
 0002:0000f868       ??_C@_0BK@FJBOAFDK@Interrupted?5function?5call?$AA@ 004ab868     LIBCMT:syserr.obj
 0002:0000f884       ??_C@_0BA@FKIAIBGA@No?5such?5process?$AA@ 004ab884     LIBCMT:syserr.obj
 0002:0000f894       ??_C@_0BK@FMDHKPNF@No?5such?5file?5or?5directory?$AA@ 004ab894     LIBCMT:syserr.obj
 0002:0000f8b0       ??_C@_0BI@BJFCGOHL@Operation?5not?5permitted?$AA@ 004ab8b0     LIBCMT:syserr.obj
 0002:0000f8c8       ??_C@_08INEPGKHH@No?5error?$AA@ 004ab8c8     LIBCMT:syserr.obj
 0002:0000f9c8       ??_C@_04MLLJIGOK@atan?$AA@ 004ab9c8     LIBCMT:libm_error.obj
 0002:0000f9d0       ??_C@_04GFPJNGEK@ceil?$AA@ 004ab9d0     LIBCMT:libm_error.obj
 0002:0000f9d8       ??_C@_05PBJFFIGL@floor?$AA@ 004ab9d8     LIBCMT:libm_error.obj
 0002:0000f9e0       ??_C@_04EHEDPDJG@modf?$AA@ 004ab9e0     LIBCMT:libm_error.obj
 0002:0000f9e8       ??_C@_04HPAFEEIN@exp2?$AA@ 004ab9e8     LIBCMT:libm_error.obj
 0002:0000f9f0       ??_C@_05EOHGHCHD@exp10?$AA@ 004ab9f0     LIBCMT:libm_error.obj
 0002:0000f9f8       ??_C@_04KGLCPMCP@log2?$AA@ 004ab9f8     LIBCMT:libm_error.obj
 0002:0000fa00       ??_C@_03JGHBODFD@pow?$AA@  004aba00     LIBCMT:libm_error.obj
 0002:0000fa04       ??_C@_05HGHHAHAP@log10?$AA@ 004aba04     LIBCMT:libm_error.obj
 0002:0000fa0c       ??_C@_03KHJOGHMM@exp?$AA@  004aba0c     LIBCMT:libm_error.obj
 0002:0000fa1c       ??_C@_0N@FFJGBINN@AuthenticAMD?$AA@ 004aba1c     LIBCMT:cpu_disp.obj
 0002:0000fa30       ___newctype                004aba30     LIBCMT:ctype.obj
 0002:0000fd30       __wctype                   004abd30     LIBCMT:ctype.obj
 0002:0000ff34       ??_C@_06GDENEHCP@CONIN$?$AA@ 004abf34     LIBCMT:initcon.obj
 0002:0000ff3c       ??_C@_07GPDNMNG@CONOUT$?$AA@ 004abf3c     LIBCMT:initcon.obj
 0002:0000ff54       ??_C@_0P@GGKDKEEG@runtime?5error?5?$AA@ 004abf54     LIBCMT:crt0msg.obj
 0002:0000ff64       ??_C@_0O@MJNIPGOH@TLOSS?5error?$AN?6?$AA@ 004abf64     LIBCMT:crt0msg.obj
 0002:0000ff74       ??_C@_0N@BONNPDHF@SING?5error?$AN?6?$AA@ 004abf74     LIBCMT:crt0msg.obj
 0002:0000ff84       ??_C@_0P@MBDAJNE@DOMAIN?5error?$AN?6?$AA@ 004abf84     LIBCMT:crt0msg.obj
 0002:0000ff98       ??_C@_0KC@BDDGGBEJ@R6029?$AN?6?9?5This?5application?5cannot@ 004abf98     LIBCMT:crt0msg.obj
 0002:0001003c       ??_C@_0CF@KJDAIALP@R6028?$AN?6?9?5unable?5to?5initialize?5he@ 004ac03c     LIBCMT:crt0msg.obj
 0002:00010064       ??_C@_0DF@GAKBPDFP@R6027?$AN?6?9?5not?5enough?5space?5for?5lo@ 004ac064     LIBCMT:crt0msg.obj
 0002:0001009c       ??_C@_0DF@IBLNNAIG@R6026?$AN?6?9?5not?5enough?5space?5for?5st@ 004ac09c     LIBCMT:crt0msg.obj
 0002:000100d4       ??_C@_0CG@IOHKGFNJ@R6025?$AN?6?9?5pure?5virtual?5function?5c@ 004ac0d4     LIBCMT:crt0msg.obj
 0002:000100fc       ??_C@_0DF@JIJJFJDC@R6024?$AN?6?9?5not?5enough?5space?5for?5_o@ 004ac0fc     LIBCMT:crt0msg.obj
 0002:00010134       ??_C@_0CJ@EGEJHFME@R6019?$AN?6?9?5unable?5to?5open?5console?5@ 004ac134     LIBCMT:crt0msg.obj
 0002:00010160       ??_C@_0CB@GNHNIELH@R6018?$AN?6?9?5unexpected?5heap?5error?$AN?6@ 004ac160     LIBCMT:crt0msg.obj
 0002:00010184       ??_C@_0CN@FOLDKNG@R6017?$AN?6?9?5unexpected?5multithread?5@ 004ac184     LIBCMT:crt0msg.obj
 0002:000101b4       ??_C@_0CM@FAHFJNHO@R6016?$AN?6?9?5not?5enough?5space?5for?5th@ 004ac1b4     LIBCMT:crt0msg.obj
 0002:000101e0       ??_C@_0JG@LBKMGKLD@?$AN?6This?5application?5has?5requested@ 004ac1e0     LIBCMT:crt0msg.obj
 0002:00010278       ??_C@_0CM@FLCNIPKK@R6009?$AN?6?9?5not?5enough?5space?5for?5en@ 004ac278     LIBCMT:crt0msg.obj
 0002:000102a4       ??_C@_0CK@KMMJOAPP@R6008?$AN?6?9?5not?5enough?5space?5for?5ar@ 004ac2a4     LIBCMT:crt0msg.obj
 0002:000102d0       ??_C@_0CF@HOHMHDEK@R6002?$AN?6?9?5floating?5point?5not?5load@ 004ac2d0     LIBCMT:crt0msg.obj
 0002:000102f8       ??_C@_0BK@OFGJDLJJ@Runtime?5Error?$CB?6?6Program?3?5?$AA@ 004ac2f8     LIBCMT:crt0msg.obj
 0002:00010314       ??_C@_0CG@PKBDLMEO@InitializeCriticalSectionAndSpin@ 004ac314     LIBCMT:initcrit.obj
 0002:0001034c       ___dnames                  004ac34c     LIBCMT:timeset.obj
 0002:00010364       ___mnames                  004ac364     LIBCMT:timeset.obj
 0002:0001039c       ??_C@_08JCCMCCIL@HH?3mm?3ss?$AA@ 004ac39c     LIBCMT:strftime.obj
 0002:000103a8       ??_C@_0BE@CKGJFCPC@dddd?0?5MMMM?5dd?0?5yyyy?$AA@ 004ac3a8     LIBCMT:strftime.obj
 0002:000103bc       ??_C@_08BPBNCDIB@MM?1dd?1yy?$AA@ 004ac3bc     LIBCMT:strftime.obj
 0002:000103c8       ??_C@_02CJNFDJBF@PM?$AA@   004ac3c8     LIBCMT:strftime.obj
 0002:000103cc       ??_C@_02DEDBPAFC@AM?$AA@   004ac3cc     LIBCMT:strftime.obj
 0002:000103d0       ??_C@_08EDHMEBNP@December?$AA@ 004ac3d0     LIBCMT:strftime.obj
 0002:000103dc       ??_C@_08HCHEGEOA@November?$AA@ 004ac3dc     LIBCMT:strftime.obj
 0002:000103e8       ??_C@_07JJNFCEND@October?$AA@ 004ac3e8     LIBCMT:strftime.obj
 0002:000103f0       ??_C@_09BHHEALKD@September?$AA@ 004ac3f0     LIBCMT:strftime.obj
 0002:000103fc       ??_C@_06LBBHFDDG@August?$AA@ 004ac3fc     LIBCMT:strftime.obj
 0002:00010404       ??_C@_04MIEPOIFP@July?$AA@ 004ac404     LIBCMT:strftime.obj
 0002:0001040c       ??_C@_04CNLMGBGM@June?$AA@ 004ac40c     LIBCMT:strftime.obj
 0002:00010414       ??_C@_05DMJDNLEJ@April?$AA@ 004ac414     LIBCMT:strftime.obj
 0002:0001041c       ??_C@_05HPCKOFNC@March?$AA@ 004ac41c     LIBCMT:strftime.obj
 0002:00010424       ??_C@_08GNJGEPFN@February?$AA@ 004ac424     LIBCMT:strftime.obj
 0002:00010430       ??_C@_07CGJPFGJA@January?$AA@ 004ac430     LIBCMT:strftime.obj
 0002:00010438       ??_C@_03MKABNOCG@Dec?$AA@  004ac438     LIBCMT:strftime.obj
 0002:0001043c       ??_C@_03JPJOFNIA@Nov?$AA@  004ac43c     LIBCMT:strftime.obj
 0002:00010440       ??_C@_03BMAOKBAD@Oct?$AA@  004ac440     LIBCMT:strftime.obj
 0002:00010444       ??_C@_03GGCAPAJC@Sep?$AA@  004ac444     LIBCMT:strftime.obj
 0002:00010448       ??_C@_03IFJFEIGA@Aug?$AA@  004ac448     LIBCMT:strftime.obj
 0002:0001044c       ??_C@_03LBGABGKK@Jul?$AA@  004ac44c     LIBCMT:strftime.obj
 0002:00010450       ??_C@_03IDFGHECI@Jun?$AA@  004ac450     LIBCMT:strftime.obj
 0002:00010454       ??_C@_03CNMDKL@May?$AA@    004ac454     LIBCMT:strftime.obj
 0002:00010458       ??_C@_03LEOLGMJP@Apr?$AA@  004ac458     LIBCMT:strftime.obj
 0002:0001045c       ??_C@_03ODNJBKGA@Mar?$AA@  004ac45c     LIBCMT:strftime.obj
 0002:00010460       ??_C@_03HJBDCHOM@Feb?$AA@  004ac460     LIBCMT:strftime.obj
 0002:00010464       ??_C@_03JIHJHPIE@Jan?$AA@  004ac464     LIBCMT:strftime.obj
 0002:00010468       ??_C@_08INBOOONO@Saturday?$AA@ 004ac468     LIBCMT:strftime.obj
 0002:00010474       ??_C@_06JECMNKMI@Friday?$AA@ 004ac474     LIBCMT:strftime.obj
 0002:0001047c       ??_C@_08HACCIKIA@Thursday?$AA@ 004ac47c     LIBCMT:strftime.obj
 0002:00010488       ??_C@_09DLIGFAKA@Wednesday?$AA@ 004ac488     LIBCMT:strftime.obj
 0002:00010494       ??_C@_07BAAGCFCM@Tuesday?$AA@ 004ac494     LIBCMT:strftime.obj
 0002:0001049c       ??_C@_06JLEDEDGH@Monday?$AA@ 004ac49c     LIBCMT:strftime.obj
 0002:000104a4       ??_C@_06OOPIFAJ@Sunday?$AA@ 004ac4a4     LIBCMT:strftime.obj
 0002:000104ac       ??_C@_03FEFJNEK@Sat?$AA@   004ac4ac     LIBCMT:strftime.obj
 0002:000104b0       ??_C@_03IDIOELNC@Fri?$AA@  004ac4b0     LIBCMT:strftime.obj
 0002:000104b4       ??_C@_03IOFIKPDN@Thu?$AA@  004ac4b4     LIBCMT:strftime.obj
 0002:000104b8       ??_C@_03MHOMLAJA@Wed?$AA@  004ac4b8     LIBCMT:strftime.obj
 0002:000104bc       ??_C@_03NAGEINEP@Tue?$AA@  004ac4bc     LIBCMT:strftime.obj
 0002:000104c0       ??_C@_03PDAGKDH@Mon?$AA@   004ac4c0     LIBCMT:strftime.obj
 0002:000104c4       ??_C@_03KOEHGMDN@Sun?$AA@  004ac4c4     LIBCMT:strftime.obj
 0002:000104c8       ??_C@_03EBAPMIKO@a?1p?$AA@ 004ac4c8     LIBCMT:strftime.obj
 0002:000104cc       ??_C@_05JAMEPDIN@am?1pm?$AA@ 004ac4cc     LIBCMT:strftime.obj
 0002:000104e8       ___rgLocInfo               004ac4e8     LIBCMT:getqloc.obj
 0002:0001098c       ??_C@_08PKBIPKE@Paraguay?$AA@ 004ac98c     LIBCMT:getqloc.obj
 0002:00010998       ??_C@_07GHBIBIBP@Uruguay?$AA@ 004ac998     LIBCMT:getqloc.obj
 0002:000109a0       ??_C@_05HBNKAPDN@Chile?$AA@ 004ac9a0     LIBCMT:getqloc.obj
 0002:000109a8       ??_C@_07FEIFIPNF@Ecuador?$AA@ 004ac9a8     LIBCMT:getqloc.obj
 0002:000109b0       ??_C@_09PGNFPGME@Argentina?$AA@ 004ac9b0     LIBCMT:getqloc.obj
 0002:000109bc       ??_C@_04IALPBJF@Peru?$AA@  004ac9bc     LIBCMT:getqloc.obj
 0002:000109c4       ??_C@_08IJPLNLKH@Colombia?$AA@ 004ac9c4     LIBCMT:getqloc.obj
 0002:000109d0       ??_C@_09IDMFKCN@Venezuela?$AA@ 004ac9d0     LIBCMT:getqloc.obj
 0002:000109dc       ??_C@_0BD@DNEJOGOK@Dominican?5Republic?$AA@ 004ac9dc     LIBCMT:getqloc.obj
 0002:000109f0       ??_C@_0N@LPINDNDB@South?5Africa?$AA@ 004ac9f0     LIBCMT:getqloc.obj
 0002:00010a00       ??_C@_06BLJPEOBG@Panama?$AA@ 004aca00     LIBCMT:getqloc.obj
 0002:00010a08       ??_C@_0L@BOCNDGON@Luxembourg?$AA@ 004aca08     LIBCMT:getqloc.obj
 0002:00010a14       ??_C@_0L@CONEHKA@Costa?5Rica?$AA@ 004aca14     LIBCMT:getqloc.obj
 0002:00010a20       ??_C@_0M@KGBPELAM@Switzerland?$AA@ 004aca20     LIBCMT:getqloc.obj
 0002:00010a2c       ??_C@_09FJGLIMAG@Guatemala?$AA@ 004aca2c     LIBCMT:getqloc.obj
 0002:00010a38       ??_C@_06ECHIPDMK@Canada?$AA@ 004aca38     LIBCMT:getqloc.obj
 0002:00010a40       ??_C@_0BG@CCEBNPGH@Spanish?5?9?5Modern?5Sort?$AA@ 004aca40     LIBCMT:getqloc.obj
 0002:00010a58       ??_C@_09EFGJAPAD@Australia?$AA@ 004aca58     LIBCMT:getqloc.obj
 0002:00010a64       ??_C@_07NEKHPBCG@English?$AA@ 004aca64     LIBCMT:getqloc.obj
 0002:00010a6c       ??_C@_07LKIIOGFH@Austria?$AA@ 004aca6c     LIBCMT:getqloc.obj
 0002:00010a74       ??_C@_06EDDDIONA@German?$AA@ 004aca74     LIBCMT:getqloc.obj
 0002:00010a7c       ??_C@_07LIIIOFOA@Belgium?$AA@ 004aca7c     LIBCMT:getqloc.obj
 0002:00010a84       ??_C@_06DIAOLLEH@Mexico?$AA@ 004aca84     LIBCMT:getqloc.obj
 0002:00010a8c       ??_C@_07PFALJOGE@Spanish?$AA@ 004aca8c     LIBCMT:getqloc.obj
 0002:00010a94       ??_C@_06FFOOPAJB@Basque?$AA@ 004aca94     LIBCMT:getqloc.obj
 0002:00010a9c       ??_C@_06DGHNDJFJ@Sweden?$AA@ 004aca9c     LIBCMT:getqloc.obj
 0002:00010aa4       ??_C@_07OBINPKFN@Swedish?$AA@ 004acaa4     LIBCMT:getqloc.obj
 0002:00010aac       ??_C@_07NCOIHDGC@Iceland?$AA@ 004acaac     LIBCMT:getqloc.obj
 0002:00010ab4       ??_C@_09JHBBDDIA@Icelandic?$AA@ 004acab4     LIBCMT:getqloc.obj
 0002:00010ac0       ??_C@_06COBCPIFO@France?$AA@ 004acac0     LIBCMT:getqloc.obj
 0002:00010ac8       ??_C@_06GODMCAND@French?$AA@ 004acac8     LIBCMT:getqloc.obj
 0002:00010ad0       ??_C@_07MFHPMOED@Finland?$AA@ 004acad0     LIBCMT:getqloc.obj
 0002:00010ad8       ??_C@_07MCEAMKOD@Finnish?$AA@ 004acad8     LIBCMT:getqloc.obj
 0002:00010ae0       ??_C@_05CBHOCCK@Spain?$AA@ 004acae0     LIBCMT:getqloc.obj
 0002:00010ae8       ??_C@_0BL@GIOEGDHB@Spanish?5?9?5Traditional?5Sort?$AA@ 004acae8     LIBCMT:getqloc.obj
 0002:00010b04       ___rglangidNotDefault      004acb04     LIBCMT:getqloc.obj
 0002:00010b18       ___rg_country              004acb18     LIBCMT:getqloc.obj
 0002:00010bd0       ??_C@_0O@FMJNFNKE@united?9states?$AA@ 004acbd0     LIBCMT:getqloc.obj
 0002:00010be0       ??_C@_0P@NDHFFKCA@united?9kingdom?$AA@ 004acbe0     LIBCMT:getqloc.obj
 0002:00010bf0       ??_C@_0BC@HHDADLGF@trinidad?5?$CG?5tobago?$AA@ 004acbf0     LIBCMT:getqloc.obj
 0002:00010c04       ??_C@_0M@IOAEBDAC@south?9korea?$AA@ 004acc04     LIBCMT:getqloc.obj
 0002:00010c10       ??_C@_0N@FIELFKIJ@south?9africa?$AA@ 004acc10     LIBCMT:getqloc.obj
 0002:00010c20       ??_C@_0M@OPNDHCMC@south?5korea?$AA@ 004acc20     LIBCMT:getqloc.obj
 0002:00010c2c       ??_C@_0N@MDEOEPFI@south?5africa?$AA@ 004acc2c     LIBCMT:getqloc.obj
 0002:00010c3c       ??_C@_06FKAPCJLB@slovak?$AA@ 004acc3c     LIBCMT:getqloc.obj
 0002:00010c44       ??_C@_0M@EFJANOAL@puerto?9rico?$AA@ 004acc44     LIBCMT:getqloc.obj
 0002:00010c50       ??_C@_08PGOJKDAI@pr?9china?$AA@ 004acc50     LIBCMT:getqloc.obj
 0002:00010c5c       ??_C@_08JHDOMCMI@pr?5china?$AA@ 004acc5c     LIBCMT:getqloc.obj
 0002:00010c68       ??_C@_02JHCHFBLL@nz?$AA@   004acc68     LIBCMT:getqloc.obj
 0002:00010c6c       ??_C@_0M@LINHDHKP@new?9zealand?$AA@ 004acc6c     LIBCMT:getqloc.obj
 0002:00010c78       ??_C@_09IIIPPBDB@hong?9kong?$AA@ 004acc78     LIBCMT:getqloc.obj
 0002:00010c84       ??_C@_07HJLCKBG@holland?$AA@ 004acc84     LIBCMT:getqloc.obj
 0002:00010c8c       ??_C@_0O@LEHGMHAG@great?5britain?$AA@ 004acc8c     LIBCMT:getqloc.obj
 0002:00010c9c       ??_C@_07FACOMELA@england?$AA@ 004acc9c     LIBCMT:getqloc.obj
 0002:00010ca4       ??_C@_05JIHCEICB@czech?$AA@ 004acca4     LIBCMT:getqloc.obj
 0002:00010cac       ??_C@_05BBJOBLGB@china?$AA@ 004accac     LIBCMT:getqloc.obj
 0002:00010cb4       ??_C@_07GPKPHICP@britain?$AA@ 004accb4     LIBCMT:getqloc.obj
 0002:00010cbc       ??_C@_07MHIPBHMG@america?$AA@ 004accbc     LIBCMT:getqloc.obj
 0002:00010cc8       ___rg_language             004accc8     LIBCMT:getqloc.obj
 0002:00010ed0       ??_C@_03KIALPMKC@usa?$AA@  004aced0     LIBCMT:getqloc.obj
 0002:00010ed4       ??_C@_02FGJGKGGD@us?$AA@   004aced4     LIBCMT:getqloc.obj
 0002:00010ed8       ??_C@_02NEINDODK@uk?$AA@   004aced8     LIBCMT:getqloc.obj
 0002:00010edc       ??_C@_05JMPCFJFJ@swiss?$AA@ 004acedc     LIBCMT:getqloc.obj
 0002:00010ee4       ??_C@_0BA@HLOCPIOD@swedish?9finland?$AA@ 004acee4     LIBCMT:getqloc.obj
 0002:00010ef4       ??_C@_0BC@PKCNIABK@spanish?9venezuela?$AA@ 004acef4     LIBCMT:getqloc.obj
 0002:00010f08       ??_C@_0BA@GBHHMIJI@spanish?9uruguay?$AA@ 004acf08     LIBCMT:getqloc.obj
 0002:00010f18       ??_C@_0BE@BHDOHPMC@spanish?9puerto?5rico?$AA@ 004acf18     LIBCMT:getqloc.obj
 0002:00010f2c       ??_C@_0N@KMOIDGGN@spanish?9peru?$AA@ 004acf2c     LIBCMT:getqloc.obj
 0002:00010f3c       ??_C@_0BB@HMHLPGPH@spanish?9paraguay?$AA@ 004acf3c     LIBCMT:getqloc.obj
 0002:00010f50       ??_C@_0P@MCPKNGFD@spanish?9panama?$AA@ 004acf50     LIBCMT:getqloc.obj
 0002:00010f60       ??_C@_0BC@IHOHGAIL@spanish?9nicaragua?$AA@ 004acf60     LIBCMT:getqloc.obj
 0002:00010f74       ??_C@_0P@KLMJDNFJ@spanish?9modern?$AA@ 004acf74     LIBCMT:getqloc.obj
 0002:00010f84       ??_C@_0BA@BPAPGBCM@spanish?9mexican?$AA@ 004acf84     LIBCMT:getqloc.obj
 0002:00010f94       ??_C@_0BB@PDECHHHE@spanish?9honduras?$AA@ 004acf94     LIBCMT:getqloc.obj
 0002:00010fa8       ??_C@_0BC@KLHKFGDB@spanish?9guatemala?$AA@ 004acfa8     LIBCMT:getqloc.obj
 0002:00010fbc       ??_C@_0BE@MFOOKJAI@spanish?9el?5salvador?$AA@ 004acfbc     LIBCMT:getqloc.obj
 0002:00010fd0       ??_C@_0BA@FCOKFPFC@spanish?9ecuador?$AA@ 004acfd0     LIBCMT:getqloc.obj
 0002:00010fe0       ??_C@_0BL@PLMGIMOO@spanish?9dominican?5republic?$AA@ 004acfe0     LIBCMT:getqloc.obj
 0002:00010ffc       ??_C@_0BD@HLGDNMHB@spanish?9costa?5rica?$AA@ 004acffc     LIBCMT:getqloc.obj
 0002:00011010       ??_C@_0BB@PKCBKCPE@spanish?9colombia?$AA@ 004ad010     LIBCMT:getqloc.obj
 0002:00011024       ??_C@_0O@MCBIJGNE@spanish?9chile?$AA@ 004ad024     LIBCMT:getqloc.obj
 0002:00011034       ??_C@_0BA@BEFEIGJJ@spanish?9bolivia?$AA@ 004ad034     LIBCMT:getqloc.obj
 0002:00011044       ??_C@_0BC@EMECMPD@spanish?9argentina?$AA@ 004ad044     LIBCMT:getqloc.obj
 0002:00011058       ??_C@_0BF@EALFLENP@portuguese?9brazilian?$AA@ 004ad058     LIBCMT:getqloc.obj
 0002:00011070       ??_C@_0BC@HBLEBLNN@norwegian?9nynorsk?$AA@ 004ad070     LIBCMT:getqloc.obj
 0002:00011084       ??_C@_0BB@HMACDDCK@norwegian?9bokmal?$AA@ 004ad084     LIBCMT:getqloc.obj
 0002:00011098       ??_C@_09BAFFPPHE@norwegian?$AA@ 004ad098     LIBCMT:getqloc.obj
 0002:000110a4       ??_C@_0O@EAJFJDFG@italian?9swiss?$AA@ 004ad0a4     LIBCMT:getqloc.obj
 0002:000110b4       ??_C@_0O@CNOMPGD@irish?9english?$AA@ 004ad0b4     LIBCMT:getqloc.obj
 0002:000110c4       ??_C@_0N@EDHBGCKG@german?9swiss?$AA@ 004ad0c4     LIBCMT:getqloc.obj
 0002:000110d4       ??_C@_0BC@JACMHNBP@german?9luxembourg?$AA@ 004ad0d4     LIBCMT:getqloc.obj
 0002:000110e8       ??_C@_0BE@HBGMGFEG@german?9lichtenstein?$AA@ 004ad0e8     LIBCMT:getqloc.obj
 0002:000110fc       ??_C@_0BA@HKKBIBKL@german?9austrian?$AA@ 004ad0fc     LIBCMT:getqloc.obj
 0002:0001110c       ??_C@_0N@GCAEPEBK@french?9swiss?$AA@ 004ad10c     LIBCMT:getqloc.obj
 0002:0001111c       ??_C@_0BC@DJFJJCK@french?9luxembourg?$AA@ 004ad11c     LIBCMT:getqloc.obj
 0002:00011130       ??_C@_0BA@NNCEDFIC@french?9canadian?$AA@ 004ad130     LIBCMT:getqloc.obj
 0002:00011140       ??_C@_0P@CMPOCLM@french?9belgian?$AA@ 004ad140     LIBCMT:getqloc.obj
 0002:00011150       ??_C@_0M@GHHDJOK@english?9usa?$AA@ 004ad150     LIBCMT:getqloc.obj
 0002:0001115c       ??_C@_0L@PLDJKEIL@english?9us?$AA@ 004ad15c     LIBCMT:getqloc.obj
 0002:00011168       ??_C@_0L@HJCCDMNC@english?9uk?$AA@ 004ad168     LIBCMT:getqloc.obj
 0002:00011174       ??_C@_0BK@CKLIAGJB@english?9trinidad?5y?5tobago?$AA@ 004ad174     LIBCMT:getqloc.obj
 0002:00011190       ??_C@_0BF@JMJMGNNF@english?9south?5africa?$AA@ 004ad190     LIBCMT:getqloc.obj
 0002:000111a8       ??_C@_0L@DKIIFDFD@english?9nz?$AA@ 004ad1a8     LIBCMT:getqloc.obj
 0002:000111b4       ??_C@_0BA@ONHGJCLH@english?9jamaica?$AA@ 004ad1b4     LIBCMT:getqloc.obj
 0002:000111c4       ??_C@_0M@HJBGHOPO@english?9ire?$AA@ 004ad1c4     LIBCMT:getqloc.obj
 0002:000111d0       ??_C@_0BC@LFEKMIFB@english?9caribbean?$AA@ 004ad1d0     LIBCMT:getqloc.obj
 0002:000111e4       ??_C@_0M@OLDPFKHI@english?9can?$AA@ 004ad1e4     LIBCMT:getqloc.obj
 0002:000111f0       ??_C@_0P@OMDEHBMP@english?9belize?$AA@ 004ad1f0     LIBCMT:getqloc.obj
 0002:00011200       ??_C@_0M@KFHFPFED@english?9aus?$AA@ 004ad200     LIBCMT:getqloc.obj
 0002:0001120c       ??_C@_0BB@MNMBKDFE@english?9american?$AA@ 004ad20c     LIBCMT:getqloc.obj
 0002:00011220       ??_C@_0O@KIDLNNBA@dutch?9belgian?$AA@ 004ad220     LIBCMT:getqloc.obj
 0002:00011230       ??_C@_0BE@JBKABBMH@chinese?9traditional?$AA@ 004ad230     LIBCMT:getqloc.obj
 0002:00011244       ??_C@_0BC@MJJMPKCG@chinese?9singapore?$AA@ 004ad244     LIBCMT:getqloc.obj
 0002:00011258       ??_C@_0BD@FDKADDCP@chinese?9simplified?$AA@ 004ad258     LIBCMT:getqloc.obj
 0002:0001126c       ??_C@_0BB@DBEFDDME@chinese?9hongkong?$AA@ 004ad26c     LIBCMT:getqloc.obj
 0002:00011280       ??_C@_07DHNMFMCI@chinese?$AA@ 004ad280     LIBCMT:getqloc.obj
 0002:00011288       ??_C@_03FNDDCHI@chi?$AA@   004ad288     LIBCMT:getqloc.obj
 0002:0001128c       ??_C@_03BMMIADDJ@chh?$AA@  004ad28c     LIBCMT:getqloc.obj
 0002:00011290       ??_C@_08OAIPJDGI@canadian?$AA@ 004ad290     LIBCMT:getqloc.obj
 0002:0001129c       ??_C@_07HBPMNPNJ@belgian?$AA@ 004ad29c     LIBCMT:getqloc.obj
 0002:000112a4       ??_C@_0L@OEKOPBEL@australian?$AA@ 004ad2a4     LIBCMT:getqloc.obj
 0002:000112b0       ??_C@_0BB@MEIMBEDG@american?9english?$AA@ 004ad2b0     LIBCMT:getqloc.obj
 0002:000112c4       ??_C@_0BB@DFMDPDGB@american?5english?$AA@ 004ad2c4     LIBCMT:getqloc.obj
 0002:000112d8       ??_C@_08IJLOKOLL@american?$AA@ 004ad2d8     LIBCMT:getqloc.obj
 0002:000112e4       ??_C@_03NFKLAGEF@OCP?$AA@  004ad2e4     LIBCMT:getqloc.obj
 0002:000112e8       ??_C@_03DFHEHBHG@ACP?$AA@  004ad2e8     LIBCMT:getqloc.obj
 0002:000112ec       ??_C@_0BC@NFIEMBLL@Norwegian?9Nynorsk?$AA@ 004ad2ec     LIBCMT:getqloc.obj
 0002:00011300       ??_C@_13NOLLCAOD@?$AA?$AA?$AA?$AA@ 004ad300     LIBCMT:a_str.obj
 0002:00011354       ??_C@_0L@KDOEJCKC@_nextafter?$AA@ 004ad354     LIBCMT:fpexcept.obj
 0002:00011360       ??_C@_05JGDBENOH@_logb?$AA@ 004ad360     LIBCMT:fpexcept.obj
 0002:00011368       ??_C@_03ONILCKOB@_yn?$AA@  004ad368     LIBCMT:fpexcept.obj
 0002:0001136c       ??_C@_03NAKIGLHK@_y1?$AA@  004ad36c     LIBCMT:fpexcept.obj
 0002:00011370       ??_C@_03MJLDFKDL@_y0?$AA@  004ad370     LIBCMT:fpexcept.obj
 0002:00011374       ??_C@_05GKKHEGJL@frexp?$AA@ 004ad374     LIBCMT:fpexcept.obj
 0002:0001137c       ??_C@_04KEPJIHGP@fmod?$AA@ 004ad37c     LIBCMT:fpexcept.obj
 0002:00011384       ??_C@_06MEIMCGCF@_hypot?$AA@ 004ad384     LIBCMT:fpexcept.obj
 0002:0001138c       ??_C@_05KBKMEMPO@_cabs?$AA@ 004ad38c     LIBCMT:fpexcept.obj
 0002:00011394       ??_C@_05CEJMAHNP@ldexp?$AA@ 004ad394     LIBCMT:fpexcept.obj
 0002:0001139c       ??_C@_04ODHECPBC@fabs?$AA@ 004ad39c     LIBCMT:fpexcept.obj
 0002:000113a4       ??_C@_03IIINPABG@tan?$AA@  004ad3a4     LIBCMT:fpexcept.obj
 0002:000113a8       ??_C@_03LALBNOCG@cos?$AA@  004ad3a8     LIBCMT:fpexcept.obj
 0002:000113ac       ??_C@_03BLEJJJBH@sin?$AA@  004ad3ac     LIBCMT:fpexcept.obj
 0002:000113b0       ??_C@_04EIAKFFMI@sqrt?$AA@ 004ad3b0     LIBCMT:fpexcept.obj
 0002:000113b8       ??_C@_05KNGEOGJB@atan2?$AA@ 004ad3b8     LIBCMT:fpexcept.obj
 0002:000113c0       ??_C@_04PDIFKINK@acos?$AA@ 004ad3c0     LIBCMT:fpexcept.obj
 0002:000113c8       ??_C@_04FIHNOPOL@asin?$AA@ 004ad3c8     LIBCMT:fpexcept.obj
 0002:000113d0       ??_C@_04FJHINJAO@tanh?$AA@ 004ad3d0     LIBCMT:fpexcept.obj
 0002:000113d8       ??_C@_04HPJJNFIM@cosh?$AA@ 004ad3d8     LIBCMT:fpexcept.obj
 0002:000113e0       ??_C@_04COOMCNPB@sinh?$AA@ 004ad3e0     LIBCMT:fpexcept.obj
 0002:00014d48       __DEFAULT_CW_in_mem        004b0d48     LIBCMT:common.obj
 0002:00014d4a       __pi_by_2_to_61            004b0d4a     LIBCMT:common.obj
 0002:00014d88       __real@4000000000000000    004b0d88     LIBCMT:powhlp.obj
 0002:00014d90       ??_C@_0BI@DFKBFLJE@GetProcessWindowStation?$AA@ 004b0d90     LIBCMT:crtmbox.obj
 0002:00014da8       ??_C@_0BK@CIDNPOGP@GetUserObjectInformationA?$AA@ 004b0da8     LIBCMT:crtmbox.obj
 0002:00014dc4       ??_C@_0BD@HHGDFDBJ@GetLastActivePopup?$AA@ 004b0dc4     LIBCMT:crtmbox.obj
 0002:00014dd8       ??_C@_0BA@HNOPNCHB@GetActiveWindow?$AA@ 004b0dd8     LIBCMT:crtmbox.obj
 0002:00014de8       ??_C@_0M@CHKKJDAI@MessageBoxA?$AA@ 004b0de8     LIBCMT:crtmbox.obj
 0002:00014df4       ??_C@_0L@GMPLCCII@user32?4dll?$AA@ 004b0df4     LIBCMT:crtmbox.obj
 0002:00014e9c       ??_C@_06IMKFLFPG@1?$CDQNAN?$AA@ 004b0e9c     LIBCMT:x10fout.obj
 0002:00014ea4       ??_C@_05DNEBIAHO@1?$CDINF?$AA@ 004b0ea4     LIBCMT:x10fout.obj
 0002:00014eac       ??_C@_05PHHOCPM@1?$CDIND?$AA@ 004b0eac     LIBCMT:x10fout.obj
 0002:00014eb4       ??_C@_06PGGFOGJG@1?$CDSNAN?$AA@ 004b0eb4     LIBCMT:x10fout.obj
 0002:00014efc       ??_C@_04PNGHFIJN@?4com?$AA@ 004b0efc     LIBCMT:stat.obj
 0002:00014f04       ??_C@_04NEEFLLOK@?4bat?$AA@ 004b0f04     LIBCMT:stat.obj
 0002:00014f0c       ??_C@_04CPCBDHLK@?4cmd?$AA@ 004b0f0c     LIBCMT:stat.obj
 0002:00014f14       ??_C@_03LLEJOLGL@?4?1?2?$AA@ 004b0f14     LIBCMT:stat.obj
 0002:00014f18       ??_C@_02EAOCEIGI@?$DP?$CK?$AA@ 004b0f18     LIBCMT:stat.obj
 0002:00014fa8       __load_config_used         004b0fa8     LIBCMT:loadcfg.obj
 0002:00018d24       ??_R1A@?0A@A@Command@@8    004b4d24     command.obj
 0002:00018d40       ??_R2Command@@8            004b4d40     command.obj
 0002:00018d48       ??_R3Command@@8            004b4d48     command.obj
 0002:00018d5c       ??_R4Command@@6B@          004b4d5c     command.obj
 0002:00018d74       ??_R1A@?0A@A@Show_instance_status@@8 004b4d74     commands.obj
 0002:00018d90       ??_R2Show_instance_status@@8 004b4d90     commands.obj
 0002:00018d9c       ??_R3Show_instance_status@@8 004b4d9c     commands.obj
 0002:00018db0       ??_R4Show_instance_status@@6B@ 004b4db0     commands.obj
 0002:00018dc8       ??_R1A@?0A@A@Show_instance_options@@8 004b4dc8     commands.obj
 0002:00018de4       ??_R2Show_instance_options@@8 004b4de4     commands.obj
 0002:00018df0       ??_R3Show_instance_options@@8 004b4df0     commands.obj
 0002:00018e04       ??_R4Show_instance_options@@6B@ 004b4e04     commands.obj
 0002:00018e1c       ??_R1A@?0A@A@Start_instance@@8 004b4e1c     commands.obj
 0002:00018e38       ??_R2Start_instance@@8     004b4e38     commands.obj
 0002:00018e44       ??_R3Start_instance@@8     004b4e44     commands.obj
 0002:00018e58       ??_R4Start_instance@@6B@   004b4e58     commands.obj
 0002:00018e70       ??_R1A@?0A@A@Show_instance_log@@8 004b4e70     commands.obj
 0002:00018e8c       ??_R2Show_instance_log@@8  004b4e8c     commands.obj
 0002:00018e98       ??_R3Show_instance_log@@8  004b4e98     commands.obj
 0002:00018eac       ??_R4Show_instance_log@@6B@ 004b4eac     commands.obj
 0002:00018ec4       ??_R1A@?0A@A@Show_instance_log_files@@8 004b4ec4     commands.obj
 0002:00018ee0       ??_R2Show_instance_log_files@@8 004b4ee0     commands.obj
 0002:00018eec       ??_R3Show_instance_log_files@@8 004b4eec     commands.obj
 0002:00018f00       ??_R4Show_instance_log_files@@6B@ 004b4f00     commands.obj
 0002:00018f18       ??_R1A@?0A@A@Set_option@@8 004b4f18     commands.obj
 0002:00018f34       ??_R2Set_option@@8         004b4f34     commands.obj
 0002:00018f40       ??_R3Set_option@@8         004b4f40     commands.obj
 0002:00018f54       ??_R4Set_option@@6B@       004b4f54     commands.obj
 0002:00018f6c       ??_R1A@?0A@A@Stop_instance@@8 004b4f6c     commands.obj
 0002:00018f88       ??_R2Stop_instance@@8      004b4f88     commands.obj
 0002:00018f94       ??_R3Stop_instance@@8      004b4f94     commands.obj
 0002:00018fa8       ??_R4Stop_instance@@6B@    004b4fa8     commands.obj
 0002:00018fc0       ??_R1A@?0A@A@Show_instances@@8 004b4fc0     parse.obj
 0002:00018fdc       ??_R2Show_instances@@8     004b4fdc     parse.obj
 0002:00018fe8       ??_R3Show_instances@@8     004b4fe8     parse.obj
 0002:00018ffc       ??_R4Show_instances@@6B@   004b4ffc     parse.obj
 0002:00019014       ??_R1A@?0A@A@Flush_instances@@8 004b5014     parse.obj
 0002:00019030       ??_R2Flush_instances@@8    004b5030     parse.obj
 0002:0001903c       ??_R3Flush_instances@@8    004b503c     parse.obj
 0002:00019050       ??_R4Flush_instances@@6B@  004b5050     parse.obj
 0002:00019068       ??_R1A@?0A@A@Syntax_error@@8 004b5068     parse.obj
 0002:00019084       ??_R2Syntax_error@@8       004b5084     parse.obj
 0002:00019090       ??_R3Syntax_error@@8       004b5090     parse.obj
 0002:000190a4       ??_R4Syntax_error@@6B@     004b50a4     parse.obj
 0002:000190bc       ??_R1A@?0A@A@Unset_option@@8 004b50bc     parse.obj
 0002:000190d8       ??_R2Unset_option@@8       004b50d8     parse.obj
 0002:000190e8       ??_R3Unset_option@@8       004b50e8     parse.obj
 0002:000190fc       ??_R4Unset_option@@6B@     004b50fc     parse.obj
 0002:00019114       ??_R1A@?0A@A@WindowsService@@8 004b5114     IMService.obj
 0002:00019130       ??_R1A@?0A@A@IMService@@8  004b5130     IMService.obj
 0002:0001914c       ??_R2IMService@@8          004b514c     IMService.obj
 0002:00019158       ??_R3IMService@@8          004b5158     IMService.obj
 0002:0001916c       ??_R4IMService@@6B@        004b516c     IMService.obj
 0002:00019184       ??_R2WindowsService@@8     004b5184     WindowsService.obj
 0002:0001918c       ??_R3WindowsService@@8     004b518c     WindowsService.obj
 0002:000191a0       ??_R4WindowsService@@6B@   004b51a0     WindowsService.obj
 0002:000191b8       ??_R13?0A@A@virtual_base@yaSSL@@8 004b51b8     yassl:ssl.obj
 0002:000191d0       ??_R1A@?0A@A@Message@yaSSL@@8 004b51d0     yassl:ssl.obj
 0002:000191e8       ??_R2Message@yaSSL@@8      004b51e8     yassl:ssl.obj
 0002:000191f4       ??_R3Message@yaSSL@@8      004b51f4     yassl:ssl.obj
 0002:00019204       ??_R4Message@yaSSL@@6B@    004b5204     yassl:ssl.obj
 0002:00019218       ??_R1A@?0A@A@HandShakeBase@yaSSL@@8 004b5218     yassl:ssl.obj
 0002:00019230       ??_R2HandShakeBase@yaSSL@@8 004b5230     yassl:ssl.obj
 0002:0001923c       ??_R3HandShakeBase@yaSSL@@8 004b523c     yassl:ssl.obj
 0002:0001924c       ??_R4HandShakeBase@yaSSL@@6B@ 004b524c     yassl:ssl.obj
 0002:00019260       ??_R13?0A@A@virtual_base@TaoCrypt@@8 004b5260     yassl:ssl.obj
 0002:00019278       ??_R1A@?0A@A@HASH@TaoCrypt@@8 004b5278     yassl:ssl.obj
 0002:00019290       ??_R2HASH@TaoCrypt@@8      004b5290     yassl:ssl.obj
 0002:0001929c       ??_R3HASH@TaoCrypt@@8      004b529c     yassl:ssl.obj
 0002:000192ac       ??_R4HASH@TaoCrypt@@6B@    004b52ac     yassl:ssl.obj
 0002:000192c0       ??_R1A@?0A@A@HASHwithTransform@TaoCrypt@@8 004b52c0     yassl:ssl.obj
 0002:000192d8       ??_R1A@?0A@A@MD5@TaoCrypt@@8 004b52d8     yassl:ssl.obj
 0002:000192f0       ??_R2MD5@TaoCrypt@@8       004b52f0     yassl:ssl.obj
 0002:00019304       ??_R3MD5@TaoCrypt@@8       004b5304     yassl:ssl.obj
 0002:00019314       ??_R4MD5@TaoCrypt@@6B@     004b5314     yassl:ssl.obj
 0002:00019328       ??_R1A@?0A@A@MD4@TaoCrypt@@8 004b5328     yassl:ssl.obj
 0002:00019340       ??_R2MD4@TaoCrypt@@8       004b5340     yassl:ssl.obj
 0002:00019354       ??_R3MD4@TaoCrypt@@8       004b5354     yassl:ssl.obj
 0002:00019364       ??_R4MD4@TaoCrypt@@6B@     004b5364     yassl:ssl.obj
 0002:00019378       ??_R1A@?0A@A@Digest@yaSSL@@8 004b5378     yassl:crypto_wrapper.obj
 0002:00019390       ??_R2Digest@yaSSL@@8       004b5390     yassl:crypto_wrapper.obj
 0002:0001939c       ??_R3Digest@yaSSL@@8       004b539c     yassl:crypto_wrapper.obj
 0002:000193ac       ??_R4Digest@yaSSL@@6B@     004b53ac     yassl:crypto_wrapper.obj
 0002:000193c0       ??_R1A@?0A@A@BulkCipher@yaSSL@@8 004b53c0     yassl:crypto_wrapper.obj
 0002:000193d8       ??_R2BulkCipher@yaSSL@@8   004b53d8     yassl:crypto_wrapper.obj
 0002:000193e4       ??_R3BulkCipher@yaSSL@@8   004b53e4     yassl:crypto_wrapper.obj
 0002:000193f4       ??_R4BulkCipher@yaSSL@@6B@ 004b53f4     yassl:crypto_wrapper.obj
 0002:00019408       ??_R1A@?0A@A@Auth@yaSSL@@8 004b5408     yassl:crypto_wrapper.obj
 0002:00019420       ??_R2Auth@yaSSL@@8         004b5420     yassl:crypto_wrapper.obj
 0002:0001942c       ??_R3Auth@yaSSL@@8         004b542c     yassl:crypto_wrapper.obj
 0002:0001943c       ??_R4Auth@yaSSL@@6B@       004b543c     yassl:crypto_wrapper.obj
 0002:00019450       ??_R1A@?0A@A@SHA@TaoCrypt@@8 004b5450     yassl:crypto_wrapper.obj
 0002:00019468       ??_R2SHA@TaoCrypt@@8       004b5468     yassl:crypto_wrapper.obj
 0002:0001947c       ??_R3SHA@TaoCrypt@@8       004b547c     yassl:crypto_wrapper.obj
 0002:0001948c       ??_R4SHA@TaoCrypt@@6B@     004b548c     yassl:crypto_wrapper.obj
 0002:000194a0       ??_R1A@?0A@A@RIPEMD160@TaoCrypt@@8 004b54a0     yassl:crypto_wrapper.obj
 0002:000194b8       ??_R2RIPEMD160@TaoCrypt@@8 004b54b8     yassl:crypto_wrapper.obj
 0002:000194cc       ??_R3RIPEMD160@TaoCrypt@@8 004b54cc     yassl:crypto_wrapper.obj
 0002:000194dc       ??_R4RIPEMD160@TaoCrypt@@6B@ 004b54dc     yassl:crypto_wrapper.obj
 0002:000194f0       ??_R1A@?0A@A@Mode_BASE@TaoCrypt@@8 004b54f0     yassl:crypto_wrapper.obj
 0002:00019508       ??_R2Mode_BASE@TaoCrypt@@8 004b5508     yassl:crypto_wrapper.obj
 0002:00019514       ??_R3Mode_BASE@TaoCrypt@@8 004b5514     yassl:crypto_wrapper.obj
 0002:00019524       ??_R4Mode_BASE@TaoCrypt@@6B@ 004b5524     yassl:crypto_wrapper.obj
 0002:00019538       ??_R1DI@?0A@A@BasicDES@TaoCrypt@@8 004b5538     yassl:crypto_wrapper.obj
 0002:00019550       ??_R1A@?0A@A@DES@TaoCrypt@@8 004b5550     yassl:crypto_wrapper.obj
 0002:00019568       ??_R2DES@TaoCrypt@@8       004b5568     yassl:crypto_wrapper.obj
 0002:0001957c       ??_R3DES@TaoCrypt@@8       004b557c     yassl:crypto_wrapper.obj
 0002:0001958c       ??_R4DES@TaoCrypt@@6B@     004b558c     yassl:crypto_wrapper.obj
 0002:000195a0       ??_R1A@?0A@A@DES_EDE3@TaoCrypt@@8 004b55a0     yassl:crypto_wrapper.obj
 0002:000195b8       ??_R2DES_EDE3@TaoCrypt@@8  004b55b8     yassl:crypto_wrapper.obj
 0002:000195c8       ??_R3DES_EDE3@TaoCrypt@@8  004b55c8     yassl:crypto_wrapper.obj
 0002:000195d8       ??_R4DES_EDE3@TaoCrypt@@6B@ 004b55d8     yassl:crypto_wrapper.obj
 0002:000195ec       ??_R1A@?0A@A@AES@TaoCrypt@@8 004b55ec     yassl:crypto_wrapper.obj
 0002:00019604       ??_R2AES@TaoCrypt@@8       004b5604     yassl:crypto_wrapper.obj
 0002:00019614       ??_R3AES@TaoCrypt@@8       004b5614     yassl:crypto_wrapper.obj
 0002:00019624       ??_R4AES@TaoCrypt@@6B@     004b5624     yassl:crypto_wrapper.obj
 0002:00019638       ??_R1A@?0A@A@MD5@yaSSL@@8  004b5638     yassl:crypto_wrapper.obj
 0002:00019650       ??_R2MD5@yaSSL@@8          004b5650     yassl:crypto_wrapper.obj
 0002:00019660       ??_R3MD5@yaSSL@@8          004b5660     yassl:crypto_wrapper.obj
 0002:00019670       ??_R4MD5@yaSSL@@6B@        004b5670     yassl:crypto_wrapper.obj
 0002:00019684       ??_R1A@?0A@A@SHA@yaSSL@@8  004b5684     yassl:crypto_wrapper.obj
 0002:0001969c       ??_R2SHA@yaSSL@@8          004b569c     yassl:crypto_wrapper.obj
 0002:000196ac       ??_R3SHA@yaSSL@@8          004b56ac     yassl:crypto_wrapper.obj
 0002:000196bc       ??_R4SHA@yaSSL@@6B@        004b56bc     yassl:crypto_wrapper.obj
 0002:000196d0       ??_R1A@?0A@A@RMD@yaSSL@@8  004b56d0     yassl:crypto_wrapper.obj
 0002:000196e8       ??_R2RMD@yaSSL@@8          004b56e8     yassl:crypto_wrapper.obj
 0002:000196f8       ??_R3RMD@yaSSL@@8          004b56f8     yassl:crypto_wrapper.obj
 0002:00019708       ??_R4RMD@yaSSL@@6B@        004b5708     yassl:crypto_wrapper.obj
 0002:0001971c       ??_R1A@?0A@A@RC4@yaSSL@@8  004b571c     yassl:crypto_wrapper.obj
 0002:00019734       ??_R2RC4@yaSSL@@8          004b5734     yassl:crypto_wrapper.obj
 0002:00019744       ??_R3RC4@yaSSL@@8          004b5744     yassl:crypto_wrapper.obj
 0002:00019754       ??_R4RC4@yaSSL@@6B@        004b5754     yassl:crypto_wrapper.obj
 0002:00019768       ??_R1A@?0A@A@AES@yaSSL@@8  004b5768     yassl:crypto_wrapper.obj
 0002:00019780       ??_R2AES@yaSSL@@8          004b5780     yassl:crypto_wrapper.obj
 0002:00019790       ??_R3AES@yaSSL@@8          004b5790     yassl:crypto_wrapper.obj
 0002:000197a0       ??_R4AES@yaSSL@@6B@        004b57a0     yassl:crypto_wrapper.obj
 0002:000197b4       ??_R1A@?0A@A@HMAC_MD5@yaSSL@@8 004b57b4     yassl:crypto_wrapper.obj
 0002:000197cc       ??_R2HMAC_MD5@yaSSL@@8     004b57cc     yassl:crypto_wrapper.obj
 0002:000197dc       ??_R3HMAC_MD5@yaSSL@@8     004b57dc     yassl:crypto_wrapper.obj
 0002:000197ec       ??_R4HMAC_MD5@yaSSL@@6B@   004b57ec     yassl:crypto_wrapper.obj
 0002:00019800       ??_R1A@?0A@A@HMAC_SHA@yaSSL@@8 004b5800     yassl:crypto_wrapper.obj
 0002:00019818       ??_R2HMAC_SHA@yaSSL@@8     004b5818     yassl:crypto_wrapper.obj
 0002:00019828       ??_R3HMAC_SHA@yaSSL@@8     004b5828     yassl:crypto_wrapper.obj
 0002:00019838       ??_R4HMAC_SHA@yaSSL@@6B@   004b5838     yassl:crypto_wrapper.obj
 0002:0001984c       ??_R1A@?0A@A@HMAC_RMD@yaSSL@@8 004b584c     yassl:crypto_wrapper.obj
 0002:00019864       ??_R2HMAC_RMD@yaSSL@@8     004b5864     yassl:crypto_wrapper.obj
 0002:00019874       ??_R3HMAC_RMD@yaSSL@@8     004b5874     yassl:crypto_wrapper.obj
 0002:00019884       ??_R4HMAC_RMD@yaSSL@@6B@   004b5884     yassl:crypto_wrapper.obj
 0002:00019898       ??_R1A@?0A@A@DES@yaSSL@@8  004b5898     yassl:crypto_wrapper.obj
 0002:000198b0       ??_R2DES@yaSSL@@8          004b58b0     yassl:crypto_wrapper.obj
 0002:000198c0       ??_R3DES@yaSSL@@8          004b58c0     yassl:crypto_wrapper.obj
 0002:000198d0       ??_R4DES@yaSSL@@6B@        004b58d0     yassl:crypto_wrapper.obj
 0002:000198e4       ??_R1A@?0A@A@DES_EDE@yaSSL@@8 004b58e4     yassl:crypto_wrapper.obj
 0002:000198fc       ??_R2DES_EDE@yaSSL@@8      004b58fc     yassl:crypto_wrapper.obj
 0002:0001990c       ??_R3DES_EDE@yaSSL@@8      004b590c     yassl:crypto_wrapper.obj
 0002:0001991c       ??_R4DES_EDE@yaSSL@@6B@    004b591c     yassl:crypto_wrapper.obj
 0002:00019930       ??_R1A@?0A@A@DSS@yaSSL@@8  004b5930     yassl:crypto_wrapper.obj
 0002:00019948       ??_R2DSS@yaSSL@@8          004b5948     yassl:crypto_wrapper.obj
 0002:00019958       ??_R3DSS@yaSSL@@8          004b5958     yassl:crypto_wrapper.obj
 0002:00019968       ??_R4DSS@yaSSL@@6B@        004b5968     yassl:crypto_wrapper.obj
 0002:0001997c       ??_R1A@?0A@A@RSA@yaSSL@@8  004b597c     yassl:crypto_wrapper.obj
 0002:00019994       ??_R2RSA@yaSSL@@8          004b5994     yassl:crypto_wrapper.obj
 0002:000199a4       ??_R3RSA@yaSSL@@8          004b59a4     yassl:crypto_wrapper.obj
 0002:000199b4       ??_R4RSA@yaSSL@@6B@        004b59b4     yassl:crypto_wrapper.obj
 0002:000199c8       ??_R1A@?0A@A@HandShakeHeader@yaSSL@@8 004b59c8     yassl:yassl_imp.obj
 0002:000199e0       ??_R2HandShakeHeader@yaSSL@@8 004b59e0     yassl:yassl_imp.obj
 0002:000199f0       ??_R3HandShakeHeader@yaSSL@@8 004b59f0     yassl:yassl_imp.obj
 0002:00019a00       ??_R4HandShakeHeader@yaSSL@@6B@ 004b5a00     yassl:yassl_imp.obj
 0002:00019a14       ??_R1A@?0A@A@ServerKeyBase@yaSSL@@8 004b5a14     yassl:yassl_imp.obj
 0002:00019a2c       ??_R2ServerKeyBase@yaSSL@@8 004b5a2c     yassl:yassl_imp.obj
 0002:00019a38       ??_R3ServerKeyBase@yaSSL@@8 004b5a38     yassl:yassl_imp.obj
 0002:00019a48       ??_R4ServerKeyBase@yaSSL@@6B@ 004b5a48     yassl:yassl_imp.obj
 0002:00019a5c       ??_R1A@?0A@A@ClientKeyBase@yaSSL@@8 004b5a5c     yassl:yassl_imp.obj
 0002:00019a74       ??_R2ClientKeyBase@yaSSL@@8 004b5a74     yassl:yassl_imp.obj
 0002:00019a80       ??_R3ClientKeyBase@yaSSL@@8 004b5a80     yassl:yassl_imp.obj
 0002:00019a90       ??_R4ClientKeyBase@yaSSL@@6B@ 004b5a90     yassl:yassl_imp.obj
 0002:00019aa4       ??_R1A@?0A@A@ClientDiffieHellmanPublic@yaSSL@@8 004b5aa4     yassl:yassl_imp.obj
 0002:00019abc       ??_R2ClientDiffieHellmanPublic@yaSSL@@8 004b5abc     yassl:yassl_imp.obj
 0002:00019acc       ??_R3ClientDiffieHellmanPublic@yaSSL@@8 004b5acc     yassl:yassl_imp.obj
 0002:00019adc       ??_R4ClientDiffieHellmanPublic@yaSSL@@6B@ 004b5adc     yassl:yassl_imp.obj
 0002:00019af0       ??_R1A@?0A@A@ChangeCipherSpec@yaSSL@@8 004b5af0     yassl:yassl_imp.obj
 0002:00019b08       ??_R2ChangeCipherSpec@yaSSL@@8 004b5b08     yassl:yassl_imp.obj
 0002:00019b18       ??_R3ChangeCipherSpec@yaSSL@@8 004b5b18     yassl:yassl_imp.obj
 0002:00019b28       ??_R4ChangeCipherSpec@yaSSL@@6B@ 004b5b28     yassl:yassl_imp.obj
 0002:00019b3c       ??_R1A@?0A@A@Alert@yaSSL@@8 004b5b3c     yassl:yassl_imp.obj
 0002:00019b54       ??_R2Alert@yaSSL@@8        004b5b54     yassl:yassl_imp.obj
 0002:00019b64       ??_R3Alert@yaSSL@@8        004b5b64     yassl:yassl_imp.obj
 0002:00019b74       ??_R4Alert@yaSSL@@6B@      004b5b74     yassl:yassl_imp.obj
 0002:00019b88       ??_R1A@?0A@A@Data@yaSSL@@8 004b5b88     yassl:yassl_imp.obj
 0002:00019ba0       ??_R2Data@yaSSL@@8         004b5ba0     yassl:yassl_imp.obj
 0002:00019bb0       ??_R3Data@yaSSL@@8         004b5bb0     yassl:yassl_imp.obj
 0002:00019bc0       ??_R4Data@yaSSL@@6B@       004b5bc0     yassl:yassl_imp.obj
 0002:00019bd4       ??_R1A@?0A@A@Certificate@yaSSL@@8 004b5bd4     yassl:yassl_imp.obj
 0002:00019bec       ??_R2Certificate@yaSSL@@8  004b5bec     yassl:yassl_imp.obj
 0002:00019bfc       ??_R3Certificate@yaSSL@@8  004b5bfc     yassl:yassl_imp.obj
 0002:00019c0c       ??_R4Certificate@yaSSL@@6B@ 004b5c0c     yassl:yassl_imp.obj
 0002:00019c20       ??_R1A@?0A@A@ServerHello@yaSSL@@8 004b5c20     yassl:yassl_imp.obj
 0002:00019c38       ??_R2ServerHello@yaSSL@@8  004b5c38     yassl:yassl_imp.obj
 0002:00019c48       ??_R3ServerHello@yaSSL@@8  004b5c48     yassl:yassl_imp.obj
 0002:00019c58       ??_R4ServerHello@yaSSL@@6B@ 004b5c58     yassl:yassl_imp.obj
 0002:00019c6c       ??_R1A@?0A@A@ServerHelloDone@yaSSL@@8 004b5c6c     yassl:yassl_imp.obj
 0002:00019c84       ??_R2ServerHelloDone@yaSSL@@8 004b5c84     yassl:yassl_imp.obj
 0002:00019c94       ??_R3ServerHelloDone@yaSSL@@8 004b5c94     yassl:yassl_imp.obj
 0002:00019ca4       ??_R4ServerHelloDone@yaSSL@@6B@ 004b5ca4     yassl:yassl_imp.obj
 0002:00019cb8       ??_R1A@?0A@A@ClientHello@yaSSL@@8 004b5cb8     yassl:yassl_imp.obj
 0002:00019cd0       ??_R2ClientHello@yaSSL@@8  004b5cd0     yassl:yassl_imp.obj
 0002:00019ce0       ??_R3ClientHello@yaSSL@@8  004b5ce0     yassl:yassl_imp.obj
 0002:00019cf0       ??_R4ClientHello@yaSSL@@6B@ 004b5cf0     yassl:yassl_imp.obj
 0002:00019d04       ??_R1A@?0A@A@ServerKeyExchange@yaSSL@@8 004b5d04     yassl:yassl_imp.obj
 0002:00019d1c       ??_R2ServerKeyExchange@yaSSL@@8 004b5d1c     yassl:yassl_imp.obj
 0002:00019d2c       ??_R3ServerKeyExchange@yaSSL@@8 004b5d2c     yassl:yassl_imp.obj
 0002:00019d3c       ??_R4ServerKeyExchange@yaSSL@@6B@ 004b5d3c     yassl:yassl_imp.obj
 0002:00019d50       ??_R1A@?0A@A@CertificateVerify@yaSSL@@8 004b5d50     yassl:yassl_imp.obj
 0002:00019d68       ??_R2CertificateVerify@yaSSL@@8 004b5d68     yassl:yassl_imp.obj
 0002:00019d78       ??_R3CertificateVerify@yaSSL@@8 004b5d78     yassl:yassl_imp.obj
 0002:00019d88       ??_R4CertificateVerify@yaSSL@@6B@ 004b5d88     yassl:yassl_imp.obj
 0002:00019d9c       ??_R1A@?0A@A@ClientKeyExchange@yaSSL@@8 004b5d9c     yassl:yassl_imp.obj
 0002:00019db4       ??_R2ClientKeyExchange@yaSSL@@8 004b5db4     yassl:yassl_imp.obj
 0002:00019dc4       ??_R3ClientKeyExchange@yaSSL@@8 004b5dc4     yassl:yassl_imp.obj
 0002:00019dd4       ??_R4ClientKeyExchange@yaSSL@@6B@ 004b5dd4     yassl:yassl_imp.obj
 0002:00019de8       ??_R1A@?0A@A@Finished@yaSSL@@8 004b5de8     yassl:yassl_imp.obj
 0002:00019e00       ??_R2Finished@yaSSL@@8     004b5e00     yassl:yassl_imp.obj
 0002:00019e10       ??_R3Finished@yaSSL@@8     004b5e10     yassl:yassl_imp.obj
 0002:00019e20       ??_R4Finished@yaSSL@@6B@   004b5e20     yassl:yassl_imp.obj
 0002:00019e34       ??_R1A@?0A@A@HelloRequest@yaSSL@@8 004b5e34     yassl:yassl_imp.obj
 0002:00019e4c       ??_R2HelloRequest@yaSSL@@8 004b5e4c     yassl:yassl_imp.obj
 0002:00019e5c       ??_R3HelloRequest@yaSSL@@8 004b5e5c     yassl:yassl_imp.obj
 0002:00019e6c       ??_R4HelloRequest@yaSSL@@6B@ 004b5e6c     yassl:yassl_imp.obj
 0002:00019e80       ??_R1A@?0A@A@RSA_Server@yaSSL@@8 004b5e80     yassl:yassl_imp.obj
 0002:00019e98       ??_R2RSA_Server@yaSSL@@8   004b5e98     yassl:yassl_imp.obj
 0002:00019ea8       ??_R3RSA_Server@yaSSL@@8   004b5ea8     yassl:yassl_imp.obj
 0002:00019eb8       ??_R4RSA_Server@yaSSL@@6B@ 004b5eb8     yassl:yassl_imp.obj
 0002:00019ecc       ??_R1A@?0A@A@Fortezza_Server@yaSSL@@8 004b5ecc     yassl:yassl_imp.obj
 0002:00019ee4       ??_R2Fortezza_Server@yaSSL@@8 004b5ee4     yassl:yassl_imp.obj
 0002:00019ef4       ??_R3Fortezza_Server@yaSSL@@8 004b5ef4     yassl:yassl_imp.obj
 0002:00019f04       ??_R4Fortezza_Server@yaSSL@@6B@ 004b5f04     yassl:yassl_imp.obj
 0002:00019f18       ??_R1A@?0A@A@FortezzaKeys@yaSSL@@8 004b5f18     yassl:yassl_imp.obj
 0002:00019f30       ??_R2FortezzaKeys@yaSSL@@8 004b5f30     yassl:yassl_imp.obj
 0002:00019f40       ??_R3FortezzaKeys@yaSSL@@8 004b5f40     yassl:yassl_imp.obj
 0002:00019f50       ??_R4FortezzaKeys@yaSSL@@6B@ 004b5f50     yassl:yassl_imp.obj
 0002:00019f64       ??_R1A@?0A@A@EncryptedPreMasterSecret@yaSSL@@8 004b5f64     yassl:yassl_imp.obj
 0002:00019f7c       ??_R2EncryptedPreMasterSecret@yaSSL@@8 004b5f7c     yassl:yassl_imp.obj
 0002:00019f8c       ??_R3EncryptedPreMasterSecret@yaSSL@@8 004b5f8c     yassl:yassl_imp.obj
 0002:00019f9c       ??_R4EncryptedPreMasterSecret@yaSSL@@6B@ 004b5f9c     yassl:yassl_imp.obj
 0002:00019fb0       ??_R1A@?0A@A@DH_Server@yaSSL@@8 004b5fb0     yassl:yassl_imp.obj
 0002:00019fc8       ??_R2DH_Server@yaSSL@@8    004b5fc8     yassl:yassl_imp.obj
 0002:00019fd8       ??_R3DH_Server@yaSSL@@8    004b5fd8     yassl:yassl_imp.obj
 0002:00019fe8       ??_R4DH_Server@yaSSL@@6B@  004b5fe8     yassl:yassl_imp.obj
 0002:00019ffc       ??_R1A@?0A@A@CertificateRequest@yaSSL@@8 004b5ffc     yassl:yassl_imp.obj
 0002:0001a014       ??_R2CertificateRequest@yaSSL@@8 004b6014     yassl:yassl_imp.obj
 0002:0001a024       ??_R3CertificateRequest@yaSSL@@8 004b6024     yassl:yassl_imp.obj
 0002:0001a034       ??_R4CertificateRequest@yaSSL@@6B@ 004b6034     yassl:yassl_imp.obj
 0002:0001a048       ??_R1A@?0A@A@HASH64withTransform@TaoCrypt@@8 004b6048     taocrypt:hash.obj
 0002:0001a060       ??_R2HASH64withTransform@TaoCrypt@@8 004b6060     taocrypt:hash.obj
 0002:0001a070       ??_R3HASH64withTransform@TaoCrypt@@8 004b6070     taocrypt:hash.obj
 0002:0001a080       ??_R4HASH64withTransform@TaoCrypt@@6B@ 004b6080     taocrypt:hash.obj
 0002:0001a094       ??_R2HASHwithTransform@TaoCrypt@@8 004b6094     taocrypt:hash.obj
 0002:0001a0a4       ??_R3HASHwithTransform@TaoCrypt@@8 004b60a4     taocrypt:hash.obj
 0002:0001a0b4       ??_R4HASHwithTransform@TaoCrypt@@6B@ 004b60b4     taocrypt:hash.obj
 0002:0001a0c8       ??_R1A@?0A@A@AbstractGroup@TaoCrypt@@8 004b60c8     taocrypt:integer.obj
 0002:0001a0e0       ??_R1A@?0A@A@MultiplicativeGroupT@AbstractRing@TaoCrypt@@8 004b60e0     taocrypt:integer.obj
 0002:0001a0f8       ??_R2MultiplicativeGroupT@AbstractRing@TaoCrypt@@8 004b60f8     taocrypt:integer.obj
 0002:0001a108       ??_R3MultiplicativeGroupT@AbstractRing@TaoCrypt@@8 004b6108     taocrypt:integer.obj
 0002:0001a118       ??_R4MultiplicativeGroupT@AbstractRing@TaoCrypt@@6B@ 004b6118     taocrypt:integer.obj
 0002:0001a12c       ??_R1A@?0A@A@AbstractRing@TaoCrypt@@8 004b612c     taocrypt:integer.obj
 0002:0001a144       ??_R1A@?0A@A@ModularArithmetic@TaoCrypt@@8 004b6144     taocrypt:integer.obj
 0002:0001a15c       ??_R2ModularArithmetic@TaoCrypt@@8 004b615c     taocrypt:integer.obj
 0002:0001a170       ??_R3ModularArithmetic@TaoCrypt@@8 004b6170     taocrypt:integer.obj
 0002:0001a180       ??_R4ModularArithmetic@TaoCrypt@@6B@ 004b6180     taocrypt:integer.obj
 0002:0001a194       ??_R1A@?0A@A@MontgomeryRepresentation@TaoCrypt@@8 004b6194     taocrypt:integer.obj
 0002:0001a1ac       ??_R2MontgomeryRepresentation@TaoCrypt@@8 004b61ac     taocrypt:integer.obj
 0002:0001a1c4       ??_R3MontgomeryRepresentation@TaoCrypt@@8 004b61c4     taocrypt:integer.obj
 0002:0001a1d4       ??_R4MontgomeryRepresentation@TaoCrypt@@6B@ 004b61d4     taocrypt:integer.obj
 0002:0001a1e8       ??_R1A@?0A@A@AbstractEuclideanDomain@TaoCrypt@@8 004b61e8     taocrypt:integer.obj
 0002:0001a200       ??_R1A@?0A@A@EuclideanDomainOf@TaoCrypt@@8 004b6200     taocrypt:integer.obj
 0002:0001a218       ??_R2EuclideanDomainOf@TaoCrypt@@8 004b6218     taocrypt:integer.obj
 0002:0001a230       ??_R3EuclideanDomainOf@TaoCrypt@@8 004b6230     taocrypt:integer.obj
 0002:0001a240       ??_R4EuclideanDomainOf@TaoCrypt@@6B@ 004b6240     taocrypt:integer.obj
 0002:0001a254       ??_R1A@?0A@A@SHA256@TaoCrypt@@8 004b6254     taocrypt:sha.obj
 0002:0001a26c       ??_R2SHA256@TaoCrypt@@8    004b626c     taocrypt:sha.obj
 0002:0001a280       ??_R3SHA256@TaoCrypt@@8    004b6280     taocrypt:sha.obj
 0002:0001a290       ??_R4SHA256@TaoCrypt@@6B@  004b6290     taocrypt:sha.obj
 0002:0001a2a4       ??_R1A@?0A@A@SHA224@TaoCrypt@@8 004b62a4     taocrypt:sha.obj
 0002:0001a2bc       ??_R2SHA224@TaoCrypt@@8    004b62bc     taocrypt:sha.obj
 0002:0001a2d0       ??_R3SHA224@TaoCrypt@@8    004b62d0     taocrypt:sha.obj
 0002:0001a2e0       ??_R4SHA224@TaoCrypt@@6B@  004b62e0     taocrypt:sha.obj
 0002:0001a2f4       ??_R1A@?0A@A@SHA512@TaoCrypt@@8 004b62f4     taocrypt:sha.obj
 0002:0001a30c       ??_R2SHA512@TaoCrypt@@8    004b630c     taocrypt:sha.obj
 0002:0001a320       ??_R3SHA512@TaoCrypt@@8    004b6320     taocrypt:sha.obj
 0002:0001a330       ??_R4SHA512@TaoCrypt@@6B@  004b6330     taocrypt:sha.obj
 0002:0001a344       ??_R1A@?0A@A@SHA384@TaoCrypt@@8 004b6344     taocrypt:sha.obj
 0002:0001a35c       ??_R2SHA384@TaoCrypt@@8    004b635c     taocrypt:sha.obj
 0002:0001a370       ??_R3SHA384@TaoCrypt@@8    004b6370     taocrypt:sha.obj
 0002:0001a380       ??_R4SHA384@TaoCrypt@@6B@  004b6380     taocrypt:sha.obj
 0002:0001a394       ??_R1A@?0A@A@BER_Decoder@TaoCrypt@@8 004b6394     taocrypt:dsa.obj
 0002:0001a3ac       ??_R2BER_Decoder@TaoCrypt@@8 004b63ac     taocrypt:dsa.obj
 0002:0001a3b8       ??_R3BER_Decoder@TaoCrypt@@8 004b63b8     taocrypt:dsa.obj
 0002:0001a3c8       ??_R4BER_Decoder@TaoCrypt@@6B@ 004b63c8     taocrypt:dsa.obj
 0002:0001a3dc       ??_R1A@?0A@A@DSA_Private_Decoder@TaoCrypt@@8 004b63dc     taocrypt:dsa.obj
 0002:0001a3f4       ??_R2DSA_Private_Decoder@TaoCrypt@@8 004b63f4     taocrypt:dsa.obj
 0002:0001a404       ??_R3DSA_Private_Decoder@TaoCrypt@@8 004b6404     taocrypt:dsa.obj
 0002:0001a414       ??_R4DSA_Private_Decoder@TaoCrypt@@6B@ 004b6414     taocrypt:dsa.obj
 0002:0001a428       ??_R1A@?0A@A@DSA_Public_Decoder@TaoCrypt@@8 004b6428     taocrypt:dsa.obj
 0002:0001a440       ??_R2DSA_Public_Decoder@TaoCrypt@@8 004b6440     taocrypt:dsa.obj
 0002:0001a450       ??_R3DSA_Public_Decoder@TaoCrypt@@8 004b6450     taocrypt:dsa.obj
 0002:0001a460       ??_R4DSA_Public_Decoder@TaoCrypt@@6B@ 004b6460     taocrypt:dsa.obj
 0002:0001a474       ??_R1A@?0A@A@DH_Decoder@TaoCrypt@@8 004b6474     taocrypt:dh.obj
 0002:0001a48c       ??_R2DH_Decoder@TaoCrypt@@8 004b648c     taocrypt:dh.obj
 0002:0001a49c       ??_R3DH_Decoder@TaoCrypt@@8 004b649c     taocrypt:dh.obj
 0002:0001a4ac       ??_R4DH_Decoder@TaoCrypt@@6B@ 004b64ac     taocrypt:dh.obj
 0002:0001a4c0       ??_R1A@?0A@A@RSA_Private_Decoder@TaoCrypt@@8 004b64c0     taocrypt:rsa.obj
 0002:0001a4d8       ??_R2RSA_Private_Decoder@TaoCrypt@@8 004b64d8     taocrypt:rsa.obj
 0002:0001a4e8       ??_R3RSA_Private_Decoder@TaoCrypt@@8 004b64e8     taocrypt:rsa.obj
 0002:0001a4f8       ??_R4RSA_Private_Decoder@TaoCrypt@@6B@ 004b64f8     taocrypt:rsa.obj
 0002:0001a50c       ??_R1A@?0A@A@RSA_Public_Decoder@TaoCrypt@@8 004b650c     taocrypt:rsa.obj
 0002:0001a524       ??_R2RSA_Public_Decoder@TaoCrypt@@8 004b6524     taocrypt:rsa.obj
 0002:0001a534       ??_R3RSA_Public_Decoder@TaoCrypt@@8 004b6534     taocrypt:rsa.obj
 0002:0001a544       ??_R4RSA_Public_Decoder@TaoCrypt@@6B@ 004b6544     taocrypt:rsa.obj
 0002:0001a558       ??_R1A@?0A@A@PKCS12_Decoder@TaoCrypt@@8 004b6558     taocrypt:asn.obj
 0002:0001a570       ??_R2PKCS12_Decoder@TaoCrypt@@8 004b6570     taocrypt:asn.obj
 0002:0001a580       ??_R3PKCS12_Decoder@TaoCrypt@@8 004b6580     taocrypt:asn.obj
 0002:0001a590       ??_R4PKCS12_Decoder@TaoCrypt@@6B@ 004b6590     taocrypt:asn.obj
 0002:0001a5a4       ??_R1A@?0A@A@DER_Encoder@TaoCrypt@@8 004b65a4     taocrypt:asn.obj
 0002:0001a5bc       ??_R2DER_Encoder@TaoCrypt@@8 004b65bc     taocrypt:asn.obj
 0002:0001a5c8       ??_R3DER_Encoder@TaoCrypt@@8 004b65c8     taocrypt:asn.obj
 0002:0001a5d8       ??_R4DER_Encoder@TaoCrypt@@6B@ 004b65d8     taocrypt:asn.obj
 0002:0001a5ec       ??_R1A@?0A@A@CertDecoder@TaoCrypt@@8 004b65ec     taocrypt:asn.obj
 0002:0001a604       ??_R2CertDecoder@TaoCrypt@@8 004b6604     taocrypt:asn.obj
 0002:0001a614       ??_R3CertDecoder@TaoCrypt@@8 004b6614     taocrypt:asn.obj
 0002:0001a624       ??_R4CertDecoder@TaoCrypt@@6B@ 004b6624     taocrypt:asn.obj
 0002:0001a638       ??_R1A@?0A@A@Signature_Encoder@TaoCrypt@@8 004b6638     taocrypt:asn.obj
 0002:0001a650       ??_R2Signature_Encoder@TaoCrypt@@8 004b6650     taocrypt:asn.obj
 0002:0001a660       ??_R3Signature_Encoder@TaoCrypt@@8 004b6660     taocrypt:asn.obj
 0002:0001a670       ??_R4Signature_Encoder@TaoCrypt@@6B@ 004b6670     taocrypt:asn.obj
 0002:0001a684       ??_R1A@?0A@A@MD2@TaoCrypt@@8 004b6684     taocrypt:md2.obj
 0002:0001a69c       ??_R2MD2@TaoCrypt@@8       004b669c     taocrypt:md2.obj
 0002:0001a6ac       ??_R3MD2@TaoCrypt@@8       004b66ac     taocrypt:md2.obj
 0002:0001a6bc       ??_R4MD2@TaoCrypt@@6B@     004b66bc     taocrypt:md2.obj
 0002:0001a6d0       ??_R1A@?0A@A@type_info@@8  004b66d0     LIBCMT:typinfo.obj
 0002:0001a6e8       ??_R2type_info@@8          004b66e8     LIBCMT:typinfo.obj
 0002:0001a6f0       ??_R3type_info@@8          004b66f0     LIBCMT:typinfo.obj
 0002:0001a700       ??_R4type_info@@6B@        004b6700     LIBCMT:typinfo.obj
 0002:0001ac80       ___safe_se_handler_table   004b6c80     <linker-defined>
 0002:0001ad8c       ___rtc_iaa                 004b6d8c     LIBCMT:initsect.obj
 0002:0001ae90       ___rtc_izz                 004b6e90     LIBCMT:initsect.obj
 0002:0001af94       ___rtc_taa                 004b6f94     LIBCMT:initsect.obj
 0002:0001b098       ___rtc_tzz                 004b7098     LIBCMT:initsect.obj
 0003:00000000       ___xc_a                    004b8000     LIBCMT:crt0init.obj
 0003:00000314       ___xc_z                    004b8314     LIBCMT:crt0init.obj
 0003:00000418       ___xi_a                    004b8418     LIBCMT:crt0init.obj
 0003:00000630       ___xi_z                    004b8630     LIBCMT:crt0init.obj
 0003:00000734       ___xl_a                    004b8734     LIBCMT:tlssup.obj
 0003:00000738       ___xl_z                    004b8738     LIBCMT:tlssup.obj
 0003:0000073c       ___xp_a                    004b873c     LIBCMT:crt0init.obj
 0003:0000094c       ___xp_z                    004b894c     LIBCMT:crt0init.obj
 0003:00000a50       ___xt_a                    004b8a50     LIBCMT:crt0init.obj
 0003:00000b54       ___xt_z                    004b8b54     LIBCMT:crt0init.obj
 0003:00000c60       ??_R0?AVCommand@@@8        004b8c60     command.obj
 0003:00000c7c       ??_R0?AVShow_instance_status@@@8 004b8c7c     commands.obj
 0003:00000ca8       ??_R0?AVShow_instance_options@@@8 004b8ca8     commands.obj
 0003:00000cd4       ??_R0?AVStart_instance@@@8 004b8cd4     commands.obj
 0003:00000cf8       ??_R0?AVShow_instance_log@@@8 004b8cf8     commands.obj
 0003:00000d20       ??_R0?AVShow_instance_log_files@@@8 004b8d20     commands.obj
 0003:00000d50       ??_R0?AVSet_option@@@8     004b8d50     commands.obj
 0003:00000d70       ??_R0?AVStop_instance@@@8  004b8d70     commands.obj
 0003:00000da0       ?config_file@Options@@2PBDB 004b8da0     options.obj
 0003:00000da4       ?log_file_name@Options@@2PBDB 004b8da4     options.obj
 0003:00000da8       ?pid_file_name@Options@@2PBDB 004b8da8     options.obj
 0003:00000dac       ?password_file_name@Options@@2PBDB 004b8dac     options.obj
 0003:00000db0       ?default_mysqld_path@Options@@2PBDB 004b8db0     options.obj
 0003:00000db4       ?monitoring_interval@Options@@2IA 004b8db4     options.obj
 0003:00000db8       ?port_number@Options@@2IA  004b8db8     options.obj
 0003:00001378       ??_R0?AVShow_instances@@@8 004b9378     parse.obj
 0003:0000139c       ??_R0?AVFlush_instances@@@8 004b939c     parse.obj
 0003:000013c0       ??_R0?AVSyntax_error@@@8   004b93c0     parse.obj
 0003:000013e0       ??_R0?AVUnset_option@@@8   004b93e0     parse.obj
 0003:00001400       ?net_buffer_length@@3KA    004b9400     priv.obj
 0003:00001404       ?max_allowed_packet@@3KA   004b9404     priv.obj
 0003:00001408       ?net_read_timeout@@3KA     004b9408     priv.obj
 0003:0000140c       ?net_write_timeout@@3KA    004b940c     priv.obj
 0003:00001410       ?net_retry_count@@3KA      004b9410     priv.obj
 0003:00001414       ?mysqld_net_retry_count@@3KA 004b9414     priv.obj
 0003:00001420       ??_R0?AVWindowsService@@@8 004b9420     IMService.obj
 0003:00001444       ??_R0?AVIMService@@@8      004b9444     IMService.obj
 0003:00001460       _sqlstate_map              004b9460     sql_state.obj
 0003:00001f98       _unknown_sqlstate          004b9f98     client.obj
 0003:00001f9c       _not_error_sqlstate        004b9f9c     client.obj
 0003:00001fa0       _cant_connect_sqlstate     004b9fa0     client.obj
 0003:00001fa4       _default_client_charset_info 004b9fa4     client.obj
 0003:00002044       _sql_protocol_names_lib    004ba044     client.obj
 0003:00002058       _sql_protocol_typelib      004ba058     client.obj
 0003:000020b0       _client_errors             004ba0b0     errmsg.obj
 0003:000021c4       _my_thread_end_wait_time   004ba1c4     mysys:my_thr_init.obj
 0003:000021c8       _my_pthread_create_detached 004ba1c8     mysys:my_pthread.obj
 0003:000021cc       _default_charset_info      004ba1cc     mysys:charset.obj
 0003:000021dc       _my_umask                  004ba1dc     mysys:my_static.obj
 0003:000021e0       _my_umask_dir              004ba1e0     mysys:my_static.obj
 0003:000021e4       _my_file_limit             004ba1e4     mysys:my_static.obj
 0003:000021e8       _my_file_info              004ba1e8     mysys:my_static.obj
 0003:000021ec       _my_default_record_cache_size 004ba1ec     mysys:my_static.obj
 0003:000021f0       _soundex_map               004ba1f0     mysys:my_static.obj
 0003:000021f4       _my_once_extra             004ba1f4     mysys:my_static.obj
 0003:000021f8       _sf_min_adress             004ba1f8     mysys:my_static.obj
 0003:000021fc       _my_time_to_wait_for_lock  004ba1fc     mysys:my_static.obj
 0003:00002200       _raid_type_string          004ba200     mysys:my_static.obj
 0003:00002208       _my_abort_hook             004ba208     mysys:my_static.obj
 0003:0000220c       _error_handler_hook        004ba20c     mysys:my_static.obj
 0003:00002210       _fatal_error_handler_hook  004ba210     mysys:my_static.obj
 0003:00002214       _my_getopt_error_reporter  004ba214     mysys:my_getopt.obj
 0003:00002230       _disabled_my_option        004ba230     mysys:my_getopt.obj
 0003:00002234       _my_getopt_print_errors    004ba234     mysys:my_getopt.obj
 0003:000022b0       _globerrs                  004ba2b0     mysys:errors.obj
 0003:00002324       __dig_vec_upper            004ba324     strings:int2str.obj
 0003:0000234c       __dig_vec_lower            004ba34c     strings:int2str.obj
 0003:00002780       _cs_to_uni                 004ba780     strings:ctype-latin1.obj
 0003:00002980       _pl00                      004ba980     strings:ctype-latin1.obj
 0003:00002a80       _pl01                      004baa80     strings:ctype-latin1.obj
 0003:00002b80       _pl02                      004bab80     strings:ctype-latin1.obj
 0003:00002c80       _pl20                      004bac80     strings:ctype-latin1.obj
 0003:00002d80       _pl21                      004bad80     strings:ctype-latin1.obj
 0003:00002e80       _uni_to_cs                 004bae80     strings:ctype-latin1.obj
 0003:000032e8       _my_charset_latin1         004bb2e8     strings:ctype-latin1.obj
 0003:00003458       _combo1map                 004bb458     strings:ctype-latin1.obj
 0003:00003558       _combo2map                 004bb558     strings:ctype-latin1.obj
 0003:00003688       _my_charset_latin1_german2_ci 004bb688     strings:ctype-latin1.obj
 0003:000036f8       _my_charset_latin1_bin     004bb6f8     strings:ctype-latin1.obj
 0003:00003808       _my_charset_8bit_handler   004bb808     strings:ctype-simple.obj
 0003:00003870       _my_collation_8bit_simple_ci_handler 004bb870     strings:ctype-simple.obj
 0003:00003aa8       _my_collation_8bit_bin_handler 004bbaa8     strings:ctype-bin.obj
 0003:00003b68       _my_charset_bin            004bbb68     strings:ctype-bin.obj
 0003:00003cd0       _page000data               004bbcd0     strings:ctype-uca.obj
 0003:000044d0       _page001data               004bc4d0     strings:ctype-uca.obj
 0003:00004ad0       _page002data               004bcad0     strings:ctype-uca.obj
 0003:000050d0       _page003data               004bd0d0     strings:ctype-uca.obj
 0003:000058d0       _page004data               004bd8d0     strings:ctype-uca.obj
 0003:00005ed0       _page005data               004bded0     strings:ctype-uca.obj
 0003:000064d0       _page006data               004be4d0     strings:ctype-uca.obj
 0003:00006ad0       _page007data               004bead0     strings:ctype-uca.obj
 0003:000070d0       _page009data               004bf0d0     strings:ctype-uca.obj
 0003:000076d0       _page00Adata               004bf6d0     strings:ctype-uca.obj
 0003:00007cd0       _page00Bdata               004bfcd0     strings:ctype-uca.obj
 0003:000082d0       _page00Cdata               004c02d0     strings:ctype-uca.obj
 0003:000088d0       _page00Ddata               004c08d0     strings:ctype-uca.obj
 0003:00008ed0       _page00Edata               004c0ed0     strings:ctype-uca.obj
 0003:000094d0       _page00Fdata               004c14d0     strings:ctype-uca.obj
 0003:00009ad0       _page010data               004c1ad0     strings:ctype-uca.obj
 0003:0000a0d0       _page011data               004c20d0     strings:ctype-uca.obj
 0003:0000a6d0       _page012data               004c26d0     strings:ctype-uca.obj
 0003:0000acd0       _page013data               004c2cd0     strings:ctype-uca.obj
 0003:0000b2d0       _page014data               004c32d0     strings:ctype-uca.obj
 0003:0000b8d0       _page015data               004c38d0     strings:ctype-uca.obj
 0003:0000bcd0       _page016data               004c3cd0     strings:ctype-uca.obj
 0003:0000c2d0       _page017data               004c42d0     strings:ctype-uca.obj
 0003:0000c8d0       _page018data               004c48d0     strings:ctype-uca.obj
 0003:0000ced0       _page019data               004c4ed0     strings:ctype-uca.obj
 0003:0000d4d0       _page01Ddata               004c54d0     strings:ctype-uca.obj
 0003:0000dad0       _page01Edata               004c5ad0     strings:ctype-uca.obj
 0003:0000e0d0       _page01Fdata               004c60d0     strings:ctype-uca.obj
 0003:0000e6d0       _page020data               004c66d0     strings:ctype-uca.obj
 0003:0000f0d0       _page021data               004c70d0     strings:ctype-uca.obj
 0003:0000fad0       _page022data               004c7ad0     strings:ctype-uca.obj
 0003:000102d0       _page023data               004c82d0     strings:ctype-uca.obj
 0003:000108d0       _page024data               004c88d0     strings:ctype-uca.obj
 0003:000112d0       _page025data               004c92d0     strings:ctype-uca.obj
 0003:000116d0       _page026data               004c96d0     strings:ctype-uca.obj
 0003:00011cd0       _page027data               004c9cd0     strings:ctype-uca.obj
 0003:000122d0       _page028data               004ca2d0     strings:ctype-uca.obj
 0003:000126d0       _page029data               004ca6d0     strings:ctype-uca.obj
 0003:00012ad0       _page02Adata               004caad0     strings:ctype-uca.obj
 0003:000134d0       _page02Bdata               004cb4d0     strings:ctype-uca.obj
 0003:00013ad0       _page02Edata               004cbad0     strings:ctype-uca.obj
 0003:000140d0       _page02Fdata               004cc0d0     strings:ctype-uca.obj
 0003:000146d0       _page030data               004cc6d0     strings:ctype-uca.obj
 0003:00014cd0       _page031data               004cccd0     strings:ctype-uca.obj
 0003:000152d0       _page032data               004cd2d0     strings:ctype-uca.obj
 0003:000162d0       _page033data               004ce2d0     strings:ctype-uca.obj
 0003:000174d0       _page04Ddata               004cf4d0     strings:ctype-uca.obj
 0003:00017ad0       _page0A0data               004cfad0     strings:ctype-uca.obj
 0003:00017ed0       _page0A1data               004cfed0     strings:ctype-uca.obj
 0003:000182d0       _page0A2data               004d02d0     strings:ctype-uca.obj
 0003:000186d0       _page0A3data               004d06d0     strings:ctype-uca.obj
 0003:00018ad0       _page0A4data               004d0ad0     strings:ctype-uca.obj
 0003:000190d0       _page0F9data               004d10d0     strings:ctype-uca.obj
 0003:000196d0       _page0FAdata               004d16d0     strings:ctype-uca.obj
 0003:00019cd0       _page0FBdata               004d1cd0     strings:ctype-uca.obj
 0003:0001a4d0       _page0FCdata               004d24d0     strings:ctype-uca.obj
 0003:0001aad0       _page0FDdata               004d2ad0     strings:ctype-uca.obj
 0003:0001bcd0       _page0FEdata               004d3cd0     strings:ctype-uca.obj
 0003:0001c2d0       _page0FFdata               004d42d0     strings:ctype-uca.obj
 0003:0001c8d0       _uca_length                004d48d0     strings:ctype-uca.obj
 0003:0001c9d0       _uca_weight                004d49d0     strings:ctype-uca.obj
 0003:0001cde0       _my_collation_ucs2_uca_handler 004d4de0     strings:ctype-uca.obj
 0003:0001ce10       _my_charset_ucs2_unicode_ci 004d4e10     strings:ctype-uca.obj
 0003:0001ce80       _my_charset_ucs2_icelandic_uca_ci 004d4e80     strings:ctype-uca.obj
 0003:0001cef0       _my_charset_ucs2_latvian_uca_ci 004d4ef0     strings:ctype-uca.obj
 0003:0001cf60       _my_charset_ucs2_romanian_uca_ci 004d4f60     strings:ctype-uca.obj
 0003:0001cfd0       _my_charset_ucs2_slovenian_uca_ci 004d4fd0     strings:ctype-uca.obj
 0003:0001d040       _my_charset_ucs2_polish_uca_ci 004d5040     strings:ctype-uca.obj
 0003:0001d0b0       _my_charset_ucs2_estonian_uca_ci 004d50b0     strings:ctype-uca.obj
 0003:0001d120       _my_charset_ucs2_spanish_uca_ci 004d5120     strings:ctype-uca.obj
 0003:0001d190       _my_charset_ucs2_swedish_uca_ci 004d5190     strings:ctype-uca.obj
 0003:0001d200       _my_charset_ucs2_turkish_uca_ci 004d5200     strings:ctype-uca.obj
 0003:0001d270       _my_charset_ucs2_czech_uca_ci 004d5270     strings:ctype-uca.obj
 0003:0001d2e0       _my_charset_ucs2_danish_uca_ci 004d52e0     strings:ctype-uca.obj
 0003:0001d350       _my_charset_ucs2_lithuanian_uca_ci 004d5350     strings:ctype-uca.obj
 0003:0001d3c0       _my_charset_ucs2_slovak_uca_ci 004d53c0     strings:ctype-uca.obj
 0003:0001d430       _my_charset_ucs2_spanish2_uca_ci 004d5430     strings:ctype-uca.obj
 0003:0001d4a0       _my_charset_ucs2_roman_uca_ci 004d54a0     strings:ctype-uca.obj
 0003:0001d510       _my_charset_ucs2_persian_uca_ci 004d5510     strings:ctype-uca.obj
 0003:0001d580       _my_charset_ucs2_esperanto_uca_ci 004d5580     strings:ctype-uca.obj
 0003:0001d5f0       _my_charset_ucs2_hungarian_uca_ci 004d55f0     strings:ctype-uca.obj
 0003:0001d65c       _my_collation_any_uca_handler 004d565c     strings:ctype-uca.obj
 0003:0001d790       _my_charset_utf8_unicode_ci 004d5790     strings:ctype-uca.obj
 0003:0001d800       _my_charset_utf8_icelandic_uca_ci 004d5800     strings:ctype-uca.obj
 0003:0001d870       _my_charset_utf8_latvian_uca_ci 004d5870     strings:ctype-uca.obj
 0003:0001d8e0       _my_charset_utf8_romanian_uca_ci 004d58e0     strings:ctype-uca.obj
 0003:0001d950       _my_charset_utf8_slovenian_uca_ci 004d5950     strings:ctype-uca.obj
 0003:0001d9c0       _my_charset_utf8_polish_uca_ci 004d59c0     strings:ctype-uca.obj
 0003:0001da30       _my_charset_utf8_estonian_uca_ci 004d5a30     strings:ctype-uca.obj
 0003:0001daa0       _my_charset_utf8_spanish_uca_ci 004d5aa0     strings:ctype-uca.obj
 0003:0001db10       _my_charset_utf8_swedish_uca_ci 004d5b10     strings:ctype-uca.obj
 0003:0001db80       _my_charset_utf8_turkish_uca_ci 004d5b80     strings:ctype-uca.obj
 0003:0001dbf0       _my_charset_utf8_czech_uca_ci 004d5bf0     strings:ctype-uca.obj
 0003:0001dc60       _my_charset_utf8_danish_uca_ci 004d5c60     strings:ctype-uca.obj
 0003:0001dcd0       _my_charset_utf8_lithuanian_uca_ci 004d5cd0     strings:ctype-uca.obj
 0003:0001dd40       _my_charset_utf8_slovak_uca_ci 004d5d40     strings:ctype-uca.obj
 0003:0001ddb0       _my_charset_utf8_spanish2_uca_ci 004d5db0     strings:ctype-uca.obj
 0003:0001de20       _my_charset_utf8_roman_uca_ci 004d5e20     strings:ctype-uca.obj
 0003:0001de90       _my_charset_utf8_persian_uca_ci 004d5e90     strings:ctype-uca.obj
 0003:0001df00       _my_charset_utf8_esperanto_uca_ci 004d5f00     strings:ctype-uca.obj
 0003:0001df70       _my_charset_utf8_hungarian_uca_ci 004d5f70     strings:ctype-uca.obj
 0003:00031308       _my_charset_cp932_japanese_ci 004e9308     strings:ctype-cp932.obj
 0003:00031378       _my_charset_cp932_bin      004e9378     strings:ctype-cp932.obj
 0003:000313e8       _ctype_latin1_german1_ci   004e93e8     strings:ctype-extra.obj
 0003:000314f0       _to_lower_latin1_german1_ci 004e94f0     strings:ctype-extra.obj
 0003:000315f0       _to_upper_latin1_german1_ci 004e95f0     strings:ctype-extra.obj
 0003:000316f0       _sort_order_latin1_german1_ci 004e96f0     strings:ctype-extra.obj
 0003:000317f0       _to_uni_latin1_german1_ci  004e97f0     strings:ctype-extra.obj
 0003:000319f0       _ctype_latin2_general_ci   004e99f0     strings:ctype-extra.obj
 0003:00031af8       _to_lower_latin2_general_ci 004e9af8     strings:ctype-extra.obj
 0003:00031bf8       _to_upper_latin2_general_ci 004e9bf8     strings:ctype-extra.obj
 0003:00031cf8       _sort_order_latin2_general_ci 004e9cf8     strings:ctype-extra.obj
 0003:00031df8       _to_uni_latin2_general_ci  004e9df8     strings:ctype-extra.obj
 0003:00031ff8       _ctype_latin1_danish_ci    004e9ff8     strings:ctype-extra.obj
 0003:00032100       _to_lower_latin1_danish_ci 004ea100     strings:ctype-extra.obj
 0003:00032200       _to_upper_latin1_danish_ci 004ea200     strings:ctype-extra.obj
 0003:00032300       _sort_order_latin1_danish_ci 004ea300     strings:ctype-extra.obj
 0003:00032400       _to_uni_latin1_danish_ci   004ea400     strings:ctype-extra.obj
 0003:00032600       _ctype_latin2_hungarian_ci 004ea600     strings:ctype-extra.obj
 0003:00032708       _to_lower_latin2_hungarian_ci 004ea708     strings:ctype-extra.obj
 0003:00032808       _to_upper_latin2_hungarian_ci 004ea808     strings:ctype-extra.obj
 0003:00032908       _sort_order_latin2_hungarian_ci 004ea908     strings:ctype-extra.obj
 0003:00032a08       _to_uni_latin2_hungarian_ci 004eaa08     strings:ctype-extra.obj
 0003:00032c08       _ctype_cp1250_general_ci   004eac08     strings:ctype-extra.obj
 0003:00032d10       _to_lower_cp1250_general_ci 004ead10     strings:ctype-extra.obj
 0003:00032e10       _to_upper_cp1250_general_ci 004eae10     strings:ctype-extra.obj
 0003:00032f10       _sort_order_cp1250_general_ci 004eaf10     strings:ctype-extra.obj
 0003:00033010       _to_uni_cp1250_general_ci  004eb010     strings:ctype-extra.obj
 0003:00033210       _ctype_latin2_croatian_ci  004eb210     strings:ctype-extra.obj
 0003:00033318       _to_lower_latin2_croatian_ci 004eb318     strings:ctype-extra.obj
 0003:00033418       _to_upper_latin2_croatian_ci 004eb418     strings:ctype-extra.obj
 0003:00033518       _sort_order_latin2_croatian_ci 004eb518     strings:ctype-extra.obj
 0003:00033618       _to_uni_latin2_croatian_ci 004eb618     strings:ctype-extra.obj
 0003:00033818       _ctype_cp1250_croatian_ci  004eb818     strings:ctype-extra.obj
 0003:00033920       _to_lower_cp1250_croatian_ci 004eb920     strings:ctype-extra.obj
 0003:00033a20       _to_upper_cp1250_croatian_ci 004eba20     strings:ctype-extra.obj
 0003:00033b20       _sort_order_cp1250_croatian_ci 004ebb20     strings:ctype-extra.obj
 0003:00033c20       _to_uni_cp1250_croatian_ci 004ebc20     strings:ctype-extra.obj
 0003:00033e20       _ctype_latin1_general_ci   004ebe20     strings:ctype-extra.obj
 0003:00033f28       _to_lower_latin1_general_ci 004ebf28     strings:ctype-extra.obj
 0003:00034028       _to_upper_latin1_general_ci 004ec028     strings:ctype-extra.obj
 0003:00034128       _sort_order_latin1_general_ci 004ec128     strings:ctype-extra.obj
 0003:00034228       _to_uni_latin1_general_ci  004ec228     strings:ctype-extra.obj
 0003:00034428       _ctype_latin1_general_cs   004ec428     strings:ctype-extra.obj
 0003:00034530       _to_lower_latin1_general_cs 004ec530     strings:ctype-extra.obj
 0003:00034630       _to_upper_latin1_general_cs 004ec630     strings:ctype-extra.obj
 0003:00034730       _sort_order_latin1_general_cs 004ec730     strings:ctype-extra.obj
 0003:00034830       _to_uni_latin1_general_cs  004ec830     strings:ctype-extra.obj
 0003:00034a30       _ctype_cp1250_bin          004eca30     strings:ctype-extra.obj
 0003:00034b38       _to_lower_cp1250_bin       004ecb38     strings:ctype-extra.obj
 0003:00034c38       _to_upper_cp1250_bin       004ecc38     strings:ctype-extra.obj
 0003:00034d38       _to_uni_cp1250_bin         004ecd38     strings:ctype-extra.obj
 0003:00034f38       _ctype_latin2_bin          004ecf38     strings:ctype-extra.obj
 0003:00035040       _to_lower_latin2_bin       004ed040     strings:ctype-extra.obj
 0003:00035140       _to_upper_latin2_bin       004ed140     strings:ctype-extra.obj
 0003:00035240       _to_uni_latin2_bin         004ed240     strings:ctype-extra.obj
 0003:00035440       _ctype_latin1_spanish_ci   004ed440     strings:ctype-extra.obj
 0003:00035548       _to_lower_latin1_spanish_ci 004ed548     strings:ctype-extra.obj
 0003:00035648       _to_upper_latin1_spanish_ci 004ed648     strings:ctype-extra.obj
 0003:00035748       _sort_order_latin1_spanish_ci 004ed748     strings:ctype-extra.obj
 0003:00035848       _to_uni_latin1_spanish_ci  004ed848     strings:ctype-extra.obj
 0003:00035a48       _compiled_charsets         004eda48     strings:ctype-extra.obj
 0003:0003a1c8       _my_unicase_default        004f21c8     strings:ctype-utf8.obj
 0003:0003abc8       _my_unicase_turkish        004f2bc8     strings:ctype-utf8.obj
 0003:0003b300       _my_charset_utf8_handler   004f3300     strings:ctype-utf8.obj
 0003:0003b368       _my_charset_utf8_general_ci 004f3368     strings:ctype-utf8.obj
 0003:0003b3d8       _my_charset_utf8_bin       004f33d8     strings:ctype-utf8.obj
 0003:00055a70       _my_charset_ujis_japanese_ci 0050da70     strings:ctype-ujis.obj
 0003:00055ae0       _my_charset_ujis_bin       0050dae0     strings:ctype-ujis.obj
 0003:00055ed8       _my_charset_ucs2_handler   0050ded8     strings:ctype-ucs2.obj
 0003:00055f40       _my_charset_ucs2_general_ci 0050df40     strings:ctype-ucs2.obj
 0003:00055fb0       _my_charset_ucs2_bin       0050dfb0     strings:ctype-ucs2.obj
 0003:000581c0       _my_charset_tis620_thai_ci 005101c0     strings:ctype-tis620.obj
 0003:00058230       _my_charset_tis620_bin     00510230     strings:ctype-tis620.obj
 0003:00068320       _my_charset_sjis_japanese_ci 00520320     strings:ctype-sjis.obj
 0003:00068390       _my_charset_sjis_bin       00520390     strings:ctype-sjis.obj
 0003:0008fba0       _my_charset_gbk_chinese_ci 00547ba0     strings:ctype-gbk.obj
 0003:0008fc10       _my_charset_gbk_bin        00547c10     strings:ctype-gbk.obj
 0003:000a5100       _my_charset_gb2312_chinese_ci 0055d100     strings:ctype-gb2312.obj
 0003:000a5170       _my_charset_gb2312_bin     0055d170     strings:ctype-gb2312.obj
 0003:000c5dc0       _my_charset_euckr_korean_ci 0057ddc0     strings:ctype-euc_kr.obj
 0003:000c5e30       _my_charset_euckr_bin      0057de30     strings:ctype-euc_kr.obj
 0003:000e0988       _my_charset_eucjpms_japanese_ci 00598988     strings:ctype-eucjpms.obj
 0003:000e09f8       _my_charset_eucjpms_bin    005989f8     strings:ctype-eucjpms.obj
 0003:000e1290       _my_charset_latin2_czech_ci 00599290     strings:ctype-czech.obj
 0003:000e1fc8       _my_charset_cp1250_czech_ci 00599fc8     strings:ctype-win1250ch.obj
 0003:000f8870       _my_charset_big5_chinese_ci 005b0870     strings:ctype-big5.obj
 0003:000f88e0       _my_charset_big5_bin       005b08e0     strings:ctype-big5.obj
 0003:000f9f70       _my_collation_mb_bin_handler 005b1f70     strings:ctype-mb.obj
 0003:000f9f9c       _my_str_malloc             005b1f9c     strings:str_alloc.obj
 0003:000f9fa0       _my_str_free               005b1fa0     strings:str_alloc.obj
 0003:000f9fec       ??_R0?AVvirtual_base@yaSSL@@@8 005b1fec     yassl:ssl.obj
 0003:000fa010       ??_R0?AUMessage@yaSSL@@@8  005b2010     yassl:ssl.obj
 0003:000fa02c       ??_R0?AVHandShakeBase@yaSSL@@@8 005b202c     yassl:ssl.obj
 0003:000fa050       ??_R0?AVvirtual_base@TaoCrypt@@@8 005b2050     yassl:ssl.obj
 0003:000fa074       ??_R0?AVHASH@TaoCrypt@@@8  005b2074     yassl:ssl.obj
 0003:000fa090       ??_R0?AVHASHwithTransform@TaoCrypt@@@8 005b2090     yassl:ssl.obj
 0003:000fa0bc       ??_R0?AVMD5@TaoCrypt@@@8   005b20bc     yassl:ssl.obj
 0003:000fa0d8       ??_R0?AVMD4@TaoCrypt@@@8   005b20d8     yassl:ssl.obj
 0003:000fa510       ??_R0?AUDigest@yaSSL@@@8   005b2510     yassl:crypto_wrapper.obj
 0003:000fa52c       ??_R0?AUBulkCipher@yaSSL@@@8 005b252c     yassl:crypto_wrapper.obj
 0003:000fa54c       ??_R0?AUAuth@yaSSL@@@8     005b254c     yassl:crypto_wrapper.obj
 0003:000fa568       ??_R0?AVSHA@TaoCrypt@@@8   005b2568     yassl:crypto_wrapper.obj
 0003:000fa584       ??_R0?AVRIPEMD160@TaoCrypt@@@8 005b2584     yassl:crypto_wrapper.obj
 0003:000fa5a8       ??_R0?AVMode_BASE@TaoCrypt@@@8 005b25a8     yassl:crypto_wrapper.obj
 0003:000fa5cc       ??_R0?AVBasicDES@TaoCrypt@@@8 005b25cc     yassl:crypto_wrapper.obj
 0003:000fa5ec       ??_R0?AVDES@TaoCrypt@@@8   005b25ec     yassl:crypto_wrapper.obj
 0003:000fa608       ??_R0?AVDES_EDE3@TaoCrypt@@@8 005b2608     yassl:crypto_wrapper.obj
 0003:000fa628       ??_R0?AVAES@TaoCrypt@@@8   005b2628     yassl:crypto_wrapper.obj
 0003:000fa644       ??_R0?AVMD5@yaSSL@@@8      005b2644     yassl:crypto_wrapper.obj
 0003:000fa65c       ??_R0?AVSHA@yaSSL@@@8      005b265c     yassl:crypto_wrapper.obj
 0003:000fa674       ??_R0?AVRMD@yaSSL@@@8      005b2674     yassl:crypto_wrapper.obj
 0003:000fa68c       ??_R0?AVRC4@yaSSL@@@8      005b268c     yassl:crypto_wrapper.obj
 0003:000fa6a4       ??_R0?AVAES@yaSSL@@@8      005b26a4     yassl:crypto_wrapper.obj
 0003:000fa6bc       ??_R0?AVHMAC_MD5@yaSSL@@@8 005b26bc     yassl:crypto_wrapper.obj
 0003:000fa6dc       ??_R0?AVHMAC_SHA@yaSSL@@@8 005b26dc     yassl:crypto_wrapper.obj
 0003:000fa6fc       ??_R0?AVHMAC_RMD@yaSSL@@@8 005b26fc     yassl:crypto_wrapper.obj
 0003:000fa71c       ??_R0?AVDES@yaSSL@@@8      005b271c     yassl:crypto_wrapper.obj
 0003:000fa734       ??_R0?AVDES_EDE@yaSSL@@@8  005b2734     yassl:crypto_wrapper.obj
 0003:000fa750       ??_R0?AVDSS@yaSSL@@@8      005b2750     yassl:crypto_wrapper.obj
 0003:000fa768       ??_R0?AVRSA@yaSSL@@@8      005b2768     yassl:crypto_wrapper.obj
 0003:000fa980       ??_R0?AVHandShakeHeader@yaSSL@@@8 005b2980     yassl:yassl_imp.obj
 0003:000fa9a4       ??_R0?AUServerKeyBase@yaSSL@@@8 005b29a4     yassl:yassl_imp.obj
 0003:000fa9c8       ??_R0?AUClientKeyBase@yaSSL@@@8 005b29c8     yassl:yassl_imp.obj
 0003:000fa9ec       ??_R0?AVClientDiffieHellmanPublic@yaSSL@@@8 005b29ec     yassl:yassl_imp.obj
 0003:000faa1c       ??_R0?AVChangeCipherSpec@yaSSL@@@8 005b2a1c     yassl:yassl_imp.obj
 0003:000faa44       ??_R0?AVAlert@yaSSL@@@8    005b2a44     yassl:yassl_imp.obj
 0003:000faa60       ??_R0?AVData@yaSSL@@@8     005b2a60     yassl:yassl_imp.obj
 0003:000faa7c       ??_R0?AVCertificate@yaSSL@@@8 005b2a7c     yassl:yassl_imp.obj
 0003:000faa9c       ??_R0?AVServerHello@yaSSL@@@8 005b2a9c     yassl:yassl_imp.obj
 0003:000faabc       ??_R0?AUServerHelloDone@yaSSL@@@8 005b2abc     yassl:yassl_imp.obj
 0003:000faae0       ??_R0?AVClientHello@yaSSL@@@8 005b2ae0     yassl:yassl_imp.obj
 0003:000fab00       ??_R0?AVServerKeyExchange@yaSSL@@@8 005b2b00     yassl:yassl_imp.obj
 0003:000fab28       ??_R0?AVCertificateVerify@yaSSL@@@8 005b2b28     yassl:yassl_imp.obj
 0003:000fab50       ??_R0?AVClientKeyExchange@yaSSL@@@8 005b2b50     yassl:yassl_imp.obj
 0003:000fab78       ??_R0?AVFinished@yaSSL@@@8 005b2b78     yassl:yassl_imp.obj
 0003:000fab98       ??_R0?AUHelloRequest@yaSSL@@@8 005b2b98     yassl:yassl_imp.obj
 0003:000fabbc       ??_R0?AURSA_Server@yaSSL@@@8 005b2bbc     yassl:yassl_imp.obj
 0003:000fabdc       ??_R0?AUFortezza_Server@yaSSL@@@8 005b2bdc     yassl:yassl_imp.obj
 0003:000fac00       ??_R0?AUFortezzaKeys@yaSSL@@@8 005b2c00     yassl:yassl_imp.obj
 0003:000fac24       ??_R0?AVEncryptedPreMasterSecret@yaSSL@@@8 005b2c24     yassl:yassl_imp.obj
 0003:000fac54       ??_R0?AVDH_Server@yaSSL@@@8 005b2c54     yassl:yassl_imp.obj
 0003:000fac74       ??_R0?AVCertificateRequest@yaSSL@@@8 005b2c74     yassl:yassl_imp.obj
 0003:000fb4dc       ??_R0?AVHASH64withTransform@TaoCrypt@@@8 005b34dc     taocrypt:hash.obj
 0003:000fb508       ??_R0?AVAbstractGroup@TaoCrypt@@@8 005b3508     taocrypt:integer.obj
 0003:000fb530       ??_R0?AVMultiplicativeGroupT@AbstractRing@TaoCrypt@@@8 005b3530     taocrypt:integer.obj
 0003:000fb56c       ??_R0?AVAbstractRing@TaoCrypt@@@8 005b356c     taocrypt:integer.obj
 0003:000fb590       ??_R0?AVModularArithmetic@TaoCrypt@@@8 005b3590     taocrypt:integer.obj
 0003:000fb5bc       ??_R0?AVMontgomeryRepresentation@TaoCrypt@@@8 005b35bc     taocrypt:integer.obj
 0003:000fb5ec       ??_R0?AVAbstractEuclideanDomain@TaoCrypt@@@8 005b35ec     taocrypt:integer.obj
 0003:000fb61c       ??_R0?AVEuclideanDomainOf@TaoCrypt@@@8 005b361c     taocrypt:integer.obj
 0003:000fb648       ??_R0?AVSHA256@TaoCrypt@@@8 005b3648     taocrypt:sha.obj
 0003:000fb668       ??_R0?AVSHA224@TaoCrypt@@@8 005b3668     taocrypt:sha.obj
 0003:000fb688       ??_R0?AVSHA512@TaoCrypt@@@8 005b3688     taocrypt:sha.obj
 0003:000fb6a8       ??_R0?AVSHA384@TaoCrypt@@@8 005b36a8     taocrypt:sha.obj
 0003:000fb6c8       ?Te0@AES@TaoCrypt@@0PBIB   005b36c8     taocrypt:aes.obj
 0003:000fb6cc       ?Te1@AES@TaoCrypt@@0PBIB   005b36cc     taocrypt:aes.obj
 0003:000fb6d0       ?Te2@AES@TaoCrypt@@0PBIB   005b36d0     taocrypt:aes.obj
 0003:000fb6d4       ?Te3@AES@TaoCrypt@@0PBIB   005b36d4     taocrypt:aes.obj
 0003:000fb6d8       ?Te4@AES@TaoCrypt@@0PBIB   005b36d8     taocrypt:aes.obj
 0003:000fb6dc       ?Td0@AES@TaoCrypt@@0PBIB   005b36dc     taocrypt:aes.obj
 0003:000fb6e0       ?Td1@AES@TaoCrypt@@0PBIB   005b36e0     taocrypt:aes.obj
 0003:000fb6e4       ?Td2@AES@TaoCrypt@@0PBIB   005b36e4     taocrypt:aes.obj
 0003:000fb6e8       ?Td3@AES@TaoCrypt@@0PBIB   005b36e8     taocrypt:aes.obj
 0003:000fb6ec       ?Td4@AES@TaoCrypt@@0PBIB   005b36ec     taocrypt:aes.obj
 0003:000fb6f0       ??_R0?AVBER_Decoder@TaoCrypt@@@8 005b36f0     taocrypt:dsa.obj
 0003:000fb714       ??_R0?AVDSA_Private_Decoder@TaoCrypt@@@8 005b3714     taocrypt:dsa.obj
 0003:000fb740       ??_R0?AVDSA_Public_Decoder@TaoCrypt@@@8 005b3740     taocrypt:dsa.obj
 0003:000fb76c       ??_R0?AVDH_Decoder@TaoCrypt@@@8 005b376c     taocrypt:dh.obj
 0003:000fb790       ??_R0?AVRSA_Private_Decoder@TaoCrypt@@@8 005b3790     taocrypt:rsa.obj
 0003:000fb7bc       ??_R0?AVRSA_Public_Decoder@TaoCrypt@@@8 005b37bc     taocrypt:rsa.obj
 0003:000fb7e8       ??_R0?AVPKCS12_Decoder@TaoCrypt@@@8 005b37e8     taocrypt:asn.obj
 0003:000fb810       ??_R0?AVDER_Encoder@TaoCrypt@@@8 005b3810     taocrypt:asn.obj
 0003:000fb834       ??_R0?AVCertDecoder@TaoCrypt@@@8 005b3834     taocrypt:asn.obj
 0003:000fb858       ??_R0?AVSignature_Encoder@TaoCrypt@@@8 005b3858     taocrypt:asn.obj
 0003:000fb884       ??_R0?AVMD2@TaoCrypt@@@8   005b3884     taocrypt:md2.obj
 0003:000fb8a0       __fltused                  005b38a0     LIBCMT:fpinit.obj
 0003:000fb8a4       __ldused                   005b38a4     LIBCMT:fpinit.obj
 0003:000fb8a8       __FPinit                   005b38a8     LIBCMT:fpinit.obj
 0003:000fb8ac       __FPmtinit                 005b38ac     LIBCMT:fpinit.obj
 0003:000fb8b0       __FPmtterm                 005b38b0     LIBCMT:fpinit.obj
 0003:000fb8b4       ??_R0?AVtype_info@@@8      005b38b4     LIBCMT:typinfo.obj
 0003:000fb8d0       ___security_cookie         005b38d0     LIBCMT:seccook.obj
 0003:000fba48       __iob                      005b3a48     LIBCMT:_file.obj
 0003:000fbcd4       __aexit_rtn                005b3cd4     LIBCMT:crt0.obj
 0003:000fbcd8       ___app_type                005b3cd8     LIBCMT:crt0.obj
 0003:000fbd00       ___initiallocinfo          005b3d00     LIBCMT:setlocal.obj
 0003:000fbd54       ___ptlocinfo               005b3d54     LIBCMT:setlocal.obj
 0003:000fbe90       ___lc_category             005b3e90     LIBCMT:setlocal.obj
 0003:000fbee0       __NLG_Destination          005b3ee0     LIBCMT:exsup.obj
 0003:000fbef0       __half                     005b3ef0     LIBCMT:pow.obj
 0003:000fbf30       __cfltcvt_tab              005b3f30     LIBCMT:cmiscdat.obj
 0003:000fc070       ___tlsindex                005b4070     LIBCMT:tidtable.obj
 0003:000fc074       ___nullstring              005b4074     LIBCMT:output.obj
 0003:000fc078       ___wnullstring             005b4078     LIBCMT:output.obj
 0003:000fc080       __sys_errlist              005b4080     LIBCMT:syserr.obj
 0003:000fc130       __sys_nerr                 005b4130     LIBCMT:syserr.obj
 0003:000fc134       ___badioinfo               005b4134     LIBCMT:ioinit.obj
 0003:000fc158       __XcptActTab               005b4158     LIBCMT:winxfltr.obj
 0003:000fc1d0       __First_FPE_Indx           005b41d0     LIBCMT:winxfltr.obj
 0003:000fc1d4       __Num_FPE                  005b41d4     LIBCMT:winxfltr.obj
 0003:000fc1d8       __XcptActTabSize           005b41d8     LIBCMT:winxfltr.obj
 0003:000fc1dc       __XcptActTabCount          005b41dc     LIBCMT:winxfltr.obj
 0003:000fc1e0       __pmatherr                 005b41e0     LIBCMT:libm_error.obj
 0003:000fc1e8       __pctype                   005b41e8     LIBCMT:ctype.obj
 0003:000fc1ec       __pwctype                  005b41ec     LIBCMT:ctype.obj
 0003:000fc1f0       __coninpfh                 005b41f0     LIBCMT:initcon.obj
 0003:000fc1f4       __confh                    005b41f4     LIBCMT:initcon.obj
 0003:000fc290       __amblksiz                 005b4290     LIBCMT:heapinit.obj
 0003:000fc298       __timezone                 005b4298     LIBCMT:timeset.obj
 0003:000fc29c       __daylight                 005b429c     LIBCMT:timeset.obj
 0003:000fc2a0       __dstbias                  005b42a0     LIBCMT:timeset.obj
 0003:000fc328       __tzname                   005b4328     LIBCMT:timeset.obj
 0003:000fc330       __lpdays                   005b4330     LIBCMT:days.obj
 0003:000fc364       __days                     005b4364     LIBCMT:days.obj
 0003:000fc398       ___lc_clike                005b4398     LIBCMT:nlsdata2.obj
 0003:000fc39c       ___lc_time_curr            005b439c     LIBCMT:strftime.obj
 0003:000fc3a0       ___lc_time_c               005b43a0     LIBCMT:strftime.obj
 0003:000fc458       ___lconv_static_decimal    005b4458     LIBCMT:lconv.obj
 0003:000fc45c       ___lconv_c                 005b445c     LIBCMT:lconv.obj
 0003:000fc48c       ___lconv                   005b448c     LIBCMT:lconv.obj
 0003:000fc490       ___mb_cur_max              005b4490     LIBCMT:nlsdata1.obj
 0003:000fc494       ___decimal_point           005b4494     LIBCMT:nlsdata1.obj
 0003:000fc498       ___decimal_point_length    005b4498     LIBCMT:nlsdata1.obj
 0003:000fc4a0       __d_inf                    005b44a0     LIBCMT:util.obj
 0003:000fc4a8       __d_ind                    005b44a8     LIBCMT:util.obj
 0003:000fc4b0       __d_max                    005b44b0     LIBCMT:util.obj
 0003:000fc4b8       __d_min                    005b44b8     LIBCMT:util.obj
 0003:000fc4c0       __d_mzero                  005b44c0     LIBCMT:util.obj
 0003:000fc5d0       __infinity                 005b45d0     LIBCMT:87tran.obj
 0003:000fc5da       __minfinity                005b45da     LIBCMT:87tran.obj
 0003:000fc5e4       __logemax                  005b45e4     LIBCMT:87tran.obj
 0003:000fc60a       __OP_EXPjmptab             005b460a     LIBCMT:87tran.obj
 0003:000fc630       __indefinite               005b4630     LIBCMT:87disp.obj
 0003:000fc63a       __piby2                    005b463a     LIBCMT:87disp.obj
 0003:000fc788       __matherr_flag             005b4788     LIBCMT:matherr.obj
 0003:000fc8f0       __pow10pos                 005b48f0     LIBCMT:constpow.obj
 0003:000fca50       __pow10neg                 005b4a50     LIBCMT:constpow.obj
 0003:0012eec0       ?have_signal@@3_NA         005e6ec0     manager.obj
 0003:0012eec8       ?remove_service@Options@@2DA 005e6ec8     options.obj
 0003:0012eec9       ?install_as_service@Options@@2DA 005e6ec9     options.obj
 0003:0012eed0       ?default_log_file_name@@3PADA 005e6ed0     options.obj
 0003:0012f0d0       ?default_password_file_name@@3PADA 005e70d0     options.obj
 0003:0012f2d0       ?stand_alone@Options@@2DA  005e72d0     options.obj
 0003:0012f2d8       ?windows_config_file@@3PADA 005e72d8     options.obj
 0003:0012f4d8       ?bind_address@Options@@2PBDB 005e74d8     options.obj
 0003:0012f4dc       ?saved_argv@Options@@2PAPADA 005e74dc     options.obj
 0003:0012f4e0       ?is_forced_default_file@Options@@2_NA 005e74e0     options.obj
 0003:0012f61c       ?manager_pid@@3HA          005e761c     priv.obj
 0003:0012f620       ?open_files_limit@@3KA     005e7620     priv.obj
 0003:0012f624       ?linuxthreads@@3_NA        005e7624     priv.obj
 0003:0012f628       ?test_flags@@3IA           005e7628     priv.obj
 0003:0012f62c       ?bytes_sent@@3KA           005e762c     priv.obj
 0003:0012f630       ?bytes_received@@3KA       005e7630     priv.obj
 0003:0012f63c       _mysql_port                005e763c     client.obj
 0003:0012f640       _mysql_unix_port           005e7640     client.obj
 0003:0012f648       _THR_thread_count          005e7648     mysys:my_thr_init.obj
 0003:0012f668       _thd_lib_detected          005e7668     mysys:my_pthread.obj
 0003:0012f66c       _charsets_dir              005e766c     mysys:charset.obj
 0003:0012f678       _my_defaults_file          005e7678     mysys:default.obj
 0003:0012f67c       _my_defaults_group_suffix  005e767c     mysys:default.obj
 0003:0012f680       _my_defaults_extra_file    005e7680     mysys:default.obj
 0003:0012f688       _timed_mutexes             005e7688     mysys:my_static.obj
 0003:0012f68c       _home_dir                  005e768c     mysys:my_static.obj
 0003:0012f690       _my_progname               005e7690     mysys:my_static.obj
 0003:0012f698       _curr_dir                  005e7698     mysys:my_static.obj
 0003:0012f898       _home_dir_buff             005e7898     mysys:my_static.obj
 0003:0012fa98       _my_stream_opened          005e7a98     mysys:my_static.obj
 0003:0012fa9c       _my_file_opened            005e7a9c     mysys:my_static.obj
 0003:0012faa0       _my_tmp_file_created       005e7aa0     mysys:my_static.obj
 0003:0012faa8       _my_file_info_default      005e7aa8     mysys:my_static.obj
 0003:001302a8       _my_dont_interrupt         005e82a8     mysys:my_static.obj
 0003:001302ac       __my_signals               005e82ac     mysys:my_static.obj
 0003:001302b0       __my_sig_remember          005e82b0     mysys:my_static.obj
 0003:00130300       _key_cache_inited          005e8300     mysys:my_static.obj
 0003:00130304       _my_once_root_block        005e8304     mysys:my_static.obj
 0003:00130308       _sf_malloc_prehunc         005e8308     mysys:my_static.obj
 0003:0013030c       _sf_malloc_endhunc         005e830c     mysys:my_static.obj
 0003:00130310       _sf_malloc_quick           005e8310     mysys:my_static.obj
 0003:00130314       _sf_malloc_cur_memory      005e8314     mysys:my_static.obj
 0003:00130318       _sf_malloc_max_memory      005e8318     mysys:my_static.obj
 0003:0013031c       _sf_malloc_count           005e831c     mysys:my_static.obj
 0003:00130320       _sf_max_adress             005e8320     mysys:my_static.obj
 0003:00130324       _sf_malloc_root            005e8324     mysys:my_static.obj
 0003:00130328       _my_have_got_alarm         005e8328     mysys:my_static.obj
 0003:0013032c       _my_disable_locking        005e832c     mysys:my_static.obj
 0003:0013032d       _my_disable_async_io       005e832d     mysys:my_static.obj
 0003:0013032e       _my_disable_flush_key_blocks 005e832e     mysys:my_static.obj
 0003:0013032f       _my_disable_symlinks       005e832f     mysys:my_static.obj
 0003:00130330       _mysys_uses_curses         005e8330     mysys:my_static.obj
 0003:00130334       _have_tcpip                005e8334     mysys:my_init.obj
 0003:00130335       _my_init_done              005e8335     mysys:my_init.obj
 0003:00130338       _mysys_usage_id            005e8338     mysys:my_init.obj
 0003:00130340       _thr_alarm_inited          005e8340     mysys:thr_alarm.obj
 0003:00130341       _alarm_thread_running      005e8341     mysys:thr_alarm.obj
 0003:00130342       _my_use_symdir             005e8342     mysys:mf_pack.obj
 0003:00130389       ?isMMX@TaoCrypt@@3_NA      005e8389     taocrypt:misc.obj
 0003:0013038c       ___fastflag                005e838c     LIBCMT:fpinit.obj
 0003:00130390       __adjust_fdiv              005e8390     LIBCMT:fpinit.obj
 0003:00130394       ___pPurecall               005e8394     LIBCMT:purevirt.obj
 0003:00130420       __cflush                   005e8420     LIBCMT:_file.obj
 0003:00130424       __umaskval                 005e8424     LIBCMT:crt0dat.obj
 0003:00130428       __osplatform               005e8428     LIBCMT:crt0dat.obj
 0003:0013042c       __osver                    005e842c     LIBCMT:crt0dat.obj
 0003:00130430       __winver                   005e8430     LIBCMT:crt0dat.obj
 0003:00130434       __winmajor                 005e8434     LIBCMT:crt0dat.obj
 0003:00130438       __winminor                 005e8438     LIBCMT:crt0dat.obj
 0003:0013043c       ___argc                    005e843c     LIBCMT:crt0dat.obj
 0003:00130440       ___argv                    005e8440     LIBCMT:crt0dat.obj
 0003:00130444       ___wargv                   005e8444     LIBCMT:crt0dat.obj
 0003:00130448       __environ                  005e8448     LIBCMT:crt0dat.obj
 0003:0013044c       ___initenv                 005e844c     LIBCMT:crt0dat.obj
 0003:00130450       __wenviron                 005e8450     LIBCMT:crt0dat.obj
 0003:00130454       ___winitenv                005e8454     LIBCMT:crt0dat.obj
 0003:00130458       __pgmptr                   005e8458     LIBCMT:crt0dat.obj
 0003:0013045c       __wpgmptr                  005e845c     LIBCMT:crt0dat.obj
 0003:00130460       __exitflag                 005e8460     LIBCMT:crt0dat.obj
 0003:00130464       __C_Termination_Done       005e8464     LIBCMT:crt0dat.obj
 0003:00130468       __C_Exit_Done              005e8468     LIBCMT:crt0dat.obj
 0003:00130480       ___idtabsiz                005e8480     LIBCMT:popen.obj
 0003:00130484       ___idpairs                 005e8484     LIBCMT:popen.obj
 0003:00130488       __aenvptr                  005e8488     LIBCMT:crt0.obj
 0003:0013048c       __wenvptr                  005e848c     LIBCMT:crt0.obj
 0003:00130490       ___error_mode              005e8490     LIBCMT:crt0.obj
 0003:00130494       __tls_index                005e8494     LIBCMT:tlssup.obj
 0003:001306d8       _gpFlsAlloc                005e86d8     LIBCMT:tidtable.obj
 0003:001306dc       _gpFlsGetValue             005e86dc     LIBCMT:tidtable.obj
 0003:001306e0       _gpFlsSetValue             005e86e0     LIBCMT:tidtable.obj
 0003:001306e4       _gpFlsFree                 005e86e4     LIBCMT:tidtable.obj
 0003:001306ec       __stdbuf                   005e86ec     LIBCMT:_sftbuf.obj
 0003:001306f4       __adbgmsg                  005e86f4     LIBCMT:crt0msg.obj
 0003:00130804       ?_pnhHeap@@3P6AHI@ZA       005e8804     LIBCMT:handler.obj
 0003:00130808       __newmode                  005e8808     LIBCMT:_newmode.obj
 0003:00130810       ___lc_handle               005e8810     LIBCMT:nlsdata2.obj
 0003:00130828       ___lc_codepage             005e8828     LIBCMT:nlsdata2.obj
 0003:0013082c       ___lc_collate_cp           005e882c     LIBCMT:nlsdata2.obj
 0003:00130830       ___lconv_static_null       005e8830     LIBCMT:lconv.obj
 0003:00130834       ___lc_time_intl            005e8834     LIBCMT:inittime.obj
 0003:00130838       ___lconv_intl              005e8838     LIBCMT:initmon.obj
 0003:00130864       ___lc_id                   005e8864     LIBCMT:nlsdata3.obj
 0003:001308ec       __commode                  005e88ec     LIBCMT:ncommode.obj
 0003:001308f0       __fmode                    005e88f0     LIBCMT:txtmode.obj
 0003:00130920       _mysql_server_last_error   005e8920     <common>
 0003:00130b90       _mysql_server_last_errno   005e8b90     <common>
 0003:00130b94       _thr_client_alarm          005e8b94     <common>
 0003:00130ba0       _errbuff                   005e8ba0     <common>
 0003:00130e10       _my_signals                005e8e10     <common>
 0003:00130e20       _all_charsets              005e8e20     <common>
 0003:00131300       _THR_LOCK_threads          005e9300     <common>
 0003:00131360       _LOCK_gethostbyname_r      005e9360     <common>
 0003:00131380       _THR_COND_threads          005e9380     <common>
 0003:001313c0       _THR_LOCK_malloc           005e93c0     <common>
 0003:001313e0       _THR_LOCK_isam             005e93e0     <common>
 0003:00131400       _THR_LOCK_myisam           005e9400     <common>
 0003:00131420       _THR_LOCK_heap             005e9420     <common>
 0003:00131440       _THR_LOCK_open             005e9440     <common>
 0003:00131460       _THR_LOCK_charset          005e9460     <common>
 0003:00131480       _THR_LOCK_lock             005e9480     <common>
 0003:001314a0       _LOCK_localtime_r          005e94a0     <common>
 0003:001314c0       _THR_LOCK_net              005e94c0     <common>
 0003:001314d8       ___mblcid                  005e94d8     <common>
 0003:00131550       ___ptmbcinfo               005e9550     <common>
 0003:00131554       ___ismbcodepage            005e9554     <common>
 0003:00131560       __mbctype                  005e9560     <common>
 0003:00131664       ___mbcodepage              005e9664     <common>
 0003:00131670       ___mbulinfo                005e9670     <common>
 0003:00131680       __mbcasemap                005e9680     <common>
 0003:00131780       ___ctype1                  005e9780     <common>
 0003:00131790       ___ctype1_refcount         005e9790     <common>
 0003:00131794       ___lconv_mon_refcount      005e9794     <common>
 0003:001317a4       ___lconv_intl_refcount     005e97a4     <common>
 0003:001317a8       ___lconv_num_refcount      005e97a8     <common>
 0003:001317b4       ___sbh_initialized         005e97b4     <common>
 0003:001317c8       ___sbh_pHeaderDefer        005e97c8     <common>
 0003:001317cc       ___sbh_cntHeaderList       005e97cc     <common>
 0003:001317d0       ___sbh_pHeaderList         005e97d0     <common>
 0003:001317d4       ___sbh_threshold           005e97d4     <common>
 0003:001317d8       ___sbh_pHeaderScan         005e97d8     <common>
 0003:001317dc       ___sbh_sizeHeaderList      005e97dc     <common>
 0003:001317e0       ___sbh_indGroupDefer       005e97e0     <common>
 0003:001317e4       __crtheap                  005e97e4     <common>
 0003:001317f4       ___active_heap             005e97f4     <common>
 0003:001317f8       ___use_sse2_mathfcns       005e97f8     <common>
 0003:00131808       ___sse2_available          005e9808     <common>
 0003:0013180c       __nhandle                  005e980c     <common>
 0003:00131860       ___pioinfo                 005e9860     <common>
 0003:00131960       ___setlc_active            005e9960     <common>
 0003:00131970       ___unguarded_readlc_active 005e9970     <common>
 0003:00131974       __acmdln                   005e9974     <common>
 0003:00131980       ___env_initialized         005e9980     <common>
 0003:00131990       ___onexitend               005e9990     <common>
 0003:00131994       ___onexitbegin             005e9994     <common>
 0003:00131998       ___mbctype_initialized     005e9998     <common>
 0003:0013199c       ___piob                    005e999c     <common>
 0003:00131ce0       __bufin                    005e9ce0     <common>
 0003:00132ce0       __nstream                  005eace0     <common>
 0004:00000000       __IMPORT_DESCRIPTOR_KERNEL32 005eb000     kernel32:KERNEL32.dll
 0004:00000014       __IMPORT_DESCRIPTOR_ADVAPI32 005eb014     advapi32:ADVAPI32.dll
 0004:00000028       __IMPORT_DESCRIPTOR_WSOCK32 005eb028     wsock32:WSOCK32.dll
 0004:0000003c       __IMPORT_DESCRIPTOR_USER32 005eb03c     user32:USER32.dll
 0004:00000050       __NULL_IMPORT_DESCRIPTOR   005eb050     kernel32:KERNEL32.dll
 0004:00000434       __imp__RegCloseKey@4       005eb434     advapi32:ADVAPI32.dll
 0004:00000438       __imp__RegOpenKeyExA@20    005eb438     advapi32:ADVAPI32.dll
 0004:0000043c       __imp__CryptAcquireContextA@20 005eb43c     advapi32:ADVAPI32.dll
 0004:00000440       __imp__CryptReleaseContext@8 005eb440     advapi32:ADVAPI32.dll
 0004:00000444       __imp__CryptGenRandom@12   005eb444     advapi32:ADVAPI32.dll
 0004:00000448       __imp__StartServiceCtrlDispatcherA@4 005eb448     advapi32:ADVAPI32.dll
 0004:0000044c       __imp__RegisterServiceCtrlHandlerA@8 005eb44c     advapi32:ADVAPI32.dll
 0004:00000450       __imp__DeleteService@4     005eb450     advapi32:ADVAPI32.dll
 0004:00000454       __imp__CreateServiceA@52   005eb454     advapi32:ADVAPI32.dll
 0004:00000458       __imp__SetServiceStatus@8  005eb458     advapi32:ADVAPI32.dll
 0004:0000045c       __imp__OpenSCManagerA@12   005eb45c     advapi32:ADVAPI32.dll
 0004:00000460       __imp__OpenServiceA@12     005eb460     advapi32:ADVAPI32.dll
 0004:00000464       __imp__CloseServiceHandle@4 005eb464     advapi32:ADVAPI32.dll
 0004:00000468       __imp__RegEnumValueA@32    005eb468     advapi32:ADVAPI32.dll
 0004:0000046c       \177ADVAPI32_NULL_THUNK_DATA 005eb46c     advapi32:ADVAPI32.dll
 0004:000004a0       __imp__GetModuleHandleA@4  005eb4a0     kernel32:KERNEL32.dll
 0004:000004a4       __imp__TerminateProcess@8  005eb4a4     kernel32:KERNEL32.dll
 0004:000004a8       __imp__OpenProcess@12      005eb4a8     kernel32:KERNEL32.dll
 0004:000004ac       __imp__Sleep@4             005eb4ac     kernel32:KERNEL32.dll
 0004:000004b0       __imp__GetCurrentThreadId@0 005eb4b0     kernel32:KERNEL32.dll
 0004:000004b4       __imp__GetModuleFileNameA@12 005eb4b4     kernel32:KERNEL32.dll
 0004:000004b8       __imp__SetNamedPipeHandleState@16 005eb4b8     kernel32:KERNEL32.dll
 0004:000004bc       __imp__GetCurrentProcess@0 005eb4bc     kernel32:KERNEL32.dll
 0004:000004c0       __imp__CreateFileA@28      005eb4c0     kernel32:KERNEL32.dll
 0004:000004c4       __imp__DuplicateHandle@28  005eb4c4     kernel32:KERNEL32.dll
 0004:000004c8       __imp__GetProcAddress@8    005eb4c8     kernel32:KERNEL32.dll
 0004:000004cc       __imp__CreateRemoteThread@28 005eb4cc     kernel32:KERNEL32.dll
 0004:000004d0       __imp__GetLastError@0      005eb4d0     kernel32:KERNEL32.dll
 0004:000004d4       __imp__SetLastError@4      005eb4d4     kernel32:KERNEL32.dll
 0004:000004d8       __imp__CreateProcessA@40   005eb4d8     kernel32:KERNEL32.dll
 0004:000004dc       __imp__WaitForSingleObject@8 005eb4dc     kernel32:KERNEL32.dll
 0004:000004e0       __imp__GetExitCodeProcess@8 005eb4e0     kernel32:KERNEL32.dll
 0004:000004e4       __imp__CloseHandle@4       005eb4e4     kernel32:KERNEL32.dll
 0004:000004e8       __imp__SetCurrentDirectoryA@4 005eb4e8     kernel32:KERNEL32.dll
 0004:000004ec       __imp__GetFullPathNameA@16 005eb4ec     kernel32:KERNEL32.dll
 0004:000004f0       __imp__GetCurrentDirectoryA@8 005eb4f0     kernel32:KERNEL32.dll
 0004:000004f4       __imp__PeekNamedPipe@24    005eb4f4     kernel32:KERNEL32.dll
 0004:000004f8       __imp__GetFileInformationByHandle@8 005eb4f8     kernel32:KERNEL32.dll
 0004:000004fc       __imp__GetDriveTypeA@4     005eb4fc     kernel32:KERNEL32.dll
 0004:00000500       __imp__GetSystemTimeAsFileTime@4 005eb500     kernel32:KERNEL32.dll
 0004:00000504       __imp__EnterCriticalSection@4 005eb504     kernel32:KERNEL32.dll
 0004:00000508       __imp__LeaveCriticalSection@4 005eb508     kernel32:KERNEL32.dll
 0004:0000050c       __imp__DeleteCriticalSection@4 005eb50c     kernel32:KERNEL32.dll
 0004:00000510       __imp__WaitNamedPipeA@8    005eb510     kernel32:KERNEL32.dll
 0004:00000514       __imp__InitializeCriticalSection@4 005eb514     kernel32:KERNEL32.dll
 0004:00000518       __imp__GetLocaleInfoW@16   005eb518     kernel32:KERNEL32.dll
 0004:0000051c       __imp__LCMapStringW@24     005eb51c     kernel32:KERNEL32.dll
 0004:00000520       __imp__LCMapStringA@24     005eb520     kernel32:KERNEL32.dll
 0004:00000524       __imp__SetEnvironmentVariableA@8 005eb524     kernel32:KERNEL32.dll
 0004:00000528       __imp__CompareStringW@24   005eb528     kernel32:KERNEL32.dll
 0004:0000052c       __imp__CompareStringA@24   005eb52c     kernel32:KERNEL32.dll
 0004:00000530       __imp__GetOEMCP@0          005eb530     kernel32:KERNEL32.dll
 0004:00000534       __imp__GetACP@0            005eb534     kernel32:KERNEL32.dll
 0004:00000538       __imp__LoadLibraryA@4      005eb538     kernel32:KERNEL32.dll
 0004:0000053c       __imp__HeapSize@12         005eb53c     kernel32:KERNEL32.dll
 0004:00000540       __imp__InterlockedExchange@8 005eb540     kernel32:KERNEL32.dll
 0004:00000544       __imp__RaiseException@16   005eb544     kernel32:KERNEL32.dll
 0004:00000548       __imp__FlushFileBuffers@4  005eb548     kernel32:KERNEL32.dll
 0004:0000054c       __imp__CreateEventA@16     005eb54c     kernel32:KERNEL32.dll
 0004:00000550       __imp__SetEvent@4          005eb550     kernel32:KERNEL32.dll
 0004:00000554       __imp__ResetEvent@4        005eb554     kernel32:KERNEL32.dll
 0004:00000558       __imp__WaitForMultipleObjects@16 005eb558     kernel32:KERNEL32.dll
 0004:0000055c       __imp__TryEnterCriticalSection@4 005eb55c     kernel32:KERNEL32.dll
 0004:00000560       __imp__SetThreadPriority@8 005eb560     kernel32:KERNEL32.dll
 0004:00000564       __imp__GetLocaleInfoA@16   005eb564     kernel32:KERNEL32.dll
 0004:00000568       __imp__GetSystemDirectoryA@8 005eb568     kernel32:KERNEL32.dll
 0004:0000056c       __imp__GetWindowsDirectoryA@8 005eb56c     kernel32:KERNEL32.dll
 0004:00000570       __imp__InterlockedIncrement@4 005eb570     kernel32:KERNEL32.dll
 0004:00000574       __imp__DeleteFileA@4       005eb574     kernel32:KERNEL32.dll
 0004:00000578       __imp__MoveFileA@8         005eb578     kernel32:KERNEL32.dll
 0004:0000057c       __imp__GetTickCount@0      005eb57c     kernel32:KERNEL32.dll
 0004:00000580       __imp__GetFileAttributesExA@12 005eb580     kernel32:KERNEL32.dll
 0004:00000584       __imp__SetEndOfFile@4      005eb584     kernel32:KERNEL32.dll
 0004:00000588       __imp__SetFilePointer@16   005eb588     kernel32:KERNEL32.dll
 0004:0000058c       __imp__ReadFile@20         005eb58c     kernel32:KERNEL32.dll
 0004:00000590       __imp__WriteFile@20        005eb590     kernel32:KERNEL32.dll
 0004:00000594       __imp__UnmapViewOfFile@4   005eb594     kernel32:KERNEL32.dll
 0004:00000598       __imp__FindClose@4         005eb598     kernel32:KERNEL32.dll
 0004:0000059c       __imp__FindNextFileA@8     005eb59c     kernel32:KERNEL32.dll
 0004:000005a0       __imp__FindFirstFileA@8    005eb5a0     kernel32:KERNEL32.dll
 0004:000005a4       __imp__QueryPerformanceCounter@4 005eb5a4     kernel32:KERNEL32.dll
 0004:000005a8       __imp__QueryPerformanceFrequency@4 005eb5a8     kernel32:KERNEL32.dll
 0004:000005ac       __imp__ExitProcess@4       005eb5ac     kernel32:KERNEL32.dll
 0004:000005b0       __imp__SetConsoleCtrlHandler@8 005eb5b0     kernel32:KERNEL32.dll
 0004:000005b4       __imp__ReadConsoleInputA@16 005eb5b4     kernel32:KERNEL32.dll
 0004:000005b8       __imp__SetConsoleMode@8    005eb5b8     kernel32:KERNEL32.dll
 0004:000005bc       __imp__GetConsoleMode@8    005eb5bc     kernel32:KERNEL32.dll
 0004:000005c0       __imp__PeekConsoleInputA@16 005eb5c0     kernel32:KERNEL32.dll
 0004:000005c4       __imp__GetNumberOfConsoleInputEvents@8 005eb5c4     kernel32:KERNEL32.dll
 0004:000005c8       __imp__WriteConsoleA@20    005eb5c8     kernel32:KERNEL32.dll
 0004:000005cc       __imp__GetCommandLineA@0   005eb5cc     kernel32:KERNEL32.dll
 0004:000005d0       __imp__GetVersionExA@4     005eb5d0     kernel32:KERNEL32.dll
 0004:000005d4       __imp__HeapReAlloc@16      005eb5d4     kernel32:KERNEL32.dll
 0004:000005d8       __imp__HeapAlloc@12        005eb5d8     kernel32:KERNEL32.dll
 0004:000005dc       __imp__HeapFree@12         005eb5dc     kernel32:KERNEL32.dll
 0004:000005e0       __imp__FileTimeToSystemTime@8 005eb5e0     kernel32:KERNEL32.dll
 0004:000005e4       __imp__FileTimeToLocalFileTime@8 005eb5e4     kernel32:KERNEL32.dll
 0004:000005e8       __imp__SetStdHandle@8      005eb5e8     kernel32:KERNEL32.dll
 0004:000005ec       __imp__GetFileType@4       005eb5ec     kernel32:KERNEL32.dll
 0004:000005f0       __imp__ExitThread@4        005eb5f0     kernel32:KERNEL32.dll
 0004:000005f4       __imp__ResumeThread@4      005eb5f4     kernel32:KERNEL32.dll
 0004:000005f8       __imp__CreateThread@24     005eb5f8     kernel32:KERNEL32.dll
 0004:000005fc       __imp__WideCharToMultiByte@32 005eb5fc     kernel32:KERNEL32.dll
 0004:00000600       __imp__GetTimeZoneInformation@4 005eb600     kernel32:KERNEL32.dll
 0004:00000604       __imp__RtlUnwind@16        005eb604     kernel32:KERNEL32.dll
 0004:00000608       __imp__FatalAppExitA@8     005eb608     kernel32:KERNEL32.dll
 0004:0000060c       __imp__TlsAlloc@0          005eb60c     kernel32:KERNEL32.dll
 0004:00000610       __imp__GetCurrentThread@0  005eb610     kernel32:KERNEL32.dll
 0004:00000614       __imp__TlsFree@4           005eb614     kernel32:KERNEL32.dll
 0004:00000618       __imp__TlsSetValue@8       005eb618     kernel32:KERNEL32.dll
 0004:0000061c       __imp__TlsGetValue@4       005eb61c     kernel32:KERNEL32.dll
 0004:00000620       __imp__GetCurrentProcessId@0 005eb620     kernel32:KERNEL32.dll
 0004:00000624       __imp__SetHandleCount@4    005eb624     kernel32:KERNEL32.dll
 0004:00000628       __imp__GetStdHandle@4      005eb628     kernel32:KERNEL32.dll
 0004:0000062c       __imp__GetStartupInfoA@4   005eb62c     kernel32:KERNEL32.dll
 0004:00000630       __imp__UnhandledExceptionFilter@4 005eb630     kernel32:KERNEL32.dll
 0004:00000634       __imp__GetFileAttributesA@4 005eb634     kernel32:KERNEL32.dll
 0004:00000638       __imp__CreatePipe@16       005eb638     kernel32:KERNEL32.dll
 0004:0000063c       __imp__VirtualProtect@16   005eb63c     kernel32:KERNEL32.dll
 0004:00000640       __imp__VirtualAlloc@16     005eb640     kernel32:KERNEL32.dll
 0004:00000644       __imp__GetSystemInfo@4     005eb644     kernel32:KERNEL32.dll
 0004:00000648       __imp__VirtualQuery@12     005eb648     kernel32:KERNEL32.dll
 0004:0000064c       __imp__FreeEnvironmentStringsA@4 005eb64c     kernel32:KERNEL32.dll
 0004:00000650       __imp__GetEnvironmentStrings@0 005eb650     kernel32:KERNEL32.dll
 0004:00000654       __imp__FreeEnvironmentStringsW@4 005eb654     kernel32:KERNEL32.dll
 0004:00000658       __imp__GetEnvironmentStringsW@0 005eb658     kernel32:KERNEL32.dll
 0004:0000065c       __imp__HeapDestroy@4       005eb65c     kernel32:KERNEL32.dll
 0004:00000660       __imp__HeapCreate@12       005eb660     kernel32:KERNEL32.dll
 0004:00000664       __imp__VirtualFree@12      005eb664     kernel32:KERNEL32.dll
 0004:00000668       __imp__IsBadWritePtr@8     005eb668     kernel32:KERNEL32.dll
 0004:0000066c       __imp__GetTimeFormatA@24   005eb66c     kernel32:KERNEL32.dll
 0004:00000670       __imp__GetDateFormatA@24   005eb670     kernel32:KERNEL32.dll
 0004:00000674       __imp__GetCPInfo@8         005eb674     kernel32:KERNEL32.dll
 0004:00000678       __imp__GetUserDefaultLCID@0 005eb678     kernel32:KERNEL32.dll
 0004:0000067c       __imp__EnumSystemLocalesA@8 005eb67c     kernel32:KERNEL32.dll
 0004:00000680       __imp__IsValidLocale@8     005eb680     kernel32:KERNEL32.dll
 0004:00000684       __imp__IsValidCodePage@4   005eb684     kernel32:KERNEL32.dll
 0004:00000688       __imp__GetStringTypeA@20   005eb688     kernel32:KERNEL32.dll
 0004:0000068c       __imp__MultiByteToWideChar@24 005eb68c     kernel32:KERNEL32.dll
 0004:00000690       __imp__GetStringTypeW@16   005eb690     kernel32:KERNEL32.dll
 0004:00000694       __imp__SetEnvironmentVariableW@8 005eb694     kernel32:KERNEL32.dll
 0004:00000698       \177KERNEL32_NULL_THUNK_DATA 005eb698     kernel32:KERNEL32.dll
 0004:00000728       __imp__PeekMessageA@20     005eb728     user32:USER32.dll
 0004:0000072c       __imp__KillTimer@8         005eb72c     user32:USER32.dll
 0004:00000730       __imp__SetTimer@16         005eb730     user32:USER32.dll
 0004:00000734       \177USER32_NULL_THUNK_DATA 005eb734     user32:USER32.dll
 0004:00000760       __imp__recv@16             005eb760     wsock32:WSOCK32.dll
 0004:00000764       __imp__gethostbyname@4     005eb764     wsock32:WSOCK32.dll
 0004:00000768       __imp__WSAStartup@8        005eb768     wsock32:WSOCK32.dll
 0004:0000076c       __imp__WSACleanup@0        005eb76c     wsock32:WSOCK32.dll
 0004:00000770       __imp__WSAGetLastError@0   005eb770     wsock32:WSOCK32.dll
 0004:00000774       __imp__connect@12          005eb774     wsock32:WSOCK32.dll
 0004:00000778       __imp__select@20           005eb778     wsock32:WSOCK32.dll
 0004:0000077c       __imp____WSAFDIsSet@8      005eb77c     wsock32:WSOCK32.dll
 0004:00000780       __imp__send@16             005eb780     wsock32:WSOCK32.dll
 0004:00000784       __imp__ntohs@4             005eb784     wsock32:WSOCK32.dll
 0004:00000788       __imp__getpeername@12      005eb788     wsock32:WSOCK32.dll
 0004:0000078c       __imp__WSASetLastError@4   005eb78c     wsock32:WSOCK32.dll
 0004:00000790       __imp__accept@12           005eb790     wsock32:WSOCK32.dll
 0004:00000794       __imp__shutdown@8          005eb794     wsock32:WSOCK32.dll
 0004:00000798       __imp__socket@12           005eb798     wsock32:WSOCK32.dll
 0004:0000079c       __imp__inet_addr@4         005eb79c     wsock32:WSOCK32.dll
 0004:000007a0       __imp__htonl@4             005eb7a0     wsock32:WSOCK32.dll
 0004:000007a4       __imp__htons@4             005eb7a4     wsock32:WSOCK32.dll
 0004:000007a8       __imp__inet_ntoa@4         005eb7a8     wsock32:WSOCK32.dll
 0004:000007ac       __imp__setsockopt@20       005eb7ac     wsock32:WSOCK32.dll
 0004:000007b0       __imp__bind@12             005eb7b0     wsock32:WSOCK32.dll
 0004:000007b4       __imp__closesocket@4       005eb7b4     wsock32:WSOCK32.dll
 0004:000007b8       __imp__listen@8            005eb7b8     wsock32:WSOCK32.dll
 0004:000007bc       __imp__ioctlsocket@12      005eb7bc     wsock32:WSOCK32.dll
 0004:000007c0       __imp__gethostname@8       005eb7c0     wsock32:WSOCK32.dll
 0004:000007c4       \177WSOCK32_NULL_THUNK_DATA 005eb7c4     wsock32:WSOCK32.dll
 0005:00000000       __tls_start                005ed000     LIBCMT:tlssup.obj
 0005:00000108       _THR_KEY_mysys             005ed108     mysys:my_thr_init.obj
 0005:0000028e       __tls_end                  005ed28e     LIBCMT:tlssup.obj

 entry point at        0001:00068555

